TN:
SF:/home/fyulita/Desktop/tpi/algo1-TPI/auxiliares-tests/ej1TEST.cpp
FN:4,_ZN26vaciaTest_ImagenVacia_TestD2Ev
FN:4,_ZN26vaciaTest_ImagenVacia_Test8TestBodyEv
FN:4,_ZN26vaciaTest_ImagenVacia_TestD0Ev
FN:4,_ZN26vaciaTest_ImagenVacia_TestC2Ev
FN:9,_ZN28vaciaTest_ImagenNoVacia_TestD0Ev
FN:9,_ZN28vaciaTest_ImagenNoVacia_TestC2Ev
FN:9,_ZN28vaciaTest_ImagenNoVacia_Test8TestBodyEv
FN:9,_ZN28vaciaTest_ImagenNoVacia_TestD2Ev
FN:14,_ZN32esMatrizTest_ImagenCuadrada_Test8TestBodyEv
FN:14,_ZN32esMatrizTest_ImagenCuadrada_TestD2Ev
FN:14,_ZN32esMatrizTest_ImagenCuadrada_TestD0Ev
FN:14,_ZN32esMatrizTest_ImagenCuadrada_TestC2Ev
FN:21,_ZN32esMatrizTest_ImagenVertical_TestC2Ev
FN:21,_ZN32esMatrizTest_ImagenVertical_Test8TestBodyEv
FN:21,_ZN32esMatrizTest_ImagenVertical_TestD0Ev
FN:21,_ZN32esMatrizTest_ImagenVertical_TestD2Ev
FN:28,_ZN34esMatrizTest_ImagenHorizontal_Test8TestBodyEv
FN:28,_ZN34esMatrizTest_ImagenHorizontal_TestC2Ev
FN:28,_ZN34esMatrizTest_ImagenHorizontal_TestD2Ev
FN:28,_ZN34esMatrizTest_ImagenHorizontal_TestD0Ev
FN:33,_ZN26esMatrizTest_Escalera_TestC2Ev
FN:33,_ZN26esMatrizTest_Escalera_TestD2Ev
FN:33,_ZN26esMatrizTest_Escalera_Test8TestBodyEv
FN:33,_ZN26esMatrizTest_Escalera_TestD0Ev
FN:40,_ZN22esMatrizTest_Cero_TestD2Ev
FN:40,_ZN22esMatrizTest_Cero_TestC2Ev
FN:40,_ZN22esMatrizTest_Cero_Test8TestBodyEv
FN:40,_ZN22esMatrizTest_Cero_TestD0Ev
FN:45,_ZN23esBinariaTest_Cero_TestD2Ev
FN:45,_ZN23esBinariaTest_Cero_TestD0Ev
FN:45,_ZN23esBinariaTest_Cero_TestC2Ev
FN:45,_ZN23esBinariaTest_Cero_Test8TestBodyEv
FN:50,_ZN26esBinariaTest_UnoCero_TestC2Ev
FN:50,_ZN26esBinariaTest_UnoCero_Test8TestBodyEv
FN:50,_ZN26esBinariaTest_UnoCero_TestD0Ev
FN:50,_ZN26esBinariaTest_UnoCero_TestD2Ev
FN:56,_ZN22esBinariaTest_Dos_TestD0Ev
FN:56,_ZN22esBinariaTest_Dos_TestD2Ev
FN:56,_ZN22esBinariaTest_Dos_TestC2Ev
FN:56,_ZN22esBinariaTest_Dos_Test8TestBodyEv
FN:59,_Z41__static_initialization_and_destruction_0ii
FN:59,_GLOBAL__sub_I__ZN26vaciaTest_ImagenVacia_Test10test_info_E
FNDA:2,_ZN26vaciaTest_ImagenVacia_TestD0Ev
FNDA:2,_ZN26vaciaTest_ImagenVacia_TestD2Ev
FNDA:2,_ZN26vaciaTest_ImagenVacia_Test8TestBodyEv
FNDA:2,_ZN26vaciaTest_ImagenVacia_TestC2Ev
FNDA:2,_ZN28vaciaTest_ImagenNoVacia_TestD0Ev
FNDA:2,_ZN28vaciaTest_ImagenNoVacia_TestD2Ev
FNDA:2,_ZN28vaciaTest_ImagenNoVacia_Test8TestBodyEv
FNDA:2,_ZN28vaciaTest_ImagenNoVacia_TestC2Ev
FNDA:2,_ZN32esMatrizTest_ImagenCuadrada_TestD0Ev
FNDA:2,_ZN32esMatrizTest_ImagenCuadrada_TestD2Ev
FNDA:2,_ZN32esMatrizTest_ImagenCuadrada_Test8TestBodyEv
FNDA:2,_ZN32esMatrizTest_ImagenCuadrada_TestC2Ev
FNDA:2,_ZN32esMatrizTest_ImagenVertical_TestD0Ev
FNDA:2,_ZN32esMatrizTest_ImagenVertical_TestD2Ev
FNDA:2,_ZN32esMatrizTest_ImagenVertical_Test8TestBodyEv
FNDA:2,_ZN32esMatrizTest_ImagenVertical_TestC2Ev
FNDA:2,_ZN34esMatrizTest_ImagenHorizontal_TestD0Ev
FNDA:2,_ZN34esMatrizTest_ImagenHorizontal_TestD2Ev
FNDA:2,_ZN34esMatrizTest_ImagenHorizontal_Test8TestBodyEv
FNDA:2,_ZN34esMatrizTest_ImagenHorizontal_TestC2Ev
FNDA:2,_ZN26esMatrizTest_Escalera_TestD0Ev
FNDA:2,_ZN26esMatrizTest_Escalera_TestD2Ev
FNDA:2,_ZN26esMatrizTest_Escalera_Test8TestBodyEv
FNDA:2,_ZN26esMatrizTest_Escalera_TestC2Ev
FNDA:2,_ZN22esMatrizTest_Cero_TestD0Ev
FNDA:2,_ZN22esMatrizTest_Cero_TestD2Ev
FNDA:2,_ZN22esMatrizTest_Cero_Test8TestBodyEv
FNDA:2,_ZN22esMatrizTest_Cero_TestC2Ev
FNDA:2,_ZN23esBinariaTest_Cero_TestD0Ev
FNDA:2,_ZN23esBinariaTest_Cero_TestD2Ev
FNDA:2,_ZN23esBinariaTest_Cero_Test8TestBodyEv
FNDA:2,_ZN23esBinariaTest_Cero_TestC2Ev
FNDA:2,_ZN26esBinariaTest_UnoCero_TestD0Ev
FNDA:2,_ZN26esBinariaTest_UnoCero_TestD2Ev
FNDA:2,_ZN26esBinariaTest_UnoCero_Test8TestBodyEv
FNDA:2,_ZN26esBinariaTest_UnoCero_TestC2Ev
FNDA:2,_ZN22esBinariaTest_Dos_TestD0Ev
FNDA:2,_ZN22esBinariaTest_Dos_TestD2Ev
FNDA:2,_ZN22esBinariaTest_Dos_Test8TestBodyEv
FNDA:2,_ZN22esBinariaTest_Dos_TestC2Ev
FNDA:5,_GLOBAL__sub_I__ZN26vaciaTest_ImagenVacia_Test10test_info_E
FNDA:5,_Z41__static_initialization_and_destruction_0ii
FNF:42
FNH:42
DA:4,13
DA:5,4
DA:6,2
DA:7,2
DA:9,13
DA:10,4
DA:11,2
DA:12,2
DA:14,13
DA:17,4
DA:18,2
DA:19,2
DA:21,13
DA:24,4
DA:25,2
DA:26,2
DA:28,13
DA:29,4
DA:30,2
DA:31,2
DA:33,13
DA:36,4
DA:37,2
DA:38,2
DA:40,13
DA:41,4
DA:42,2
DA:43,2
DA:45,13
DA:46,4
DA:47,2
DA:48,2
DA:50,13
DA:52,4
DA:53,2
DA:54,2
DA:56,13
DA:57,4
DA:58,2
DA:59,17
LF:40
LH:40
end_of_record
SF:/home/fyulita/Desktop/tpi/algo1-TPI/lib/googletest-master/googletest/include/gtest/gtest-message.h
FN:91,_ZN7testing7MessageD2Ev
FNDA:0,_ZN7testing7MessageD2Ev
FNF:1
FNH:0
DA:91,0
LF:1
LH:0
end_of_record
SF:/home/fyulita/Desktop/tpi/algo1-TPI/lib/googletest-master/googletest/include/gtest/gtest.h
FN:275,_ZN7testing15AssertionResultD2Ev
FN:293,_ZN7testing15AssertionResultC2IbEERKT_PNSt9enable_ifIXntsrSt14is_convertibleIS2_S0_E5valueEvE4typeE
FN:312,_ZNK7testing15AssertionResultcvbEv
FN:417,_ZN7testing4Test14SetUpTestSuiteEv
FN:427,_ZN7testing4Test17TearDownTestSuiteEv
FN:431,_ZN7testing4Test16TearDownTestCaseEv
FN:432,_ZN7testing4Test13SetUpTestCaseEv
FN:513,_ZN7testing4Test5SetupEv
FNDA:0,_ZN7testing15AssertionResultD2Ev
FNDA:0,_ZN7testing15AssertionResultC2IbEERKT_PNSt9enable_ifIXntsrSt14is_convertibleIS2_S0_E5valueEvE4typeE
FNDA:0,_ZNK7testing15AssertionResultcvbEv
FNDA:0,_ZN7testing4Test14SetUpTestSuiteEv
FNDA:0,_ZN7testing4Test17TearDownTestSuiteEv
FNDA:0,_ZN7testing4Test16TearDownTestCaseEv
FNDA:0,_ZN7testing4Test13SetUpTestCaseEv
FNDA:0,_ZN7testing4Test5SetupEv
FNF:8
FNH:0
DA:275,0
DA:293,0
DA:299,0
DA:312,0
DA:417,0
DA:427,0
DA:431,0
DA:432,0
DA:513,0
LF:9
LH:0
end_of_record
SF:/home/fyulita/Desktop/tpi/algo1-TPI/lib/googletest-master/googletest/include/gtest/internal/gtest-internal.h
FN:442,_ZN7testing8internal15TestFactoryBaseD2Ev
FN:442,_ZN7testing8internal15TestFactoryBaseD0Ev
FN:449,_ZN7testing8internal15TestFactoryBaseC2Ev
FN:458,_ZN7testing8internal15TestFactoryImplI26vaciaTest_ImagenVacia_TestEC2Ev
FN:458,_ZN7testing8internal15TestFactoryImplI32esMatrizTest_ImagenVertical_TestEC2Ev
FN:458,_ZN7testing8internal15TestFactoryImplI28vaciaTest_ImagenNoVacia_TestED2Ev
FN:458,_ZN7testing8internal15TestFactoryImplI23esBinariaTest_Cero_TestED0Ev
FN:458,_ZN7testing8internal15TestFactoryImplI22esBinariaTest_Dos_TestEC2Ev
FN:458,_ZN7testing8internal15TestFactoryImplI28vaciaTest_ImagenNoVacia_TestED0Ev
FN:458,_ZN7testing8internal15TestFactoryImplI26esBinariaTest_UnoCero_TestEC2Ev
FN:458,_ZN7testing8internal15TestFactoryImplI26vaciaTest_ImagenVacia_TestED2Ev
FN:458,_ZN7testing8internal15TestFactoryImplI32esMatrizTest_ImagenVertical_TestED2Ev
FN:458,_ZN7testing8internal15TestFactoryImplI22esMatrizTest_Cero_TestEC2Ev
FN:458,_ZN7testing8internal15TestFactoryImplI32esMatrizTest_ImagenCuadrada_TestED0Ev
FN:458,_ZN7testing8internal15TestFactoryImplI26esMatrizTest_Escalera_TestEC2Ev
FN:458,_ZN7testing8internal15TestFactoryImplI26esMatrizTest_Escalera_TestED2Ev
FN:458,_ZN7testing8internal15TestFactoryImplI32esMatrizTest_ImagenCuadrada_TestED2Ev
FN:458,_ZN7testing8internal15TestFactoryImplI22esBinariaTest_Dos_TestED2Ev
FN:458,_ZN7testing8internal15TestFactoryImplI26esBinariaTest_UnoCero_TestED0Ev
FN:458,_ZN7testing8internal15TestFactoryImplI32esMatrizTest_ImagenVertical_TestED0Ev
FN:458,_ZN7testing8internal15TestFactoryImplI34esMatrizTest_ImagenHorizontal_TestEC2Ev
FN:458,_ZN7testing8internal15TestFactoryImplI26esMatrizTest_Escalera_TestED0Ev
FN:458,_ZN7testing8internal15TestFactoryImplI23esBinariaTest_Cero_TestEC2Ev
FN:458,_ZN7testing8internal15TestFactoryImplI32esMatrizTest_ImagenCuadrada_TestEC2Ev
FN:458,_ZN7testing8internal15TestFactoryImplI22esMatrizTest_Cero_TestED2Ev
FN:458,_ZN7testing8internal15TestFactoryImplI34esMatrizTest_ImagenHorizontal_TestED2Ev
FN:458,_ZN7testing8internal15TestFactoryImplI34esMatrizTest_ImagenHorizontal_TestED0Ev
FN:458,_ZN7testing8internal15TestFactoryImplI23esBinariaTest_Cero_TestED2Ev
FN:458,_ZN7testing8internal15TestFactoryImplI26esBinariaTest_UnoCero_TestED2Ev
FN:458,_ZN7testing8internal15TestFactoryImplI26vaciaTest_ImagenVacia_TestED0Ev
FN:458,_ZN7testing8internal15TestFactoryImplI22esMatrizTest_Cero_TestED0Ev
FN:458,_ZN7testing8internal15TestFactoryImplI28vaciaTest_ImagenNoVacia_TestEC2Ev
FN:458,_ZN7testing8internal15TestFactoryImplI22esBinariaTest_Dos_TestED0Ev
FN:460,_ZN7testing8internal15TestFactoryImplI26esMatrizTest_Escalera_TestE10CreateTestEv
FN:460,_ZN7testing8internal15TestFactoryImplI26esBinariaTest_UnoCero_TestE10CreateTestEv
FN:460,_ZN7testing8internal15TestFactoryImplI22esMatrizTest_Cero_TestE10CreateTestEv
FN:460,_ZN7testing8internal15TestFactoryImplI22esBinariaTest_Dos_TestE10CreateTestEv
FN:460,_ZN7testing8internal15TestFactoryImplI26vaciaTest_ImagenVacia_TestE10CreateTestEv
FN:460,_ZN7testing8internal15TestFactoryImplI28vaciaTest_ImagenNoVacia_TestE10CreateTestEv
FN:460,_ZN7testing8internal15TestFactoryImplI34esMatrizTest_ImagenHorizontal_TestE10CreateTestEv
FN:460,_ZN7testing8internal15TestFactoryImplI32esMatrizTest_ImagenVertical_TestE10CreateTestEv
FN:460,_ZN7testing8internal15TestFactoryImplI23esBinariaTest_Cero_TestE10CreateTestEv
FN:460,_ZN7testing8internal15TestFactoryImplI32esMatrizTest_ImagenCuadrada_TestE10CreateTestEv
FN:480,_ZN7testing8internal12CodeLocationD2Ev
FN:481,_ZN7testing8internal12CodeLocationC2ERKNSt7__cxx1112basic_stringIcSt11char_traitsIcESaIcEEEi
FN:494,_ZN7testing8internal19GetNotDefaultOrNullEPFvvES2_
FN:509,_ZN7testing8internal16SuiteApiResolverINS_4TestEE19GetSetUpCaseOrSuiteEPKci
FN:524,_ZN7testing8internal16SuiteApiResolverINS_4TestEE22GetTearDownCaseOrSuiteEPKci
FNDA:0,_ZN7testing8internal15TestFactoryBaseD0Ev
FNDA:0,_ZN7testing8internal15TestFactoryBaseD2Ev
FNDA:0,_ZN7testing8internal15TestFactoryBaseC2Ev
FNDA:5,_ZN7testing8internal15TestFactoryImplI26vaciaTest_ImagenVacia_TestED0Ev
FNDA:5,_ZN7testing8internal15TestFactoryImplI26vaciaTest_ImagenVacia_TestED2Ev
FNDA:5,_ZN7testing8internal15TestFactoryImplI28vaciaTest_ImagenNoVacia_TestED0Ev
FNDA:5,_ZN7testing8internal15TestFactoryImplI28vaciaTest_ImagenNoVacia_TestED2Ev
FNDA:5,_ZN7testing8internal15TestFactoryImplI32esMatrizTest_ImagenCuadrada_TestED0Ev
FNDA:5,_ZN7testing8internal15TestFactoryImplI32esMatrizTest_ImagenCuadrada_TestED2Ev
FNDA:5,_ZN7testing8internal15TestFactoryImplI32esMatrizTest_ImagenVertical_TestED0Ev
FNDA:5,_ZN7testing8internal15TestFactoryImplI32esMatrizTest_ImagenVertical_TestED2Ev
FNDA:5,_ZN7testing8internal15TestFactoryImplI34esMatrizTest_ImagenHorizontal_TestED0Ev
FNDA:5,_ZN7testing8internal15TestFactoryImplI34esMatrizTest_ImagenHorizontal_TestED2Ev
FNDA:5,_ZN7testing8internal15TestFactoryImplI26esMatrizTest_Escalera_TestED0Ev
FNDA:5,_ZN7testing8internal15TestFactoryImplI26esMatrizTest_Escalera_TestED2Ev
FNDA:5,_ZN7testing8internal15TestFactoryImplI22esMatrizTest_Cero_TestED0Ev
FNDA:5,_ZN7testing8internal15TestFactoryImplI22esMatrizTest_Cero_TestED2Ev
FNDA:5,_ZN7testing8internal15TestFactoryImplI23esBinariaTest_Cero_TestED0Ev
FNDA:5,_ZN7testing8internal15TestFactoryImplI23esBinariaTest_Cero_TestED2Ev
FNDA:5,_ZN7testing8internal15TestFactoryImplI26esBinariaTest_UnoCero_TestED0Ev
FNDA:5,_ZN7testing8internal15TestFactoryImplI26esBinariaTest_UnoCero_TestED2Ev
FNDA:5,_ZN7testing8internal15TestFactoryImplI22esBinariaTest_Dos_TestED0Ev
FNDA:5,_ZN7testing8internal15TestFactoryImplI22esBinariaTest_Dos_TestED2Ev
FNDA:5,_ZN7testing8internal15TestFactoryImplI22esBinariaTest_Dos_TestEC2Ev
FNDA:5,_ZN7testing8internal15TestFactoryImplI26esBinariaTest_UnoCero_TestEC2Ev
FNDA:5,_ZN7testing8internal15TestFactoryImplI23esBinariaTest_Cero_TestEC2Ev
FNDA:5,_ZN7testing8internal15TestFactoryImplI22esMatrizTest_Cero_TestEC2Ev
FNDA:5,_ZN7testing8internal15TestFactoryImplI26esMatrizTest_Escalera_TestEC2Ev
FNDA:5,_ZN7testing8internal15TestFactoryImplI34esMatrizTest_ImagenHorizontal_TestEC2Ev
FNDA:5,_ZN7testing8internal15TestFactoryImplI32esMatrizTest_ImagenVertical_TestEC2Ev
FNDA:5,_ZN7testing8internal15TestFactoryImplI32esMatrizTest_ImagenCuadrada_TestEC2Ev
FNDA:5,_ZN7testing8internal15TestFactoryImplI28vaciaTest_ImagenNoVacia_TestEC2Ev
FNDA:5,_ZN7testing8internal15TestFactoryImplI26vaciaTest_ImagenVacia_TestEC2Ev
FNDA:2,_ZN7testing8internal15TestFactoryImplI26vaciaTest_ImagenVacia_TestE10CreateTestEv
FNDA:2,_ZN7testing8internal15TestFactoryImplI28vaciaTest_ImagenNoVacia_TestE10CreateTestEv
FNDA:2,_ZN7testing8internal15TestFactoryImplI32esMatrizTest_ImagenCuadrada_TestE10CreateTestEv
FNDA:2,_ZN7testing8internal15TestFactoryImplI32esMatrizTest_ImagenVertical_TestE10CreateTestEv
FNDA:2,_ZN7testing8internal15TestFactoryImplI34esMatrizTest_ImagenHorizontal_TestE10CreateTestEv
FNDA:2,_ZN7testing8internal15TestFactoryImplI26esMatrizTest_Escalera_TestE10CreateTestEv
FNDA:2,_ZN7testing8internal15TestFactoryImplI22esMatrizTest_Cero_TestE10CreateTestEv
FNDA:2,_ZN7testing8internal15TestFactoryImplI23esBinariaTest_Cero_TestE10CreateTestEv
FNDA:2,_ZN7testing8internal15TestFactoryImplI26esBinariaTest_UnoCero_TestE10CreateTestEv
FNDA:2,_ZN7testing8internal15TestFactoryImplI22esBinariaTest_Dos_TestE10CreateTestEv
FNDA:0,_ZN7testing8internal12CodeLocationD2Ev
FNDA:0,_ZN7testing8internal12CodeLocationC2ERKNSt7__cxx1112basic_stringIcSt11char_traitsIcESaIcEEEi
FNDA:0,_ZN7testing8internal19GetNotDefaultOrNullEPFvvES2_
FNDA:0,_ZN7testing8internal16SuiteApiResolverINS_4TestEE19GetSetUpCaseOrSuiteEPKci
FNDA:0,_ZN7testing8internal16SuiteApiResolverINS_4TestEE22GetTearDownCaseOrSuiteEPKci
FNF:48
FNH:40
DA:442,0
DA:449,0
DA:458,150
DA:460,20
DA:480,0
DA:481,0
DA:482,0
DA:494,0
DA:496,0
DA:509,0
DA:511,0
DA:513,0
DA:516,0
DA:519,0
DA:521,0
DA:524,0
DA:526,0
DA:528,0
DA:531,0
DA:534,0
DA:536,0
LF:21
LH:2
end_of_record
SF:/home/fyulita/Desktop/tpi/algo1-TPI/lib/googletest-master/googletest/include/gtest/internal/gtest-port.h
FN:942,_ZN7testing8internal8GTestLog9GetStreamEv
FNDA:0,_ZN7testing8internal8GTestLog9GetStreamEv
FNF:1
FNH:0
DA:942,0
LF:1
LH:0
end_of_record
SF:/usr/include/c++/7/bits/alloc_traits.h
FN:435,_ZNSt16allocator_traitsISaISt6vectorIiSaIiEEEE8allocateERS3_m
FN:435,_ZNSt16allocator_traitsISaIiEE8allocateERS0_m
FN:461,_ZNSt16allocator_traitsISaIiEE10deallocateERS0_Pim
FN:461,_ZNSt16allocator_traitsISaISt6vectorIiSaIiEEEE10deallocateERS3_PS2_m
FN:504,_ZNSt16allocator_traitsISaIiEE37select_on_container_copy_constructionERKS0_
FNDA:0,_ZNSt16allocator_traitsISaIiEE8allocateERS0_m
FNDA:0,_ZNSt16allocator_traitsISaISt6vectorIiSaIiEEEE8allocateERS3_m
FNDA:0,_ZNSt16allocator_traitsISaISt6vectorIiSaIiEEEE10deallocateERS3_PS2_m
FNDA:0,_ZNSt16allocator_traitsISaIiEE10deallocateERS0_Pim
FNDA:0,_ZNSt16allocator_traitsISaIiEE37select_on_container_copy_constructionERKS0_
FNF:5
FNH:0
DA:435,0
DA:436,0
DA:461,0
DA:462,0
DA:504,0
DA:505,0
LF:6
LH:0
end_of_record
SF:/usr/include/c++/7/bits/allocator.h
FN:131,_ZNSaISt6vectorIiSaIiEEEC2Ev
FN:131,_ZNSaIiEC2Ev
FN:133,_ZNSaISt6vectorIiSaIiEEEC2ERKS2_
FN:133,_ZNSaIiEC2ERKS_
FN:139,_ZNSaISt6vectorIiSaIiEEED2Ev
FN:139,_ZNSaIiED2Ev
FNDA:0,_ZNSaIiEC2Ev
FNDA:0,_ZNSaISt6vectorIiSaIiEEEC2Ev
FNDA:0,_ZNSaIiEC2ERKS_
FNDA:0,_ZNSaISt6vectorIiSaIiEEEC2ERKS2_
FNDA:0,_ZNSaIiED2Ev
FNDA:0,_ZNSaISt6vectorIiSaIiEEED2Ev
FNF:6
FNH:0
DA:131,0
DA:133,0
DA:134,0
DA:139,0
LF:4
LH:0
end_of_record
SF:/usr/include/c++/7/bits/cpp_type_traits.h
FN:408,_ZSt12__miter_baseIPKiET_S2_
FN:408,_ZSt12__miter_baseIN9__gnu_cxx17__normal_iteratorIPKiSt6vectorIiSaIiEEEEET_S8_
FNDA:0,_ZSt12__miter_baseIN9__gnu_cxx17__normal_iteratorIPKiSt6vectorIiSaIiEEEEET_S8_
FNDA:0,_ZSt12__miter_baseIPKiET_S2_
FNF:2
FNH:0
DA:408,0
DA:409,0
LF:2
LH:0
end_of_record
SF:/usr/include/c++/7/bits/move.h
FN:47,_ZSt11__addressofISt6vectorIiSaIiEEEPT_RS3_
FN:73,_ZSt7forwardIRKSt6vectorIiSaIiEEEOT_RNSt16remove_referenceIS5_E4typeE
FNDA:0,_ZSt11__addressofISt6vectorIiSaIiEEEPT_RS3_
FNDA:0,_ZSt7forwardIRKSt6vectorIiSaIiEEEOT_RNSt16remove_referenceIS5_E4typeE
FNF:2
FNH:0
DA:47,0
DA:48,0
DA:73,0
DA:74,0
LF:4
LH:0
end_of_record
SF:/usr/include/c++/7/bits/stl_algobase.h
FN:277,_ZSt12__niter_baseIPiET_S1_
FN:277,_ZSt12__niter_baseIPKiET_S2_
FN:357,_ZNSt11__copy_moveILb0ELb1ESt26random_access_iterator_tagE8__copy_mIiEEPT_PKS3_S6_S4_
FN:375,_ZSt13__copy_move_aILb0EPKiPiET1_T0_S4_S3_
FN:420,_ZSt14__copy_move_a2ILb0EN9__gnu_cxx17__normal_iteratorIPKiSt6vectorIiSaIiEEEEPiET1_T0_SA_S9_
FN:420,_ZSt14__copy_move_a2ILb0EPKiPiET1_T0_S4_S3_
FN:446,_ZSt4copyIPKiPiET0_T_S4_S3_
FN:446,_ZSt4copyIN9__gnu_cxx17__normal_iteratorIPKiSt6vectorIiSaIiEEEEPiET0_T_SA_S9_
FNDA:0,_ZSt12__niter_baseIPiET_S1_
FNDA:0,_ZSt12__niter_baseIPKiET_S2_
FNDA:0,_ZNSt11__copy_moveILb0ELb1ESt26random_access_iterator_tagE8__copy_mIiEEPT_PKS3_S6_S4_
FNDA:0,_ZSt13__copy_move_aILb0EPKiPiET1_T0_S4_S3_
FNDA:0,_ZSt14__copy_move_a2ILb0EN9__gnu_cxx17__normal_iteratorIPKiSt6vectorIiSaIiEEEEPiET1_T0_SA_S9_
FNDA:0,_ZSt14__copy_move_a2ILb0EPKiPiET1_T0_S4_S3_
FNDA:0,_ZSt4copyIN9__gnu_cxx17__normal_iteratorIPKiSt6vectorIiSaIiEEEEPiET0_T_SA_S9_
FNDA:0,_ZSt4copyIPKiPiET0_T_S4_S3_
FNF:8
FNH:0
DA:277,0
DA:278,0
DA:357,0
DA:366,0
DA:367,0
DA:368,0
DA:369,0
DA:375,0
DA:380,0
DA:386,0
DA:420,0
DA:422,0
DA:424,0
DA:446,0
DA:455,0
DA:456,0
LF:16
LH:0
end_of_record
SF:/usr/include/c++/7/bits/stl_construct.h
FN:74,_ZSt10_ConstructISt6vectorIiSaIiEEJRKS2_EEvPT_DpOT0_
FN:97,_ZSt8_DestroyISt6vectorIiSaIiEEEvPT_
FN:105,_ZNSt12_Destroy_auxILb0EE9__destroyIPSt6vectorIiSaIiEEEEvT_S6_
FN:117,_ZNSt12_Destroy_auxILb1EE9__destroyIPiEEvT_S3_
FN:127,_ZSt8_DestroyIPSt6vectorIiSaIiEEEvT_S4_
FN:127,_ZSt8_DestroyIPiEvT_S1_
FN:203,_ZSt8_DestroyIPSt6vectorIiSaIiEES2_EvT_S4_RSaIT0_E
FN:203,_ZSt8_DestroyIPiiEvT_S1_RSaIT0_E
FNDA:0,_ZSt10_ConstructISt6vectorIiSaIiEEJRKS2_EEvPT_DpOT0_
FNDA:0,_ZSt8_DestroyISt6vectorIiSaIiEEEvPT_
FNDA:0,_ZNSt12_Destroy_auxILb0EE9__destroyIPSt6vectorIiSaIiEEEEvT_S6_
FNDA:0,_ZNSt12_Destroy_auxILb1EE9__destroyIPiEEvT_S3_
FNDA:0,_ZSt8_DestroyIPSt6vectorIiSaIiEEEvT_S4_
FNDA:0,_ZSt8_DestroyIPiEvT_S1_
FNDA:0,_ZSt8_DestroyIPSt6vectorIiSaIiEES2_EvT_S4_RSaIT0_E
FNDA:0,_ZSt8_DestroyIPiiEvT_S1_RSaIT0_E
FNF:8
FNH:0
DA:74,0
DA:75,0
DA:97,0
DA:98,0
DA:105,0
DA:107,0
DA:108,0
DA:109,0
DA:117,0
DA:127,0
DA:137,0
DA:138,0
DA:203,0
DA:206,0
DA:207,0
LF:15
LH:0
end_of_record
SF:/usr/include/c++/7/bits/stl_iterator.h
FN:782,_ZN9__gnu_cxx17__normal_iteratorIPKiSt6vectorIiSaIiEEEC2ERKS2_
FN:847,_ZNK9__gnu_cxx17__normal_iteratorIPKiSt6vectorIiSaIiEEE4baseEv
FN:986,_ZSt12__niter_baseIPKiSt6vectorIiSaIiEEET_N9__gnu_cxx17__normal_iteratorIS5_T0_EE
FNDA:0,_ZN9__gnu_cxx17__normal_iteratorIPKiSt6vectorIiSaIiEEEC2ERKS2_
FNDA:0,_ZNK9__gnu_cxx17__normal_iteratorIPKiSt6vectorIiSaIiEEE4baseEv
FNDA:0,_ZSt12__niter_baseIPKiSt6vectorIiSaIiEEET_N9__gnu_cxx17__normal_iteratorIS5_T0_EE
FNF:3
FNH:0
DA:782,0
DA:783,0
DA:847,0
DA:848,0
DA:986,0
DA:987,0
LF:6
LH:0
end_of_record
SF:/usr/include/c++/7/bits/stl_iterator_base_funcs.h
FN:98,_ZSt10__distanceIPKSt6vectorIiSaIiEEENSt15iterator_traitsIT_E15difference_typeES6_S6_St26random_access_iterator_tag
FN:98,_ZSt10__distanceIPKiENSt15iterator_traitsIT_E15difference_typeES3_S3_St26random_access_iterator_tag
FN:138,_ZSt8distanceIPKSt6vectorIiSaIiEEENSt15iterator_traitsIT_E15difference_typeES6_S6_
FN:138,_ZSt8distanceIPKiENSt15iterator_traitsIT_E15difference_typeES3_S3_
FNDA:0,_ZSt10__distanceIPKiENSt15iterator_traitsIT_E15difference_typeES3_S3_St26random_access_iterator_tag
FNDA:0,_ZSt10__distanceIPKSt6vectorIiSaIiEEENSt15iterator_traitsIT_E15difference_typeES6_S6_St26random_access_iterator_tag
FNDA:0,_ZSt8distanceIPKiENSt15iterator_traitsIT_E15difference_typeES3_S3_
FNDA:0,_ZSt8distanceIPKSt6vectorIiSaIiEEENSt15iterator_traitsIT_E15difference_typeES6_S6_
FNF:4
FNH:0
DA:98,0
DA:104,0
DA:138,0
DA:141,0
DA:142,0
LF:5
LH:0
end_of_record
SF:/usr/include/c++/7/bits/stl_iterator_base_types.h
FN:205,_ZSt19__iterator_categoryIPKSt6vectorIiSaIiEEENSt15iterator_traitsIT_E17iterator_categoryERKS6_
FN:205,_ZSt19__iterator_categoryIPKiENSt15iterator_traitsIT_E17iterator_categoryERKS3_
FNDA:0,_ZSt19__iterator_categoryIPKiENSt15iterator_traitsIT_E17iterator_categoryERKS3_
FNDA:0,_ZSt19__iterator_categoryIPKSt6vectorIiSaIiEEENSt15iterator_traitsIT_E17iterator_categoryERKS6_
FNF:2
FNH:0
DA:205,0
DA:206,0
LF:2
LH:0
end_of_record
SF:/usr/include/c++/7/bits/stl_uninitialized.h
FN:76,_ZNSt20__uninitialized_copyILb0EE13__uninit_copyIPKSt6vectorIiSaIiEEPS4_EET0_T_S9_S8_
FN:99,_ZNSt20__uninitialized_copyILb1EE13__uninit_copyIN9__gnu_cxx17__normal_iteratorIPKiSt6vectorIiSaIiEEEEPiEET0_T_SC_SB_
FN:99,_ZNSt20__uninitialized_copyILb1EE13__uninit_copyIPKiPiEET0_T_S6_S5_
FN:115,_ZSt18uninitialized_copyIN9__gnu_cxx17__normal_iteratorIPKiSt6vectorIiSaIiEEEEPiET0_T_SA_S9_
FN:115,_ZSt18uninitialized_copyIPKiPiET0_T_S4_S3_
FN:115,_ZSt18uninitialized_copyIPKSt6vectorIiSaIiEEPS2_ET0_T_S7_S6_
FN:287,_ZSt22__uninitialized_copy_aIN9__gnu_cxx17__normal_iteratorIPKiSt6vectorIiSaIiEEEEPiiET0_T_SA_S9_RSaIT1_E
FN:287,_ZSt22__uninitialized_copy_aIPKSt6vectorIiSaIiEEPS2_S2_ET0_T_S7_S6_RSaIT1_E
FN:287,_ZSt22__uninitialized_copy_aIPKiPiiET0_T_S4_S3_RSaIT1_E
FNDA:0,_ZNSt20__uninitialized_copyILb0EE13__uninit_copyIPKSt6vectorIiSaIiEEPS4_EET0_T_S9_S8_
FNDA:0,_ZNSt20__uninitialized_copyILb1EE13__uninit_copyIN9__gnu_cxx17__normal_iteratorIPKiSt6vectorIiSaIiEEEEPiEET0_T_SC_SB_
FNDA:0,_ZNSt20__uninitialized_copyILb1EE13__uninit_copyIPKiPiEET0_T_S6_S5_
FNDA:0,_ZSt18uninitialized_copyIN9__gnu_cxx17__normal_iteratorIPKiSt6vectorIiSaIiEEEEPiET0_T_SA_S9_
FNDA:0,_ZSt18uninitialized_copyIPKiPiET0_T_S4_S3_
FNDA:0,_ZSt18uninitialized_copyIPKSt6vectorIiSaIiEEPS2_ET0_T_S7_S6_
FNDA:0,_ZSt22__uninitialized_copy_aIN9__gnu_cxx17__normal_iteratorIPKiSt6vectorIiSaIiEEEEPiiET0_T_SA_S9_RSaIT1_E
FNDA:0,_ZSt22__uninitialized_copy_aIPKiPiiET0_T_S4_S3_RSaIT1_E
FNDA:0,_ZSt22__uninitialized_copy_aIPKSt6vectorIiSaIiEEPS2_S2_ET0_T_S7_S6_RSaIT1_E
FNF:9
FNH:0
DA:76,0
DA:79,0
DA:82,0
DA:83,0
DA:84,0
DA:86,0
DA:88,0
DA:89,0
DA:99,0
DA:101,0
DA:115,0
DA:128,0
DA:134,0
DA:287,0
DA:289,0
LF:15
LH:0
end_of_record
SF:/usr/include/c++/7/bits/stl_vector.h
FN:81,_ZNSt12_Vector_baseIiSaIiEE12_Vector_implD2Ev
FN:81,_ZNSt12_Vector_baseISt6vectorIiSaIiEESaIS2_EE12_Vector_implD2Ev
FN:88,_ZNSt12_Vector_baseIiSaIiEE12_Vector_implC2Ev
FN:92,_ZNSt12_Vector_baseISt6vectorIiSaIiEESaIS2_EE12_Vector_implC2ERKS3_
FN:92,_ZNSt12_Vector_baseIiSaIiEE12_Vector_implC2ERKS0_
FN:115,_ZNSt12_Vector_baseIiSaIiEE19_M_get_Tp_allocatorEv
FN:115,_ZNSt12_Vector_baseISt6vectorIiSaIiEESaIS2_EE19_M_get_Tp_allocatorEv
FN:119,_ZNKSt12_Vector_baseIiSaIiEE19_M_get_Tp_allocatorEv
FN:126,_ZNSt12_Vector_baseIiSaIiEEC2Ev
FN:129,_ZNSt12_Vector_baseIiSaIiEEC2ERKS0_
FN:129,_ZNSt12_Vector_baseISt6vectorIiSaIiEESaIS2_EEC2ERKS3_
FN:136,_ZNSt12_Vector_baseIiSaIiEEC2EmRKS0_
FN:161,_ZNSt12_Vector_baseISt6vectorIiSaIiEESaIS2_EED2Ev
FN:161,_ZNSt12_Vector_baseIiSaIiEED2Ev
FN:169,_ZNSt12_Vector_baseISt6vectorIiSaIiEESaIS2_EE11_M_allocateEm
FN:169,_ZNSt12_Vector_baseIiSaIiEE11_M_allocateEm
FN:176,_ZNSt12_Vector_baseISt6vectorIiSaIiEESaIS2_EE13_M_deallocateEPS2_m
FN:176,_ZNSt12_Vector_baseIiSaIiEE13_M_deallocateEPim
FN:185,_ZNSt12_Vector_baseIiSaIiEE17_M_create_storageEm
FN:259,_ZNSt6vectorIiSaIiEEC2Ev
FN:326,_ZNSt6vectorIiSaIiEEC2ERKS1_
FN:383,_ZNSt6vectorIiSaIiEEC2ESt16initializer_listIiERKS0_
FN:383,_ZNSt6vectorIS_IiSaIiEESaIS1_EEC2ESt16initializer_listIS1_ERKS2_
FN:433,_ZNSt6vectorIiSaIiEED2Ev
FN:433,_ZNSt6vectorIS_IiSaIiEESaIS1_EED2Ev
FN:572,_ZNKSt6vectorIiSaIiEE5beginEv
FN:590,_ZNKSt6vectorIiSaIiEE3endEv
FN:670,_ZNKSt6vectorIiSaIiEE4sizeEv
FN:1324,_ZNSt6vectorIiSaIiEE19_M_range_initializeIPKiEEvT_S5_St20forward_iterator_tag
FN:1324,_ZNSt6vectorIS_IiSaIiEESaIS1_EE19_M_range_initializeIPKS1_EEvT_S7_St20forward_iterator_tag
FNDA:0,_ZNSt12_Vector_baseISt6vectorIiSaIiEESaIS2_EE12_Vector_implD2Ev
FNDA:0,_ZNSt12_Vector_baseIiSaIiEE12_Vector_implD2Ev
FNDA:0,_ZNSt12_Vector_baseIiSaIiEE12_Vector_implC2Ev
FNDA:0,_ZNSt12_Vector_baseIiSaIiEE12_Vector_implC2ERKS0_
FNDA:0,_ZNSt12_Vector_baseISt6vectorIiSaIiEESaIS2_EE12_Vector_implC2ERKS3_
FNDA:0,_ZNSt12_Vector_baseISt6vectorIiSaIiEESaIS2_EE19_M_get_Tp_allocatorEv
FNDA:0,_ZNSt12_Vector_baseIiSaIiEE19_M_get_Tp_allocatorEv
FNDA:0,_ZNKSt12_Vector_baseIiSaIiEE19_M_get_Tp_allocatorEv
FNDA:0,_ZNSt12_Vector_baseIiSaIiEEC2Ev
FNDA:0,_ZNSt12_Vector_baseIiSaIiEEC2ERKS0_
FNDA:0,_ZNSt12_Vector_baseISt6vectorIiSaIiEESaIS2_EEC2ERKS3_
FNDA:0,_ZNSt12_Vector_baseIiSaIiEEC2EmRKS0_
FNDA:0,_ZNSt12_Vector_baseISt6vectorIiSaIiEESaIS2_EED2Ev
FNDA:0,_ZNSt12_Vector_baseIiSaIiEED2Ev
FNDA:0,_ZNSt12_Vector_baseIiSaIiEE11_M_allocateEm
FNDA:0,_ZNSt12_Vector_baseISt6vectorIiSaIiEESaIS2_EE11_M_allocateEm
FNDA:0,_ZNSt12_Vector_baseISt6vectorIiSaIiEESaIS2_EE13_M_deallocateEPS2_m
FNDA:0,_ZNSt12_Vector_baseIiSaIiEE13_M_deallocateEPim
FNDA:0,_ZNSt12_Vector_baseIiSaIiEE17_M_create_storageEm
FNDA:0,_ZNSt6vectorIiSaIiEEC2Ev
FNDA:0,_ZNSt6vectorIiSaIiEEC2ERKS1_
FNDA:0,_ZNSt6vectorIiSaIiEEC2ESt16initializer_listIiERKS0_
FNDA:0,_ZNSt6vectorIS_IiSaIiEESaIS1_EEC2ESt16initializer_listIS1_ERKS2_
FNDA:0,_ZNSt6vectorIS_IiSaIiEESaIS1_EED2Ev
FNDA:0,_ZNSt6vectorIiSaIiEED2Ev
FNDA:0,_ZNKSt6vectorIiSaIiEE5beginEv
FNDA:0,_ZNKSt6vectorIiSaIiEE3endEv
FNDA:0,_ZNKSt6vectorIiSaIiEE4sizeEv
FNDA:0,_ZNSt6vectorIiSaIiEE19_M_range_initializeIPKiEEvT_S5_St20forward_iterator_tag
FNDA:0,_ZNSt6vectorIS_IiSaIiEESaIS1_EE19_M_range_initializeIPKS1_EEvT_S7_St20forward_iterator_tag
FNF:30
FNH:0
DA:81,0
DA:88,0
DA:89,0
DA:90,0
DA:92,0
DA:93,0
DA:94,0
DA:115,0
DA:116,0
DA:119,0
DA:120,0
DA:126,0
DA:127,0
DA:129,0
DA:130,0
DA:136,0
DA:137,0
DA:138,0
DA:161,0
DA:162,0
DA:163,0
DA:169,0
DA:172,0
DA:176,0
DA:179,0
DA:180,0
DA:181,0
DA:185,0
DA:187,0
DA:188,0
DA:189,0
DA:190,0
DA:259,0
DA:263,0
DA:326,0
DA:328,0
DA:330,0
DA:331,0
DA:333,0
DA:334,0
DA:383,0
DA:385,0
DA:387,0
DA:389,0
DA:433,0
DA:434,0
DA:435,0
DA:572,0
DA:573,0
DA:590,0
DA:591,0
DA:670,0
DA:671,0
DA:1324,0
DA:1327,0
DA:1328,0
DA:1329,0
DA:1330,0
DA:1331,0
DA:1333,0
DA:1334,0
LF:61
LH:0
end_of_record
SF:/usr/include/c++/7/bits/unique_ptr.h
FN:72,_ZNKSt14default_deleteINSt7__cxx1118basic_stringstreamIcSt11char_traitsIcESaIcEEEEclEPS5_
FN:72,_ZNKSt14default_deleteINSt7__cxx1112basic_stringIcSt11char_traitsIcESaIcEEEEclEPS5_
FN:139,_ZNSt15__uniq_ptr_implINSt7__cxx1112basic_stringIcSt11char_traitsIcESaIcEEESt14default_deleteIS5_EEC2Ev
FN:146,_ZNSt15__uniq_ptr_implINSt7__cxx1118basic_stringstreamIcSt11char_traitsIcESaIcEEESt14default_deleteIS5_EE6_M_ptrEv
FN:146,_ZNSt15__uniq_ptr_implINSt7__cxx1112basic_stringIcSt11char_traitsIcESaIcEEESt14default_deleteIS5_EE6_M_ptrEv
FN:148,_ZNSt15__uniq_ptr_implINSt7__cxx1112basic_stringIcSt11char_traitsIcESaIcEEESt14default_deleteIS5_EE10_M_deleterEv
FN:148,_ZNSt15__uniq_ptr_implINSt7__cxx1118basic_stringstreamIcSt11char_traitsIcESaIcEEESt14default_deleteIS5_EE10_M_deleterEv
FN:188,_ZNSt10unique_ptrINSt7__cxx1112basic_stringIcSt11char_traitsIcESaIcEEESt14default_deleteIS5_EEC2IS7_vEEv
FN:264,_ZNSt10unique_ptrINSt7__cxx1112basic_stringIcSt11char_traitsIcESaIcEEESt14default_deleteIS5_EED2Ev
FN:264,_ZNSt10unique_ptrINSt7__cxx1118basic_stringstreamIcSt11char_traitsIcESaIcEEESt14default_deleteIS5_EED2Ev
FN:341,_ZNSt10unique_ptrINSt7__cxx1118basic_stringstreamIcSt11char_traitsIcESaIcEEESt14default_deleteIS5_EE11get_deleterEv
FN:341,_ZNSt10unique_ptrINSt7__cxx1112basic_stringIcSt11char_traitsIcESaIcEEESt14default_deleteIS5_EE11get_deleterEv
FNDA:0,_ZNKSt14default_deleteINSt7__cxx1112basic_stringIcSt11char_traitsIcESaIcEEEEclEPS5_
FNDA:0,_ZNKSt14default_deleteINSt7__cxx1118basic_stringstreamIcSt11char_traitsIcESaIcEEEEclEPS5_
FNDA:0,_ZNSt15__uniq_ptr_implINSt7__cxx1112basic_stringIcSt11char_traitsIcESaIcEEESt14default_deleteIS5_EEC2Ev
FNDA:0,_ZNSt15__uniq_ptr_implINSt7__cxx1112basic_stringIcSt11char_traitsIcESaIcEEESt14default_deleteIS5_EE6_M_ptrEv
FNDA:0,_ZNSt15__uniq_ptr_implINSt7__cxx1118basic_stringstreamIcSt11char_traitsIcESaIcEEESt14default_deleteIS5_EE6_M_ptrEv
FNDA:0,_ZNSt15__uniq_ptr_implINSt7__cxx1112basic_stringIcSt11char_traitsIcESaIcEEESt14default_deleteIS5_EE10_M_deleterEv
FNDA:0,_ZNSt15__uniq_ptr_implINSt7__cxx1118basic_stringstreamIcSt11char_traitsIcESaIcEEESt14default_deleteIS5_EE10_M_deleterEv
FNDA:0,_ZNSt10unique_ptrINSt7__cxx1112basic_stringIcSt11char_traitsIcESaIcEEESt14default_deleteIS5_EEC2IS7_vEEv
FNDA:0,_ZNSt10unique_ptrINSt7__cxx1112basic_stringIcSt11char_traitsIcESaIcEEESt14default_deleteIS5_EED2Ev
FNDA:0,_ZNSt10unique_ptrINSt7__cxx1118basic_stringstreamIcSt11char_traitsIcESaIcEEESt14default_deleteIS5_EED2Ev
FNDA:0,_ZNSt10unique_ptrINSt7__cxx1112basic_stringIcSt11char_traitsIcESaIcEEESt14default_deleteIS5_EE11get_deleterEv
FNDA:0,_ZNSt10unique_ptrINSt7__cxx1118basic_stringstreamIcSt11char_traitsIcESaIcEEESt14default_deleteIS5_EE11get_deleterEv
FNF:12
FNH:0
DA:72,0
DA:78,0
DA:79,0
DA:139,0
DA:146,0
DA:148,0
DA:188,0
DA:189,0
DA:190,0
DA:264,0
DA:266,0
DA:267,0
DA:268,0
DA:269,0
DA:270,0
DA:341,0
DA:342,0
LF:17
LH:0
end_of_record
SF:/usr/include/c++/7/ext/alloc_traits.h
FN:94,_ZN9__gnu_cxx14__alloc_traitsISaIiEE17_S_select_on_copyERKS1_
FNDA:0,_ZN9__gnu_cxx14__alloc_traitsISaIiEE17_S_select_on_copyERKS1_
FNF:1
FNH:0
DA:94,0
DA:95,0
LF:2
LH:0
end_of_record
SF:/usr/include/c++/7/ext/new_allocator.h
FN:79,_ZN9__gnu_cxx13new_allocatorISt6vectorIiSaIiEEEC2Ev
FN:79,_ZN9__gnu_cxx13new_allocatorIiEC2Ev
FN:81,_ZN9__gnu_cxx13new_allocatorIiEC2ERKS1_
FN:81,_ZN9__gnu_cxx13new_allocatorISt6vectorIiSaIiEEEC2ERKS4_
FN:86,_ZN9__gnu_cxx13new_allocatorISt6vectorIiSaIiEEED2Ev
FN:86,_ZN9__gnu_cxx13new_allocatorIiED2Ev
FN:99,_ZN9__gnu_cxx13new_allocatorISt6vectorIiSaIiEEE8allocateEmPKv
FN:99,_ZN9__gnu_cxx13new_allocatorIiE8allocateEmPKv
FN:116,_ZN9__gnu_cxx13new_allocatorIiE10deallocateEPim
FN:116,_ZN9__gnu_cxx13new_allocatorISt6vectorIiSaIiEEE10deallocateEPS3_m
FN:129,_ZNK9__gnu_cxx13new_allocatorISt6vectorIiSaIiEEE8max_sizeEv
FN:129,_ZNK9__gnu_cxx13new_allocatorIiE8max_sizeEv
FNDA:0,_ZN9__gnu_cxx13new_allocatorIiEC2Ev
FNDA:0,_ZN9__gnu_cxx13new_allocatorISt6vectorIiSaIiEEEC2Ev
FNDA:0,_ZN9__gnu_cxx13new_allocatorIiEC2ERKS1_
FNDA:0,_ZN9__gnu_cxx13new_allocatorISt6vectorIiSaIiEEEC2ERKS4_
FNDA:0,_ZN9__gnu_cxx13new_allocatorIiED2Ev
FNDA:0,_ZN9__gnu_cxx13new_allocatorISt6vectorIiSaIiEEED2Ev
FNDA:0,_ZN9__gnu_cxx13new_allocatorIiE8allocateEmPKv
FNDA:0,_ZN9__gnu_cxx13new_allocatorISt6vectorIiSaIiEEE8allocateEmPKv
FNDA:0,_ZN9__gnu_cxx13new_allocatorISt6vectorIiSaIiEEE10deallocateEPS3_m
FNDA:0,_ZN9__gnu_cxx13new_allocatorIiE10deallocateEPim
FNDA:0,_ZNK9__gnu_cxx13new_allocatorIiE8max_sizeEv
FNDA:0,_ZNK9__gnu_cxx13new_allocatorISt6vectorIiSaIiEEE8max_sizeEv
FNF:12
FNH:0
DA:79,0
DA:81,0
DA:86,0
DA:99,0
DA:101,0
DA:102,0
DA:111,0
DA:116,0
DA:125,0
DA:126,0
DA:129,0
DA:130,0
LF:12
LH:0
end_of_record
SF:/usr/include/c++/7/initializer_list
FN:71,_ZNKSt16initializer_listIiE4sizeEv
FN:71,_ZNKSt16initializer_listISt6vectorIiSaIiEEE4sizeEv
FN:75,_ZNKSt16initializer_listIiE5beginEv
FN:75,_ZNKSt16initializer_listISt6vectorIiSaIiEEE5beginEv
FN:79,_ZNKSt16initializer_listIiE3endEv
FN:79,_ZNKSt16initializer_listISt6vectorIiSaIiEEE3endEv
FNDA:0,_ZNKSt16initializer_listIiE4sizeEv
FNDA:0,_ZNKSt16initializer_listISt6vectorIiSaIiEEE4sizeEv
FNDA:0,_ZNKSt16initializer_listIiE5beginEv
FNDA:0,_ZNKSt16initializer_listISt6vectorIiSaIiEEE5beginEv
FNDA:0,_ZNKSt16initializer_listIiE3endEv
FNDA:0,_ZNKSt16initializer_listISt6vectorIiSaIiEEE3endEv
FNF:6
FNH:0
DA:71,0
DA:75,0
DA:79,0
LF:3
LH:0
end_of_record
SF:/usr/include/c++/7/iostream
DA:74,5
LF:1
LH:1
end_of_record
SF:/usr/include/c++/7/new
FN:168,_ZnwmPv
FN:174,_ZdlPvS_
FNDA:0,_ZnwmPv
FNDA:0,_ZdlPvS_
FNF:2
FNH:0
DA:168,0
DA:169,0
DA:174,0
LF:3
LH:0
end_of_record
SF:/usr/include/c++/7/tuple
FN:76,_ZNSt10_Head_baseILm1ESt14default_deleteINSt7__cxx1112basic_stringIcSt11char_traitsIcESaIcEEEELb1EEC2Ev
FN:113,_ZNSt10_Head_baseILm1ESt14default_deleteINSt7__cxx1118basic_stringstreamIcSt11char_traitsIcESaIcEEEELb1EE7_M_headERS8_
FN:113,_ZNSt10_Head_baseILm1ESt14default_deleteINSt7__cxx1112basic_stringIcSt11char_traitsIcESaIcEEEELb1EE7_M_headERS8_
FN:122,_ZNSt10_Head_baseILm0EPNSt7__cxx1112basic_stringIcSt11char_traitsIcESaIcEEELb0EEC2Ev
FN:160,_ZNSt10_Head_baseILm0EPNSt7__cxx1112basic_stringIcSt11char_traitsIcESaIcEEELb0EE7_M_headERS7_
FN:160,_ZNSt10_Head_baseILm0EPNSt7__cxx1118basic_stringstreamIcSt11char_traitsIcESaIcEEELb0EE7_M_headERS7_
FN:195,_ZNSt11_Tuple_implILm0EJPNSt7__cxx1112basic_stringIcSt11char_traitsIcESaIcEEESt14default_deleteIS5_EEE7_M_headERS9_
FN:195,_ZNSt11_Tuple_implILm0EJPNSt7__cxx1118basic_stringstreamIcSt11char_traitsIcESaIcEEESt14default_deleteIS5_EEE7_M_headERS9_
FN:206,_ZNSt11_Tuple_implILm0EJPNSt7__cxx1112basic_stringIcSt11char_traitsIcESaIcEEESt14default_deleteIS5_EEEC2Ev
FN:351,_ZNSt11_Tuple_implILm1EJSt14default_deleteINSt7__cxx1118basic_stringstreamIcSt11char_traitsIcESaIcEEEEEE7_M_headERS8_
FN:351,_ZNSt11_Tuple_implILm1EJSt14default_deleteINSt7__cxx1112basic_stringIcSt11char_traitsIcESaIcEEEEEE7_M_headERS8_
FN:356,_ZNSt11_Tuple_implILm1EJSt14default_deleteINSt7__cxx1112basic_stringIcSt11char_traitsIcESaIcEEEEEEC2Ev
FN:919,_ZNSt5tupleIJPNSt7__cxx1112basic_stringIcSt11char_traitsIcESaIcEEESt14default_deleteIS5_EEEC2IS6_S8_Lb1EEEv
FN:1303,_ZSt12__get_helperILm0EPNSt7__cxx1112basic_stringIcSt11char_traitsIcESaIcEEEJSt14default_deleteIS5_EEERT0_RSt11_Tuple_implIXT_EJS9_DpT1_EE
FN:1303,_ZSt12__get_helperILm1ESt14default_deleteINSt7__cxx1112basic_stringIcSt11char_traitsIcESaIcEEEEJEERT0_RSt11_Tuple_implIXT_EJS8_DpT1_EE
FN:1303,_ZSt12__get_helperILm0EPNSt7__cxx1118basic_stringstreamIcSt11char_traitsIcESaIcEEEJSt14default_deleteIS5_EEERT0_RSt11_Tuple_implIXT_EJS9_DpT1_EE
FN:1303,_ZSt12__get_helperILm1ESt14default_deleteINSt7__cxx1118basic_stringstreamIcSt11char_traitsIcESaIcEEEEJEERT0_RSt11_Tuple_implIXT_EJS8_DpT1_EE
FN:1314,_ZSt3getILm1EJPNSt7__cxx1112basic_stringIcSt11char_traitsIcESaIcEEESt14default_deleteIS5_EEERNSt13tuple_elementIXT_ESt5tupleIJDpT0_EEE4typeERSD_
FN:1314,_ZSt3getILm0EJPNSt7__cxx1112basic_stringIcSt11char_traitsIcESaIcEEESt14default_deleteIS5_EEERNSt13tuple_elementIXT_ESt5tupleIJDpT0_EEE4typeERSD_
FN:1314,_ZSt3getILm1EJPNSt7__cxx1118basic_stringstreamIcSt11char_traitsIcESaIcEEESt14default_deleteIS5_EEERNSt13tuple_elementIXT_ESt5tupleIJDpT0_EEE4typeERSD_
FN:1314,_ZSt3getILm0EJPNSt7__cxx1118basic_stringstreamIcSt11char_traitsIcESaIcEEESt14default_deleteIS5_EEERNSt13tuple_elementIXT_ESt5tupleIJDpT0_EEE4typeERSD_
FNDA:0,_ZNSt10_Head_baseILm1ESt14default_deleteINSt7__cxx1112basic_stringIcSt11char_traitsIcESaIcEEEELb1EEC2Ev
FNDA:0,_ZNSt10_Head_baseILm1ESt14default_deleteINSt7__cxx1112basic_stringIcSt11char_traitsIcESaIcEEEELb1EE7_M_headERS8_
FNDA:0,_ZNSt10_Head_baseILm1ESt14default_deleteINSt7__cxx1118basic_stringstreamIcSt11char_traitsIcESaIcEEEELb1EE7_M_headERS8_
FNDA:0,_ZNSt10_Head_baseILm0EPNSt7__cxx1112basic_stringIcSt11char_traitsIcESaIcEEELb0EEC2Ev
FNDA:0,_ZNSt10_Head_baseILm0EPNSt7__cxx1112basic_stringIcSt11char_traitsIcESaIcEEELb0EE7_M_headERS7_
FNDA:0,_ZNSt10_Head_baseILm0EPNSt7__cxx1118basic_stringstreamIcSt11char_traitsIcESaIcEEELb0EE7_M_headERS7_
FNDA:0,_ZNSt11_Tuple_implILm0EJPNSt7__cxx1112basic_stringIcSt11char_traitsIcESaIcEEESt14default_deleteIS5_EEE7_M_headERS9_
FNDA:0,_ZNSt11_Tuple_implILm0EJPNSt7__cxx1118basic_stringstreamIcSt11char_traitsIcESaIcEEESt14default_deleteIS5_EEE7_M_headERS9_
FNDA:0,_ZNSt11_Tuple_implILm0EJPNSt7__cxx1112basic_stringIcSt11char_traitsIcESaIcEEESt14default_deleteIS5_EEEC2Ev
FNDA:0,_ZNSt11_Tuple_implILm1EJSt14default_deleteINSt7__cxx1112basic_stringIcSt11char_traitsIcESaIcEEEEEE7_M_headERS8_
FNDA:0,_ZNSt11_Tuple_implILm1EJSt14default_deleteINSt7__cxx1118basic_stringstreamIcSt11char_traitsIcESaIcEEEEEE7_M_headERS8_
FNDA:0,_ZNSt11_Tuple_implILm1EJSt14default_deleteINSt7__cxx1112basic_stringIcSt11char_traitsIcESaIcEEEEEEC2Ev
FNDA:0,_ZNSt5tupleIJPNSt7__cxx1112basic_stringIcSt11char_traitsIcESaIcEEESt14default_deleteIS5_EEEC2IS6_S8_Lb1EEEv
FNDA:0,_ZSt12__get_helperILm1ESt14default_deleteINSt7__cxx1112basic_stringIcSt11char_traitsIcESaIcEEEEJEERT0_RSt11_Tuple_implIXT_EJS8_DpT1_EE
FNDA:0,_ZSt12__get_helperILm1ESt14default_deleteINSt7__cxx1118basic_stringstreamIcSt11char_traitsIcESaIcEEEEJEERT0_RSt11_Tuple_implIXT_EJS8_DpT1_EE
FNDA:0,_ZSt12__get_helperILm0EPNSt7__cxx1112basic_stringIcSt11char_traitsIcESaIcEEEJSt14default_deleteIS5_EEERT0_RSt11_Tuple_implIXT_EJS9_DpT1_EE
FNDA:0,_ZSt12__get_helperILm0EPNSt7__cxx1118basic_stringstreamIcSt11char_traitsIcESaIcEEEJSt14default_deleteIS5_EEERT0_RSt11_Tuple_implIXT_EJS9_DpT1_EE
FNDA:0,_ZSt3getILm1EJPNSt7__cxx1112basic_stringIcSt11char_traitsIcESaIcEEESt14default_deleteIS5_EEERNSt13tuple_elementIXT_ESt5tupleIJDpT0_EEE4typeERSD_
FNDA:0,_ZSt3getILm1EJPNSt7__cxx1118basic_stringstreamIcSt11char_traitsIcESaIcEEESt14default_deleteIS5_EEERNSt13tuple_elementIXT_ESt5tupleIJDpT0_EEE4typeERSD_
FNDA:0,_ZSt3getILm0EJPNSt7__cxx1112basic_stringIcSt11char_traitsIcESaIcEEESt14default_deleteIS5_EEERNSt13tuple_elementIXT_ESt5tupleIJDpT0_EEE4typeERSD_
FNDA:0,_ZSt3getILm0EJPNSt7__cxx1118basic_stringstreamIcSt11char_traitsIcESaIcEEESt14default_deleteIS5_EEERNSt13tuple_elementIXT_ESt5tupleIJDpT0_EEE4typeERSD_
FNF:21
FNH:0
DA:76,0
DA:77,0
DA:113,0
DA:122,0
DA:123,0
DA:160,0
DA:195,0
DA:206,0
DA:207,0
DA:351,0
DA:356,0
DA:357,0
DA:919,0
DA:920,0
DA:1303,0
DA:1304,0
DA:1314,0
DA:1315,0
LF:18
LH:0
end_of_record
TN:
SF:/home/fyulita/Desktop/tpi/algo1-TPI/auxiliares-tests/ej5TEST.cpp
FN:4,_ZN43dilatacionTest_tapandooHuecosDeUnPixel_TestD2Ev
FN:4,_ZN43dilatacionTest_tapandooHuecosDeUnPixel_Test8TestBodyEv
FN:4,_ZN43dilatacionTest_tapandooHuecosDeUnPixel_TestD0Ev
FN:4,_ZN43dilatacionTest_tapandooHuecosDeUnPixel_TestC2Ev
FN:34,_ZN33dilatacionTest_cierreConCruz_TestD2Ev
FN:34,_ZN33dilatacionTest_cierreConCruz_TestC2Ev
FN:34,_ZN33dilatacionTest_cierreConCruz_Test8TestBodyEv
FN:34,_ZN33dilatacionTest_cierreConCruz_TestD0Ev
FN:64,_ZN39dilatacionTest_ejemploEnunciadoTPE_TestD0Ev
FN:64,_ZN39dilatacionTest_ejemploEnunciadoTPE_TestD2Ev
FN:64,_ZN39dilatacionTest_ejemploEnunciadoTPE_Test8TestBodyEv
FN:64,_ZN39dilatacionTest_ejemploEnunciadoTPE_TestC2Ev
FN:100,_ZN40erosionTest_tapandooHuecosDeUnPixel_TestC2Ev
FN:100,_ZN40erosionTest_tapandooHuecosDeUnPixel_TestD0Ev
FN:100,_ZN40erosionTest_tapandooHuecosDeUnPixel_Test8TestBodyEv
FN:100,_ZN40erosionTest_tapandooHuecosDeUnPixel_TestD2Ev
FN:130,_ZN30erosionTest_cierreConCruz_Test8TestBodyEv
FN:130,_ZN30erosionTest_cierreConCruz_TestD0Ev
FN:130,_ZN30erosionTest_cierreConCruz_TestC2Ev
FN:130,_ZN30erosionTest_cierreConCruz_TestD2Ev
FN:160,_ZN36erosionTest_ejemploEnunciadoTPE_TestD0Ev
FN:160,_ZN36erosionTest_ejemploEnunciadoTPE_Test8TestBodyEv
FN:160,_ZN36erosionTest_ejemploEnunciadoTPE_TestC2Ev
FN:160,_ZN36erosionTest_ejemploEnunciadoTPE_TestD2Ev
FN:190,_ZN33borrarImagenTest_imagenVacia_TestD0Ev
FN:190,_ZN33borrarImagenTest_imagenVacia_Test8TestBodyEv
FN:190,_ZN33borrarImagenTest_imagenVacia_TestC2Ev
FN:190,_ZN33borrarImagenTest_imagenVacia_TestD2Ev
FN:197,_ZN35borrarImagenTest_imagenBorrada_TestD2Ev
FN:197,_ZN35borrarImagenTest_imagenBorrada_TestD0Ev
FN:197,_ZN35borrarImagenTest_imagenBorrada_TestC2Ev
FN:197,_ZN35borrarImagenTest_imagenBorrada_Test8TestBodyEv
FN:208,_ZN41borrarImagenTest_ejemploEnunciadoTPE_TestD2Ev
FN:208,_ZN41borrarImagenTest_ejemploEnunciadoTPE_Test8TestBodyEv
FN:208,_ZN41borrarImagenTest_ejemploEnunciadoTPE_TestD0Ev
FN:208,_ZN41borrarImagenTest_ejemploEnunciadoTPE_TestC2Ev
FN:231,_ZN63pixelesActivadosDelElemEstrucCentradoTest_cuadradoCentrado_TestC2Ev
FN:231,_ZN63pixelesActivadosDelElemEstrucCentradoTest_cuadradoCentrado_TestD2Ev
FN:231,_ZN63pixelesActivadosDelElemEstrucCentradoTest_cuadradoCentrado_TestD0Ev
FN:231,_ZN63pixelesActivadosDelElemEstrucCentradoTest_cuadradoCentrado_Test8TestBodyEv
FN:248,_ZN64pixelesActivadosDelElemEstrucCentradoTest_cuadradoBordeando_TestD0Ev
FN:248,_ZN64pixelesActivadosDelElemEstrucCentradoTest_cuadradoBordeando_TestD2Ev
FN:248,_ZN64pixelesActivadosDelElemEstrucCentradoTest_cuadradoBordeando_TestC2Ev
FN:248,_ZN64pixelesActivadosDelElemEstrucCentradoTest_cuadradoBordeando_Test8TestBodyEv
FN:264,_ZN59pixelesActivadosDelElemEstrucCentradoTest_cruzCentrada_Test8TestBodyEv
FN:264,_ZN59pixelesActivadosDelElemEstrucCentradoTest_cruzCentrada_TestD2Ev
FN:264,_ZN59pixelesActivadosDelElemEstrucCentradoTest_cruzCentrada_TestD0Ev
FN:264,_ZN59pixelesActivadosDelElemEstrucCentradoTest_cruzCentrada_TestC2Ev
FN:281,_ZN60pixelesActivadosDelElemEstrucCentradoTest_equisCentrada_TestD0Ev
FN:281,_ZN60pixelesActivadosDelElemEstrucCentradoTest_equisCentrada_TestD2Ev
FN:281,_ZN60pixelesActivadosDelElemEstrucCentradoTest_equisCentrada_TestC2Ev
FN:281,_ZN60pixelesActivadosDelElemEstrucCentradoTest_equisCentrada_Test8TestBodyEv
FN:296,_GLOBAL__sub_I__ZN43dilatacionTest_tapandooHuecosDeUnPixel_Test10test_info_E
FN:296,_Z41__static_initialization_and_destruction_0ii
FNDA:2,_ZN43dilatacionTest_tapandooHuecosDeUnPixel_TestD0Ev
FNDA:2,_ZN43dilatacionTest_tapandooHuecosDeUnPixel_TestD2Ev
FNDA:2,_ZN43dilatacionTest_tapandooHuecosDeUnPixel_Test8TestBodyEv
FNDA:2,_ZN43dilatacionTest_tapandooHuecosDeUnPixel_TestC2Ev
FNDA:2,_ZN33dilatacionTest_cierreConCruz_TestD0Ev
FNDA:2,_ZN33dilatacionTest_cierreConCruz_TestD2Ev
FNDA:2,_ZN33dilatacionTest_cierreConCruz_Test8TestBodyEv
FNDA:2,_ZN33dilatacionTest_cierreConCruz_TestC2Ev
FNDA:2,_ZN39dilatacionTest_ejemploEnunciadoTPE_TestD0Ev
FNDA:2,_ZN39dilatacionTest_ejemploEnunciadoTPE_TestD2Ev
FNDA:2,_ZN39dilatacionTest_ejemploEnunciadoTPE_Test8TestBodyEv
FNDA:2,_ZN39dilatacionTest_ejemploEnunciadoTPE_TestC2Ev
FNDA:2,_ZN40erosionTest_tapandooHuecosDeUnPixel_TestD0Ev
FNDA:2,_ZN40erosionTest_tapandooHuecosDeUnPixel_TestD2Ev
FNDA:2,_ZN40erosionTest_tapandooHuecosDeUnPixel_Test8TestBodyEv
FNDA:2,_ZN40erosionTest_tapandooHuecosDeUnPixel_TestC2Ev
FNDA:2,_ZN30erosionTest_cierreConCruz_TestD0Ev
FNDA:2,_ZN30erosionTest_cierreConCruz_TestD2Ev
FNDA:2,_ZN30erosionTest_cierreConCruz_Test8TestBodyEv
FNDA:2,_ZN30erosionTest_cierreConCruz_TestC2Ev
FNDA:2,_ZN36erosionTest_ejemploEnunciadoTPE_TestD0Ev
FNDA:2,_ZN36erosionTest_ejemploEnunciadoTPE_TestD2Ev
FNDA:2,_ZN36erosionTest_ejemploEnunciadoTPE_Test8TestBodyEv
FNDA:2,_ZN36erosionTest_ejemploEnunciadoTPE_TestC2Ev
FNDA:2,_ZN33borrarImagenTest_imagenVacia_TestD0Ev
FNDA:2,_ZN33borrarImagenTest_imagenVacia_TestD2Ev
FNDA:2,_ZN33borrarImagenTest_imagenVacia_Test8TestBodyEv
FNDA:2,_ZN33borrarImagenTest_imagenVacia_TestC2Ev
FNDA:2,_ZN35borrarImagenTest_imagenBorrada_TestD0Ev
FNDA:2,_ZN35borrarImagenTest_imagenBorrada_TestD2Ev
FNDA:2,_ZN35borrarImagenTest_imagenBorrada_Test8TestBodyEv
FNDA:2,_ZN35borrarImagenTest_imagenBorrada_TestC2Ev
FNDA:2,_ZN41borrarImagenTest_ejemploEnunciadoTPE_TestD0Ev
FNDA:2,_ZN41borrarImagenTest_ejemploEnunciadoTPE_TestD2Ev
FNDA:2,_ZN41borrarImagenTest_ejemploEnunciadoTPE_Test8TestBodyEv
FNDA:2,_ZN41borrarImagenTest_ejemploEnunciadoTPE_TestC2Ev
FNDA:2,_ZN63pixelesActivadosDelElemEstrucCentradoTest_cuadradoCentrado_TestD0Ev
FNDA:2,_ZN63pixelesActivadosDelElemEstrucCentradoTest_cuadradoCentrado_TestD2Ev
FNDA:2,_ZN63pixelesActivadosDelElemEstrucCentradoTest_cuadradoCentrado_Test8TestBodyEv
FNDA:2,_ZN63pixelesActivadosDelElemEstrucCentradoTest_cuadradoCentrado_TestC2Ev
FNDA:2,_ZN64pixelesActivadosDelElemEstrucCentradoTest_cuadradoBordeando_TestD0Ev
FNDA:2,_ZN64pixelesActivadosDelElemEstrucCentradoTest_cuadradoBordeando_TestD2Ev
FNDA:2,_ZN64pixelesActivadosDelElemEstrucCentradoTest_cuadradoBordeando_Test8TestBodyEv
FNDA:2,_ZN64pixelesActivadosDelElemEstrucCentradoTest_cuadradoBordeando_TestC2Ev
FNDA:2,_ZN59pixelesActivadosDelElemEstrucCentradoTest_cruzCentrada_TestD0Ev
FNDA:2,_ZN59pixelesActivadosDelElemEstrucCentradoTest_cruzCentrada_TestD2Ev
FNDA:2,_ZN59pixelesActivadosDelElemEstrucCentradoTest_cruzCentrada_Test8TestBodyEv
FNDA:2,_ZN59pixelesActivadosDelElemEstrucCentradoTest_cruzCentrada_TestC2Ev
FNDA:2,_ZN60pixelesActivadosDelElemEstrucCentradoTest_equisCentrada_TestD0Ev
FNDA:2,_ZN60pixelesActivadosDelElemEstrucCentradoTest_equisCentrada_TestD2Ev
FNDA:2,_ZN60pixelesActivadosDelElemEstrucCentradoTest_equisCentrada_Test8TestBodyEv
FNDA:2,_ZN60pixelesActivadosDelElemEstrucCentradoTest_equisCentrada_TestC2Ev
FNDA:5,_GLOBAL__sub_I__ZN43dilatacionTest_tapandooHuecosDeUnPixel_Test10test_info_E
FNDA:5,_Z41__static_initialization_and_destruction_0ii
FNF:54
FNH:54
DA:4,13
DA:13,4
DA:18,4
DA:27,4
DA:29,2
DA:31,2
DA:32,2
DA:34,13
DA:43,4
DA:48,4
DA:57,4
DA:59,2
DA:61,2
DA:62,2
DA:64,13
DA:76,4
DA:81,4
DA:93,4
DA:95,2
DA:97,2
DA:98,2
DA:100,13
DA:109,4
DA:114,4
DA:123,4
DA:125,2
DA:127,2
DA:128,2
DA:130,13
DA:139,4
DA:144,4
DA:153,4
DA:155,2
DA:157,2
DA:158,2
DA:160,13
DA:169,4
DA:174,4
DA:183,4
DA:185,2
DA:187,2
DA:188,2
DA:190,13
DA:191,4
DA:192,4
DA:193,2
DA:194,2
DA:195,2
DA:197,13
DA:200,4
DA:203,4
DA:204,2
DA:205,2
DA:206,2
DA:208,13
DA:217,4
DA:226,4
DA:227,2
DA:228,2
DA:229,2
DA:231,13
DA:237,4
DA:240,4
DA:241,4
DA:244,4
DA:245,2
DA:246,2
DA:248,13
DA:254,4
DA:257,4
DA:258,4
DA:260,4
DA:261,2
DA:262,2
DA:264,13
DA:270,4
DA:273,4
DA:274,4
DA:277,4
DA:278,2
DA:279,2
DA:281,13
DA:287,4
DA:290,4
DA:291,4
DA:294,4
DA:295,2
DA:296,17
LF:88
LH:88
end_of_record
SF:/home/fyulita/Desktop/tpi/algo1-TPI/lib/googletest-master/googletest/include/gtest/gtest-message.h
FN:91,_ZN7testing7MessageD2Ev
FNDA:0,_ZN7testing7MessageD2Ev
FNF:1
FNH:0
DA:91,0
LF:1
LH:0
end_of_record
SF:/home/fyulita/Desktop/tpi/algo1-TPI/lib/googletest-master/googletest/include/gtest/gtest-printers.h
FN:260,_ZN16testing_internal26DefaultPrintNonContainerToIiEEvRKT_PSo
FN:313,_ZN7testing8internal19FormatForComparisonISt6vectorIS2_IiSaIiEESaIS4_EES6_E6FormatB5cxx11ERKS6_
FN:377,_ZN7testing8internal33FormatForComparisonFailureMessageISt6vectorIS2_IiSaIiEESaIS4_EES6_EENSt7__cxx1112basic_stringIcSt11char_traitsIcESaIcEEERKT_RKT0_
FN:406,_ZN7testing8internal14DefaultPrintToISt6vectorIiSaIiEEEEvNS0_15WrapPrinterTypeILNS0_18DefaultPrinterTypeE0EEERKT_PSo
FN:406,_ZN7testing8internal14DefaultPrintToISt6vectorIS2_IiSaIiEESaIS4_EEEEvNS0_15WrapPrinterTypeILNS0_18DefaultPrinterTypeE0EEERKT_PSo
FN:466,_ZN7testing8internal14DefaultPrintToIiEEvNS0_15WrapPrinterTypeILNS0_18DefaultPrinterTypeE3EEERKT_PSo
FN:483,_ZN7testing8internal7PrintToISt6vectorIS2_IiSaIiEESaIS4_EEEEvRKT_PSo
FN:483,_ZN7testing8internal7PrintToIiEEvRKT_PSo
FN:483,_ZN7testing8internal7PrintToISt6vectorIiSaIiEEEEvRKT_PSo
FN:670,_ZN7testing8internal16UniversalPrinterISt6vectorIS2_IiSaIiEESaIS4_EEE5PrintERKS6_PSo
FN:670,_ZN7testing8internal16UniversalPrinterISt6vectorIiSaIiEEE5PrintERKS4_PSo
FN:670,_ZN7testing8internal16UniversalPrinterIiE5PrintERKiPSo
FN:796,_ZN7testing8internal21UniversalTersePrinterISt6vectorIS2_IiSaIiEESaIS4_EEE5PrintERKS6_PSo
FN:865,_ZN7testing8internal14UniversalPrintISt6vectorIS2_IiSaIiEESaIS4_EEEEvRKT_PSo
FN:865,_ZN7testing8internal14UniversalPrintISt6vectorIiSaIiEEEEvRKT_PSo
FN:865,_ZN7testing8internal14UniversalPrintIiEEvRKT_PSo
FN:915,_ZN7testing13PrintToStringISt6vectorIS1_IiSaIiEESaIS3_EEEENSt7__cxx1112basic_stringIcSt11char_traitsIcESaIcEEERKT_
FNDA:0,_ZN16testing_internal26DefaultPrintNonContainerToIiEEvRKT_PSo
FNDA:0,_ZN7testing8internal19FormatForComparisonISt6vectorIS2_IiSaIiEESaIS4_EES6_E6FormatB5cxx11ERKS6_
FNDA:0,_ZN7testing8internal33FormatForComparisonFailureMessageISt6vectorIS2_IiSaIiEESaIS4_EES6_EENSt7__cxx1112basic_stringIcSt11char_traitsIcESaIcEEERKT_RKT0_
FNDA:0,_ZN7testing8internal14DefaultPrintToISt6vectorIiSaIiEEEEvNS0_15WrapPrinterTypeILNS0_18DefaultPrinterTypeE0EEERKT_PSo
FNDA:0,_ZN7testing8internal14DefaultPrintToISt6vectorIS2_IiSaIiEESaIS4_EEEEvNS0_15WrapPrinterTypeILNS0_18DefaultPrinterTypeE0EEERKT_PSo
FNDA:0,_ZN7testing8internal14DefaultPrintToIiEEvNS0_15WrapPrinterTypeILNS0_18DefaultPrinterTypeE3EEERKT_PSo
FNDA:0,_ZN7testing8internal7PrintToIiEEvRKT_PSo
FNDA:0,_ZN7testing8internal7PrintToISt6vectorIiSaIiEEEEvRKT_PSo
FNDA:0,_ZN7testing8internal7PrintToISt6vectorIS2_IiSaIiEESaIS4_EEEEvRKT_PSo
FNDA:0,_ZN7testing8internal16UniversalPrinterIiE5PrintERKiPSo
FNDA:0,_ZN7testing8internal16UniversalPrinterISt6vectorIiSaIiEEE5PrintERKS4_PSo
FNDA:0,_ZN7testing8internal16UniversalPrinterISt6vectorIS2_IiSaIiEESaIS4_EEE5PrintERKS6_PSo
FNDA:0,_ZN7testing8internal21UniversalTersePrinterISt6vectorIS2_IiSaIiEESaIS4_EEE5PrintERKS6_PSo
FNDA:0,_ZN7testing8internal14UniversalPrintIiEEvRKT_PSo
FNDA:0,_ZN7testing8internal14UniversalPrintISt6vectorIiSaIiEEEEvRKT_PSo
FNDA:0,_ZN7testing8internal14UniversalPrintISt6vectorIS2_IiSaIiEESaIS4_EEEEvRKT_PSo
FNDA:0,_ZN7testing13PrintToStringISt6vectorIS1_IiSaIiEESaIS3_EEEENSt7__cxx1112basic_stringIcSt11char_traitsIcESaIcEEERKT_
FNF:17
FNH:0
DA:260,0
DA:287,0
DA:288,0
DA:313,0
DA:314,0
DA:377,0
DA:379,0
DA:406,0
DA:408,0
DA:409,0
DA:410,0
DA:411,0
DA:412,0
DA:413,0
DA:414,0
DA:415,0
DA:416,0
DA:417,0
DA:420,0
DA:423,0
DA:426,0
DA:427,0
DA:429,0
DA:430,0
DA:466,0
DA:468,0
DA:469,0
DA:483,0
DA:503,0
DA:514,0
DA:670,0
DA:679,0
DA:680,0
DA:796,0
DA:797,0
DA:798,0
DA:865,0
DA:869,0
DA:870,0
DA:915,0
DA:916,0
DA:917,0
DA:918,0
LF:43
LH:0
end_of_record
SF:/home/fyulita/Desktop/tpi/algo1-TPI/lib/googletest-master/googletest/include/gtest/gtest.h
FN:275,_ZN7testing15AssertionResultD2Ev
FN:312,_ZNK7testing15AssertionResultcvbEv
FN:321,_ZNK7testing15AssertionResult7messageEv
FN:325,_ZNK7testing15AssertionResult15failure_messageEv
FN:417,_ZN7testing4Test14SetUpTestSuiteEv
FN:427,_ZN7testing4Test17TearDownTestSuiteEv
FN:431,_ZN7testing4Test16TearDownTestCaseEv
FN:432,_ZN7testing4Test13SetUpTestCaseEv
FN:513,_ZN7testing4Test5SetupEv
FN:1504,_ZN7testing8internal18CmpHelperEQFailureISt6vectorIS2_IiSaIiEESaIS4_EES6_EENS_15AssertionResultEPKcS9_RKT_RKT0_
FN:1523,_ZN7testing8internal11CmpHelperEQISt6vectorIS2_IiSaIiEESaIS4_EES6_EENS_15AssertionResultEPKcS9_RKT_RKT0_
FN:1551,_ZN7testing8internal8EqHelper7CompareISt6vectorIS3_IiSaIiEESaIS5_EES7_LPv0EEENS_15AssertionResultEPKcSB_RKT_RKT0_
FNDA:0,_ZN7testing15AssertionResultD2Ev
FNDA:0,_ZNK7testing15AssertionResultcvbEv
FNDA:0,_ZNK7testing15AssertionResult7messageEv
FNDA:0,_ZNK7testing15AssertionResult15failure_messageEv
FNDA:0,_ZN7testing4Test14SetUpTestSuiteEv
FNDA:0,_ZN7testing4Test17TearDownTestSuiteEv
FNDA:0,_ZN7testing4Test16TearDownTestCaseEv
FNDA:0,_ZN7testing4Test13SetUpTestCaseEv
FNDA:0,_ZN7testing4Test5SetupEv
FNDA:0,_ZN7testing8internal18CmpHelperEQFailureISt6vectorIS2_IiSaIiEESaIS4_EES6_EENS_15AssertionResultEPKcS9_RKT_RKT0_
FNDA:0,_ZN7testing8internal11CmpHelperEQISt6vectorIS2_IiSaIiEESaIS4_EES6_EENS_15AssertionResultEPKcS9_RKT_RKT0_
FNDA:0,_ZN7testing8internal8EqHelper7CompareISt6vectorIS3_IiSaIiEESaIS5_EES7_LPv0EEENS_15AssertionResultEPKcSB_RKT_RKT0_
FNF:12
FNH:0
DA:275,0
DA:312,0
DA:321,0
DA:322,0
DA:325,0
DA:417,0
DA:427,0
DA:431,0
DA:432,0
DA:513,0
DA:1504,0
DA:1511,0
DA:1523,0
DA:1527,0
DA:1528,0
DA:1531,0
DA:1551,0
DA:1554,0
LF:18
LH:0
end_of_record
SF:/home/fyulita/Desktop/tpi/algo1-TPI/lib/googletest-master/googletest/include/gtest/internal/gtest-internal.h
FN:442,_ZN7testing8internal15TestFactoryBaseD2Ev
FN:442,_ZN7testing8internal15TestFactoryBaseD0Ev
FN:449,_ZN7testing8internal15TestFactoryBaseC2Ev
FN:458,_ZN7testing8internal15TestFactoryImplI35borrarImagenTest_imagenBorrada_TestED0Ev
FN:458,_ZN7testing8internal15TestFactoryImplI60pixelesActivadosDelElemEstrucCentradoTest_equisCentrada_TestED2Ev
FN:458,_ZN7testing8internal15TestFactoryImplI33borrarImagenTest_imagenVacia_TestED2Ev
FN:458,_ZN7testing8internal15TestFactoryImplI40erosionTest_tapandooHuecosDeUnPixel_TestED0Ev
FN:458,_ZN7testing8internal15TestFactoryImplI64pixelesActivadosDelElemEstrucCentradoTest_cuadradoBordeando_TestED0Ev
FN:458,_ZN7testing8internal15TestFactoryImplI33borrarImagenTest_imagenVacia_TestED0Ev
FN:458,_ZN7testing8internal15TestFactoryImplI36erosionTest_ejemploEnunciadoTPE_TestED2Ev
FN:458,_ZN7testing8internal15TestFactoryImplI41borrarImagenTest_ejemploEnunciadoTPE_TestED0Ev
FN:458,_ZN7testing8internal15TestFactoryImplI39dilatacionTest_ejemploEnunciadoTPE_TestED0Ev
FN:458,_ZN7testing8internal15TestFactoryImplI40erosionTest_tapandooHuecosDeUnPixel_TestEC2Ev
FN:458,_ZN7testing8internal15TestFactoryImplI43dilatacionTest_tapandooHuecosDeUnPixel_TestED2Ev
FN:458,_ZN7testing8internal15TestFactoryImplI59pixelesActivadosDelElemEstrucCentradoTest_cruzCentrada_TestEC2Ev
FN:458,_ZN7testing8internal15TestFactoryImplI39dilatacionTest_ejemploEnunciadoTPE_TestEC2Ev
FN:458,_ZN7testing8internal15TestFactoryImplI60pixelesActivadosDelElemEstrucCentradoTest_equisCentrada_TestEC2Ev
FN:458,_ZN7testing8internal15TestFactoryImplI64pixelesActivadosDelElemEstrucCentradoTest_cuadradoBordeando_TestED2Ev
FN:458,_ZN7testing8internal15TestFactoryImplI35borrarImagenTest_imagenBorrada_TestEC2Ev
FN:458,_ZN7testing8internal15TestFactoryImplI30erosionTest_cierreConCruz_TestED0Ev
FN:458,_ZN7testing8internal15TestFactoryImplI33dilatacionTest_cierreConCruz_TestED2Ev
FN:458,_ZN7testing8internal15TestFactoryImplI43dilatacionTest_tapandooHuecosDeUnPixel_TestED0Ev
FN:458,_ZN7testing8internal15TestFactoryImplI30erosionTest_cierreConCruz_TestEC2Ev
FN:458,_ZN7testing8internal15TestFactoryImplI40erosionTest_tapandooHuecosDeUnPixel_TestED2Ev
FN:458,_ZN7testing8internal15TestFactoryImplI59pixelesActivadosDelElemEstrucCentradoTest_cruzCentrada_TestED0Ev
FN:458,_ZN7testing8internal15TestFactoryImplI63pixelesActivadosDelElemEstrucCentradoTest_cuadradoCentrado_TestED0Ev
FN:458,_ZN7testing8internal15TestFactoryImplI64pixelesActivadosDelElemEstrucCentradoTest_cuadradoBordeando_TestEC2Ev
FN:458,_ZN7testing8internal15TestFactoryImplI36erosionTest_ejemploEnunciadoTPE_TestED0Ev
FN:458,_ZN7testing8internal15TestFactoryImplI43dilatacionTest_tapandooHuecosDeUnPixel_TestEC2Ev
FN:458,_ZN7testing8internal15TestFactoryImplI41borrarImagenTest_ejemploEnunciadoTPE_TestEC2Ev
FN:458,_ZN7testing8internal15TestFactoryImplI36erosionTest_ejemploEnunciadoTPE_TestEC2Ev
FN:458,_ZN7testing8internal15TestFactoryImplI33dilatacionTest_cierreConCruz_TestED0Ev
FN:458,_ZN7testing8internal15TestFactoryImplI30erosionTest_cierreConCruz_TestED2Ev
FN:458,_ZN7testing8internal15TestFactoryImplI41borrarImagenTest_ejemploEnunciadoTPE_TestED2Ev
FN:458,_ZN7testing8internal15TestFactoryImplI60pixelesActivadosDelElemEstrucCentradoTest_equisCentrada_TestED0Ev
FN:458,_ZN7testing8internal15TestFactoryImplI35borrarImagenTest_imagenBorrada_TestED2Ev
FN:458,_ZN7testing8internal15TestFactoryImplI63pixelesActivadosDelElemEstrucCentradoTest_cuadradoCentrado_TestED2Ev
FN:458,_ZN7testing8internal15TestFactoryImplI33dilatacionTest_cierreConCruz_TestEC2Ev
FN:458,_ZN7testing8internal15TestFactoryImplI63pixelesActivadosDelElemEstrucCentradoTest_cuadradoCentrado_TestEC2Ev
FN:458,_ZN7testing8internal15TestFactoryImplI39dilatacionTest_ejemploEnunciadoTPE_TestED2Ev
FN:458,_ZN7testing8internal15TestFactoryImplI33borrarImagenTest_imagenVacia_TestEC2Ev
FN:458,_ZN7testing8internal15TestFactoryImplI59pixelesActivadosDelElemEstrucCentradoTest_cruzCentrada_TestED2Ev
FN:460,_ZN7testing8internal15TestFactoryImplI39dilatacionTest_ejemploEnunciadoTPE_TestE10CreateTestEv
FN:460,_ZN7testing8internal15TestFactoryImplI63pixelesActivadosDelElemEstrucCentradoTest_cuadradoCentrado_TestE10CreateTestEv
FN:460,_ZN7testing8internal15TestFactoryImplI30erosionTest_cierreConCruz_TestE10CreateTestEv
FN:460,_ZN7testing8internal15TestFactoryImplI33dilatacionTest_cierreConCruz_TestE10CreateTestEv
FN:460,_ZN7testing8internal15TestFactoryImplI41borrarImagenTest_ejemploEnunciadoTPE_TestE10CreateTestEv
FN:460,_ZN7testing8internal15TestFactoryImplI59pixelesActivadosDelElemEstrucCentradoTest_cruzCentrada_TestE10CreateTestEv
FN:460,_ZN7testing8internal15TestFactoryImplI60pixelesActivadosDelElemEstrucCentradoTest_equisCentrada_TestE10CreateTestEv
FN:460,_ZN7testing8internal15TestFactoryImplI36erosionTest_ejemploEnunciadoTPE_TestE10CreateTestEv
FN:460,_ZN7testing8internal15TestFactoryImplI43dilatacionTest_tapandooHuecosDeUnPixel_TestE10CreateTestEv
FN:460,_ZN7testing8internal15TestFactoryImplI40erosionTest_tapandooHuecosDeUnPixel_TestE10CreateTestEv
FN:460,_ZN7testing8internal15TestFactoryImplI64pixelesActivadosDelElemEstrucCentradoTest_cuadradoBordeando_TestE10CreateTestEv
FN:460,_ZN7testing8internal15TestFactoryImplI33borrarImagenTest_imagenVacia_TestE10CreateTestEv
FN:460,_ZN7testing8internal15TestFactoryImplI35borrarImagenTest_imagenBorrada_TestE10CreateTestEv
FN:480,_ZN7testing8internal12CodeLocationD2Ev
FN:481,_ZN7testing8internal12CodeLocationC2ERKNSt7__cxx1112basic_stringIcSt11char_traitsIcESaIcEEEi
FN:494,_ZN7testing8internal19GetNotDefaultOrNullEPFvvES2_
FN:509,_ZN7testing8internal16SuiteApiResolverINS_4TestEE19GetSetUpCaseOrSuiteEPKci
FN:524,_ZN7testing8internal16SuiteApiResolverINS_4TestEE22GetTearDownCaseOrSuiteEPKci
FNDA:0,_ZN7testing8internal15TestFactoryBaseD0Ev
FNDA:0,_ZN7testing8internal15TestFactoryBaseD2Ev
FNDA:0,_ZN7testing8internal15TestFactoryBaseC2Ev
FNDA:5,_ZN7testing8internal15TestFactoryImplI43dilatacionTest_tapandooHuecosDeUnPixel_TestED0Ev
FNDA:5,_ZN7testing8internal15TestFactoryImplI43dilatacionTest_tapandooHuecosDeUnPixel_TestED2Ev
FNDA:5,_ZN7testing8internal15TestFactoryImplI33dilatacionTest_cierreConCruz_TestED0Ev
FNDA:5,_ZN7testing8internal15TestFactoryImplI33dilatacionTest_cierreConCruz_TestED2Ev
FNDA:5,_ZN7testing8internal15TestFactoryImplI39dilatacionTest_ejemploEnunciadoTPE_TestED0Ev
FNDA:5,_ZN7testing8internal15TestFactoryImplI39dilatacionTest_ejemploEnunciadoTPE_TestED2Ev
FNDA:5,_ZN7testing8internal15TestFactoryImplI40erosionTest_tapandooHuecosDeUnPixel_TestED0Ev
FNDA:5,_ZN7testing8internal15TestFactoryImplI40erosionTest_tapandooHuecosDeUnPixel_TestED2Ev
FNDA:5,_ZN7testing8internal15TestFactoryImplI30erosionTest_cierreConCruz_TestED0Ev
FNDA:5,_ZN7testing8internal15TestFactoryImplI30erosionTest_cierreConCruz_TestED2Ev
FNDA:5,_ZN7testing8internal15TestFactoryImplI36erosionTest_ejemploEnunciadoTPE_TestED0Ev
FNDA:5,_ZN7testing8internal15TestFactoryImplI36erosionTest_ejemploEnunciadoTPE_TestED2Ev
FNDA:5,_ZN7testing8internal15TestFactoryImplI33borrarImagenTest_imagenVacia_TestED0Ev
FNDA:5,_ZN7testing8internal15TestFactoryImplI33borrarImagenTest_imagenVacia_TestED2Ev
FNDA:5,_ZN7testing8internal15TestFactoryImplI35borrarImagenTest_imagenBorrada_TestED0Ev
FNDA:5,_ZN7testing8internal15TestFactoryImplI35borrarImagenTest_imagenBorrada_TestED2Ev
FNDA:5,_ZN7testing8internal15TestFactoryImplI41borrarImagenTest_ejemploEnunciadoTPE_TestED0Ev
FNDA:5,_ZN7testing8internal15TestFactoryImplI41borrarImagenTest_ejemploEnunciadoTPE_TestED2Ev
FNDA:5,_ZN7testing8internal15TestFactoryImplI63pixelesActivadosDelElemEstrucCentradoTest_cuadradoCentrado_TestED0Ev
FNDA:5,_ZN7testing8internal15TestFactoryImplI63pixelesActivadosDelElemEstrucCentradoTest_cuadradoCentrado_TestED2Ev
FNDA:5,_ZN7testing8internal15TestFactoryImplI64pixelesActivadosDelElemEstrucCentradoTest_cuadradoBordeando_TestED0Ev
FNDA:5,_ZN7testing8internal15TestFactoryImplI64pixelesActivadosDelElemEstrucCentradoTest_cuadradoBordeando_TestED2Ev
FNDA:5,_ZN7testing8internal15TestFactoryImplI59pixelesActivadosDelElemEstrucCentradoTest_cruzCentrada_TestED0Ev
FNDA:5,_ZN7testing8internal15TestFactoryImplI59pixelesActivadosDelElemEstrucCentradoTest_cruzCentrada_TestED2Ev
FNDA:5,_ZN7testing8internal15TestFactoryImplI60pixelesActivadosDelElemEstrucCentradoTest_equisCentrada_TestED0Ev
FNDA:5,_ZN7testing8internal15TestFactoryImplI60pixelesActivadosDelElemEstrucCentradoTest_equisCentrada_TestED2Ev
FNDA:5,_ZN7testing8internal15TestFactoryImplI60pixelesActivadosDelElemEstrucCentradoTest_equisCentrada_TestEC2Ev
FNDA:5,_ZN7testing8internal15TestFactoryImplI59pixelesActivadosDelElemEstrucCentradoTest_cruzCentrada_TestEC2Ev
FNDA:5,_ZN7testing8internal15TestFactoryImplI64pixelesActivadosDelElemEstrucCentradoTest_cuadradoBordeando_TestEC2Ev
FNDA:5,_ZN7testing8internal15TestFactoryImplI63pixelesActivadosDelElemEstrucCentradoTest_cuadradoCentrado_TestEC2Ev
FNDA:5,_ZN7testing8internal15TestFactoryImplI41borrarImagenTest_ejemploEnunciadoTPE_TestEC2Ev
FNDA:5,_ZN7testing8internal15TestFactoryImplI35borrarImagenTest_imagenBorrada_TestEC2Ev
FNDA:5,_ZN7testing8internal15TestFactoryImplI33borrarImagenTest_imagenVacia_TestEC2Ev
FNDA:5,_ZN7testing8internal15TestFactoryImplI36erosionTest_ejemploEnunciadoTPE_TestEC2Ev
FNDA:5,_ZN7testing8internal15TestFactoryImplI30erosionTest_cierreConCruz_TestEC2Ev
FNDA:5,_ZN7testing8internal15TestFactoryImplI40erosionTest_tapandooHuecosDeUnPixel_TestEC2Ev
FNDA:5,_ZN7testing8internal15TestFactoryImplI39dilatacionTest_ejemploEnunciadoTPE_TestEC2Ev
FNDA:5,_ZN7testing8internal15TestFactoryImplI33dilatacionTest_cierreConCruz_TestEC2Ev
FNDA:5,_ZN7testing8internal15TestFactoryImplI43dilatacionTest_tapandooHuecosDeUnPixel_TestEC2Ev
FNDA:2,_ZN7testing8internal15TestFactoryImplI43dilatacionTest_tapandooHuecosDeUnPixel_TestE10CreateTestEv
FNDA:2,_ZN7testing8internal15TestFactoryImplI33dilatacionTest_cierreConCruz_TestE10CreateTestEv
FNDA:2,_ZN7testing8internal15TestFactoryImplI39dilatacionTest_ejemploEnunciadoTPE_TestE10CreateTestEv
FNDA:2,_ZN7testing8internal15TestFactoryImplI40erosionTest_tapandooHuecosDeUnPixel_TestE10CreateTestEv
FNDA:2,_ZN7testing8internal15TestFactoryImplI30erosionTest_cierreConCruz_TestE10CreateTestEv
FNDA:2,_ZN7testing8internal15TestFactoryImplI36erosionTest_ejemploEnunciadoTPE_TestE10CreateTestEv
FNDA:2,_ZN7testing8internal15TestFactoryImplI33borrarImagenTest_imagenVacia_TestE10CreateTestEv
FNDA:2,_ZN7testing8internal15TestFactoryImplI35borrarImagenTest_imagenBorrada_TestE10CreateTestEv
FNDA:2,_ZN7testing8internal15TestFactoryImplI41borrarImagenTest_ejemploEnunciadoTPE_TestE10CreateTestEv
FNDA:2,_ZN7testing8internal15TestFactoryImplI63pixelesActivadosDelElemEstrucCentradoTest_cuadradoCentrado_TestE10CreateTestEv
FNDA:2,_ZN7testing8internal15TestFactoryImplI64pixelesActivadosDelElemEstrucCentradoTest_cuadradoBordeando_TestE10CreateTestEv
FNDA:2,_ZN7testing8internal15TestFactoryImplI59pixelesActivadosDelElemEstrucCentradoTest_cruzCentrada_TestE10CreateTestEv
FNDA:2,_ZN7testing8internal15TestFactoryImplI60pixelesActivadosDelElemEstrucCentradoTest_equisCentrada_TestE10CreateTestEv
FNDA:0,_ZN7testing8internal12CodeLocationD2Ev
FNDA:0,_ZN7testing8internal12CodeLocationC2ERKNSt7__cxx1112basic_stringIcSt11char_traitsIcESaIcEEEi
FNDA:0,_ZN7testing8internal19GetNotDefaultOrNullEPFvvES2_
FNDA:0,_ZN7testing8internal16SuiteApiResolverINS_4TestEE19GetSetUpCaseOrSuiteEPKci
FNDA:0,_ZN7testing8internal16SuiteApiResolverINS_4TestEE22GetTearDownCaseOrSuiteEPKci
FNF:60
FNH:52
DA:442,0
DA:449,0
DA:458,195
DA:460,26
DA:480,0
DA:481,0
DA:482,0
DA:494,0
DA:496,0
DA:509,0
DA:511,0
DA:513,0
DA:516,0
DA:519,0
DA:521,0
DA:524,0
DA:526,0
DA:528,0
DA:531,0
DA:534,0
DA:536,0
LF:21
LH:2
end_of_record
SF:/home/fyulita/Desktop/tpi/algo1-TPI/lib/googletest-master/googletest/include/gtest/internal/gtest-port.h
FN:942,_ZN7testing8internal8GTestLog9GetStreamEv
FNDA:0,_ZN7testing8internal8GTestLog9GetStreamEv
FNF:1
FNH:0
DA:942,0
LF:1
LH:0
end_of_record
SF:/usr/include/c++/7/bits/alloc_traits.h
FN:435,_ZNSt16allocator_traitsISaIiEE8allocateERS0_m
FN:435,_ZNSt16allocator_traitsISaISt6vectorIiSaIiEEEE8allocateERS3_m
FN:461,_ZNSt16allocator_traitsISaISt6vectorIiSaIiEEEE10deallocateERS3_PS2_m
FN:461,_ZNSt16allocator_traitsISaIiEE10deallocateERS0_Pim
FN:504,_ZNSt16allocator_traitsISaIiEE37select_on_container_copy_constructionERKS0_
FNDA:0,_ZNSt16allocator_traitsISaISt6vectorIiSaIiEEEE8allocateERS3_m
FNDA:0,_ZNSt16allocator_traitsISaIiEE8allocateERS0_m
FNDA:0,_ZNSt16allocator_traitsISaISt6vectorIiSaIiEEEE10deallocateERS3_PS2_m
FNDA:0,_ZNSt16allocator_traitsISaIiEE10deallocateERS0_Pim
FNDA:0,_ZNSt16allocator_traitsISaIiEE37select_on_container_copy_constructionERKS0_
FNF:5
FNH:0
DA:435,0
DA:436,0
DA:461,0
DA:462,0
DA:504,0
DA:505,0
LF:6
LH:0
end_of_record
SF:/usr/include/c++/7/bits/allocator.h
FN:131,_ZNSaISt6vectorIiSaIiEEEC2Ev
FN:131,_ZNSaIiEC2Ev
FN:133,_ZNSaISt6vectorIiSaIiEEEC2ERKS2_
FN:133,_ZNSaIiEC2ERKS_
FN:139,_ZNSaISt6vectorIiSaIiEEED2Ev
FN:139,_ZNSaIiED2Ev
FNDA:0,_ZNSaISt6vectorIiSaIiEEEC2Ev
FNDA:0,_ZNSaIiEC2Ev
FNDA:0,_ZNSaISt6vectorIiSaIiEEEC2ERKS2_
FNDA:0,_ZNSaIiEC2ERKS_
FNDA:0,_ZNSaISt6vectorIiSaIiEEED2Ev
FNDA:0,_ZNSaIiED2Ev
FNF:6
FNH:0
DA:131,0
DA:133,0
DA:134,0
DA:139,0
LF:4
LH:0
end_of_record
SF:/usr/include/c++/7/bits/cpp_type_traits.h
FN:408,_ZSt12__miter_baseIPKiET_S2_
FN:408,_ZSt12__miter_baseIN9__gnu_cxx17__normal_iteratorIPKiSt6vectorIiSaIiEEEEET_S8_
FNDA:0,_ZSt12__miter_baseIN9__gnu_cxx17__normal_iteratorIPKiSt6vectorIiSaIiEEEEET_S8_
FNDA:0,_ZSt12__miter_baseIPKiET_S2_
FNF:2
FNH:0
DA:408,0
DA:409,0
LF:2
LH:0
end_of_record
SF:/usr/include/c++/7/bits/ios_base.h
FN:129,_ZStorSt13_Ios_OpenmodeS_
FNDA:0,_ZStorSt13_Ios_OpenmodeS_
FNF:1
FNH:0
DA:129,0
DA:130,0
LF:2
LH:0
end_of_record
SF:/usr/include/c++/7/bits/move.h
FN:47,_ZSt11__addressofISt6vectorIiSaIiEEEPT_RS3_
FN:73,_ZSt7forwardIRKSt6vectorIiSaIiEEEOT_RNSt16remove_referenceIS5_E4typeE
FNDA:0,_ZSt11__addressofISt6vectorIiSaIiEEEPT_RS3_
FNDA:0,_ZSt7forwardIRKSt6vectorIiSaIiEEEOT_RNSt16remove_referenceIS5_E4typeE
FNF:2
FNH:0
DA:47,0
DA:48,0
DA:73,0
DA:74,0
LF:4
LH:0
end_of_record
SF:/usr/include/c++/7/bits/stl_algobase.h
FN:277,_ZSt12__niter_baseIPKiET_S2_
FN:277,_ZSt12__niter_baseIPiET_S1_
FN:357,_ZNSt11__copy_moveILb0ELb1ESt26random_access_iterator_tagE8__copy_mIiEEPT_PKS3_S6_S4_
FN:375,_ZSt13__copy_move_aILb0EPKiPiET1_T0_S4_S3_
FN:420,_ZSt14__copy_move_a2ILb0EPKiPiET1_T0_S4_S3_
FN:420,_ZSt14__copy_move_a2ILb0EN9__gnu_cxx17__normal_iteratorIPKiSt6vectorIiSaIiEEEEPiET1_T0_SA_S9_
FN:446,_ZSt4copyIN9__gnu_cxx17__normal_iteratorIPKiSt6vectorIiSaIiEEEEPiET0_T_SA_S9_
FN:446,_ZSt4copyIPKiPiET0_T_S4_S3_
FN:797,_ZNSt7__equalILb0EE5equalIPKSt6vectorIiSaIiEES6_EEbT_S7_T0_
FN:811,_ZNSt7__equalILb1EE5equalIiEEbPKT_S4_S4_
FN:821,_ZSt11__equal_auxIPKiS1_EbT_S2_T0_
FN:821,_ZSt11__equal_auxIPKSt6vectorIiSaIiEES4_EbT_S5_T0_
FN:1041,_ZSt5equalIN9__gnu_cxx17__normal_iteratorIPKSt6vectorIiSaIiEES2_IS4_SaIS4_EEEES9_EbT_SA_T0_
FN:1041,_ZSt5equalIN9__gnu_cxx17__normal_iteratorIPKiSt6vectorIiSaIiEEEES7_EbT_S8_T0_
FNDA:0,_ZSt12__niter_baseIPiET_S1_
FNDA:0,_ZSt12__niter_baseIPKiET_S2_
FNDA:0,_ZNSt11__copy_moveILb0ELb1ESt26random_access_iterator_tagE8__copy_mIiEEPT_PKS3_S6_S4_
FNDA:0,_ZSt13__copy_move_aILb0EPKiPiET1_T0_S4_S3_
FNDA:0,_ZSt14__copy_move_a2ILb0EN9__gnu_cxx17__normal_iteratorIPKiSt6vectorIiSaIiEEEEPiET1_T0_SA_S9_
FNDA:0,_ZSt14__copy_move_a2ILb0EPKiPiET1_T0_S4_S3_
FNDA:0,_ZSt4copyIN9__gnu_cxx17__normal_iteratorIPKiSt6vectorIiSaIiEEEEPiET0_T_SA_S9_
FNDA:0,_ZSt4copyIPKiPiET0_T_S4_S3_
FNDA:0,_ZNSt7__equalILb0EE5equalIPKSt6vectorIiSaIiEES6_EEbT_S7_T0_
FNDA:0,_ZNSt7__equalILb1EE5equalIiEEbPKT_S4_S4_
FNDA:0,_ZSt11__equal_auxIPKiS1_EbT_S2_T0_
FNDA:0,_ZSt11__equal_auxIPKSt6vectorIiSaIiEES4_EbT_S5_T0_
FNDA:0,_ZSt5equalIN9__gnu_cxx17__normal_iteratorIPKiSt6vectorIiSaIiEEEES7_EbT_S8_T0_
FNDA:0,_ZSt5equalIN9__gnu_cxx17__normal_iteratorIPKSt6vectorIiSaIiEES2_IS4_SaIS4_EEEES9_EbT_SA_T0_
FNF:14
FNH:0
DA:277,0
DA:278,0
DA:357,0
DA:366,0
DA:367,0
DA:368,0
DA:369,0
DA:375,0
DA:380,0
DA:386,0
DA:420,0
DA:422,0
DA:424,0
DA:446,0
DA:455,0
DA:456,0
DA:797,0
DA:799,0
DA:800,0
DA:801,0
DA:802,0
DA:811,0
DA:813,0
DA:814,0
DA:815,0
DA:821,0
DA:825,0
DA:831,0
DA:1041,0
DA:1051,0
DA:1053,0
LF:31
LH:0
end_of_record
SF:/usr/include/c++/7/bits/stl_construct.h
FN:74,_ZSt10_ConstructISt6vectorIiSaIiEEJRKS2_EEvPT_DpOT0_
FN:97,_ZSt8_DestroyISt6vectorIiSaIiEEEvPT_
FN:105,_ZNSt12_Destroy_auxILb0EE9__destroyIPSt6vectorIiSaIiEEEEvT_S6_
FN:117,_ZNSt12_Destroy_auxILb1EE9__destroyIPiEEvT_S3_
FN:127,_ZSt8_DestroyIPSt6vectorIiSaIiEEEvT_S4_
FN:127,_ZSt8_DestroyIPiEvT_S1_
FN:203,_ZSt8_DestroyIPSt6vectorIiSaIiEES2_EvT_S4_RSaIT0_E
FN:203,_ZSt8_DestroyIPiiEvT_S1_RSaIT0_E
FNDA:0,_ZSt10_ConstructISt6vectorIiSaIiEEJRKS2_EEvPT_DpOT0_
FNDA:0,_ZSt8_DestroyISt6vectorIiSaIiEEEvPT_
FNDA:0,_ZNSt12_Destroy_auxILb0EE9__destroyIPSt6vectorIiSaIiEEEEvT_S6_
FNDA:0,_ZNSt12_Destroy_auxILb1EE9__destroyIPiEEvT_S3_
FNDA:0,_ZSt8_DestroyIPSt6vectorIiSaIiEEEvT_S4_
FNDA:0,_ZSt8_DestroyIPiEvT_S1_
FNDA:0,_ZSt8_DestroyIPSt6vectorIiSaIiEES2_EvT_S4_RSaIT0_E
FNDA:0,_ZSt8_DestroyIPiiEvT_S1_RSaIT0_E
FNF:8
FNH:0
DA:74,0
DA:75,0
DA:97,0
DA:98,0
DA:105,0
DA:107,0
DA:108,0
DA:109,0
DA:117,0
DA:127,0
DA:137,0
DA:138,0
DA:203,0
DA:206,0
DA:207,0
LF:15
LH:0
end_of_record
SF:/usr/include/c++/7/bits/stl_iterator.h
FN:782,_ZN9__gnu_cxx17__normal_iteratorIPKSt6vectorIiSaIiEES1_IS3_SaIS3_EEEC2ERKS5_
FN:782,_ZN9__gnu_cxx17__normal_iteratorIPKiSt6vectorIiSaIiEEEC2ERKS2_
FN:795,_ZNK9__gnu_cxx17__normal_iteratorIPKSt6vectorIiSaIiEES1_IS3_SaIS3_EEEdeEv
FN:795,_ZNK9__gnu_cxx17__normal_iteratorIPKiSt6vectorIiSaIiEEEdeEv
FN:803,_ZN9__gnu_cxx17__normal_iteratorIPKSt6vectorIiSaIiEES1_IS3_SaIS3_EEEppEv
FN:803,_ZN9__gnu_cxx17__normal_iteratorIPKiSt6vectorIiSaIiEEEppEv
FN:847,_ZNK9__gnu_cxx17__normal_iteratorIPKSt6vectorIiSaIiEES1_IS3_SaIS3_EEE4baseEv
FN:847,_ZNK9__gnu_cxx17__normal_iteratorIPKiSt6vectorIiSaIiEEE4baseEv
FN:883,_ZN9__gnu_cxxneIPKiSt6vectorIiSaIiEEEEbRKNS_17__normal_iteratorIT_T0_EESB_
FN:883,_ZN9__gnu_cxxneIPKSt6vectorIiSaIiEES1_IS3_SaIS3_EEEEbRKNS_17__normal_iteratorIT_T0_EESD_
FN:986,_ZSt12__niter_baseIPKSt6vectorIiSaIiEES0_IS2_SaIS2_EEET_N9__gnu_cxx17__normal_iteratorIS7_T0_EE
FN:986,_ZSt12__niter_baseIPKiSt6vectorIiSaIiEEET_N9__gnu_cxx17__normal_iteratorIS5_T0_EE
FNDA:0,_ZN9__gnu_cxx17__normal_iteratorIPKiSt6vectorIiSaIiEEEC2ERKS2_
FNDA:0,_ZN9__gnu_cxx17__normal_iteratorIPKSt6vectorIiSaIiEES1_IS3_SaIS3_EEEC2ERKS5_
FNDA:0,_ZNK9__gnu_cxx17__normal_iteratorIPKiSt6vectorIiSaIiEEEdeEv
FNDA:0,_ZNK9__gnu_cxx17__normal_iteratorIPKSt6vectorIiSaIiEES1_IS3_SaIS3_EEEdeEv
FNDA:0,_ZN9__gnu_cxx17__normal_iteratorIPKiSt6vectorIiSaIiEEEppEv
FNDA:0,_ZN9__gnu_cxx17__normal_iteratorIPKSt6vectorIiSaIiEES1_IS3_SaIS3_EEEppEv
FNDA:0,_ZNK9__gnu_cxx17__normal_iteratorIPKiSt6vectorIiSaIiEEE4baseEv
FNDA:0,_ZNK9__gnu_cxx17__normal_iteratorIPKSt6vectorIiSaIiEES1_IS3_SaIS3_EEE4baseEv
FNDA:0,_ZN9__gnu_cxxneIPKiSt6vectorIiSaIiEEEEbRKNS_17__normal_iteratorIT_T0_EESB_
FNDA:0,_ZN9__gnu_cxxneIPKSt6vectorIiSaIiEES1_IS3_SaIS3_EEEEbRKNS_17__normal_iteratorIT_T0_EESD_
FNDA:0,_ZSt12__niter_baseIPKiSt6vectorIiSaIiEEET_N9__gnu_cxx17__normal_iteratorIS5_T0_EE
FNDA:0,_ZSt12__niter_baseIPKSt6vectorIiSaIiEES0_IS2_SaIS2_EEET_N9__gnu_cxx17__normal_iteratorIS7_T0_EE
FNF:12
FNH:0
DA:782,0
DA:783,0
DA:795,0
DA:796,0
DA:803,0
DA:805,0
DA:806,0
DA:847,0
DA:848,0
DA:883,0
DA:886,0
DA:986,0
DA:987,0
LF:13
LH:0
end_of_record
SF:/usr/include/c++/7/bits/stl_iterator_base_funcs.h
FN:98,_ZSt10__distanceIPKSt6vectorIiSaIiEEENSt15iterator_traitsIT_E15difference_typeES6_S6_St26random_access_iterator_tag
FN:98,_ZSt10__distanceIPKiENSt15iterator_traitsIT_E15difference_typeES3_S3_St26random_access_iterator_tag
FN:138,_ZSt8distanceIPKiENSt15iterator_traitsIT_E15difference_typeES3_S3_
FN:138,_ZSt8distanceIPKSt6vectorIiSaIiEEENSt15iterator_traitsIT_E15difference_typeES6_S6_
FNDA:0,_ZSt10__distanceIPKSt6vectorIiSaIiEEENSt15iterator_traitsIT_E15difference_typeES6_S6_St26random_access_iterator_tag
FNDA:0,_ZSt10__distanceIPKiENSt15iterator_traitsIT_E15difference_typeES3_S3_St26random_access_iterator_tag
FNDA:0,_ZSt8distanceIPKSt6vectorIiSaIiEEENSt15iterator_traitsIT_E15difference_typeES6_S6_
FNDA:0,_ZSt8distanceIPKiENSt15iterator_traitsIT_E15difference_typeES3_S3_
FNF:4
FNH:0
DA:98,0
DA:104,0
DA:138,0
DA:141,0
DA:142,0
LF:5
LH:0
end_of_record
SF:/usr/include/c++/7/bits/stl_iterator_base_types.h
FN:205,_ZSt19__iterator_categoryIPKiENSt15iterator_traitsIT_E17iterator_categoryERKS3_
FN:205,_ZSt19__iterator_categoryIPKSt6vectorIiSaIiEEENSt15iterator_traitsIT_E17iterator_categoryERKS6_
FNDA:0,_ZSt19__iterator_categoryIPKSt6vectorIiSaIiEEENSt15iterator_traitsIT_E17iterator_categoryERKS6_
FNDA:0,_ZSt19__iterator_categoryIPKiENSt15iterator_traitsIT_E17iterator_categoryERKS3_
FNF:2
FNH:0
DA:205,0
DA:206,0
LF:2
LH:0
end_of_record
SF:/usr/include/c++/7/bits/stl_uninitialized.h
FN:76,_ZNSt20__uninitialized_copyILb0EE13__uninit_copyIPKSt6vectorIiSaIiEEPS4_EET0_T_S9_S8_
FN:99,_ZNSt20__uninitialized_copyILb1EE13__uninit_copyIPKiPiEET0_T_S6_S5_
FN:99,_ZNSt20__uninitialized_copyILb1EE13__uninit_copyIN9__gnu_cxx17__normal_iteratorIPKiSt6vectorIiSaIiEEEEPiEET0_T_SC_SB_
FN:115,_ZSt18uninitialized_copyIPKSt6vectorIiSaIiEEPS2_ET0_T_S7_S6_
FN:115,_ZSt18uninitialized_copyIPKiPiET0_T_S4_S3_
FN:115,_ZSt18uninitialized_copyIN9__gnu_cxx17__normal_iteratorIPKiSt6vectorIiSaIiEEEEPiET0_T_SA_S9_
FN:287,_ZSt22__uninitialized_copy_aIPKiPiiET0_T_S4_S3_RSaIT1_E
FN:287,_ZSt22__uninitialized_copy_aIPKSt6vectorIiSaIiEEPS2_S2_ET0_T_S7_S6_RSaIT1_E
FN:287,_ZSt22__uninitialized_copy_aIN9__gnu_cxx17__normal_iteratorIPKiSt6vectorIiSaIiEEEEPiiET0_T_SA_S9_RSaIT1_E
FNDA:0,_ZNSt20__uninitialized_copyILb0EE13__uninit_copyIPKSt6vectorIiSaIiEEPS4_EET0_T_S9_S8_
FNDA:0,_ZNSt20__uninitialized_copyILb1EE13__uninit_copyIN9__gnu_cxx17__normal_iteratorIPKiSt6vectorIiSaIiEEEEPiEET0_T_SC_SB_
FNDA:0,_ZNSt20__uninitialized_copyILb1EE13__uninit_copyIPKiPiEET0_T_S6_S5_
FNDA:0,_ZSt18uninitialized_copyIN9__gnu_cxx17__normal_iteratorIPKiSt6vectorIiSaIiEEEEPiET0_T_SA_S9_
FNDA:0,_ZSt18uninitialized_copyIPKSt6vectorIiSaIiEEPS2_ET0_T_S7_S6_
FNDA:0,_ZSt18uninitialized_copyIPKiPiET0_T_S4_S3_
FNDA:0,_ZSt22__uninitialized_copy_aIN9__gnu_cxx17__normal_iteratorIPKiSt6vectorIiSaIiEEEEPiiET0_T_SA_S9_RSaIT1_E
FNDA:0,_ZSt22__uninitialized_copy_aIPKSt6vectorIiSaIiEEPS2_S2_ET0_T_S7_S6_RSaIT1_E
FNDA:0,_ZSt22__uninitialized_copy_aIPKiPiiET0_T_S4_S3_RSaIT1_E
FNF:9
FNH:0
DA:76,0
DA:79,0
DA:82,0
DA:83,0
DA:84,0
DA:86,0
DA:88,0
DA:89,0
DA:99,0
DA:101,0
DA:115,0
DA:128,0
DA:134,0
DA:287,0
DA:289,0
LF:15
LH:0
end_of_record
SF:/usr/include/c++/7/bits/stl_vector.h
FN:81,_ZNSt12_Vector_baseIiSaIiEE12_Vector_implD2Ev
FN:81,_ZNSt12_Vector_baseISt6vectorIiSaIiEESaIS2_EE12_Vector_implD2Ev
FN:88,_ZNSt12_Vector_baseISt6vectorIiSaIiEESaIS2_EE12_Vector_implC2Ev
FN:92,_ZNSt12_Vector_baseIiSaIiEE12_Vector_implC2ERKS0_
FN:92,_ZNSt12_Vector_baseISt6vectorIiSaIiEESaIS2_EE12_Vector_implC2ERKS3_
FN:115,_ZNSt12_Vector_baseISt6vectorIiSaIiEESaIS2_EE19_M_get_Tp_allocatorEv
FN:115,_ZNSt12_Vector_baseIiSaIiEE19_M_get_Tp_allocatorEv
FN:119,_ZNKSt12_Vector_baseIiSaIiEE19_M_get_Tp_allocatorEv
FN:126,_ZNSt12_Vector_baseISt6vectorIiSaIiEESaIS2_EEC2Ev
FN:129,_ZNSt12_Vector_baseISt6vectorIiSaIiEESaIS2_EEC2ERKS3_
FN:129,_ZNSt12_Vector_baseIiSaIiEEC2ERKS0_
FN:136,_ZNSt12_Vector_baseIiSaIiEEC2EmRKS0_
FN:161,_ZNSt12_Vector_baseISt6vectorIiSaIiEESaIS2_EED2Ev
FN:161,_ZNSt12_Vector_baseIiSaIiEED2Ev
FN:169,_ZNSt12_Vector_baseIiSaIiEE11_M_allocateEm
FN:169,_ZNSt12_Vector_baseISt6vectorIiSaIiEESaIS2_EE11_M_allocateEm
FN:176,_ZNSt12_Vector_baseIiSaIiEE13_M_deallocateEPim
FN:176,_ZNSt12_Vector_baseISt6vectorIiSaIiEESaIS2_EE13_M_deallocateEPS2_m
FN:185,_ZNSt12_Vector_baseIiSaIiEE17_M_create_storageEm
FN:259,_ZNSt6vectorIS_IiSaIiEESaIS1_EEC2Ev
FN:326,_ZNSt6vectorIiSaIiEEC2ERKS1_
FN:383,_ZNSt6vectorIS_IiSaIiEESaIS1_EEC2ESt16initializer_listIS1_ERKS2_
FN:383,_ZNSt6vectorIiSaIiEEC2ESt16initializer_listIiERKS0_
FN:433,_ZNSt6vectorIiSaIiEED2Ev
FN:433,_ZNSt6vectorIS_IiSaIiEESaIS1_EED2Ev
FN:572,_ZNKSt6vectorIS_IiSaIiEESaIS1_EE5beginEv
FN:572,_ZNKSt6vectorIiSaIiEE5beginEv
FN:590,_ZNKSt6vectorIiSaIiEE3endEv
FN:590,_ZNKSt6vectorIS_IiSaIiEESaIS1_EE3endEv
FN:670,_ZNKSt6vectorIS_IiSaIiEESaIS1_EE4sizeEv
FN:670,_ZNKSt6vectorIiSaIiEE4sizeEv
FN:1324,_ZNSt6vectorIS_IiSaIiEESaIS1_EE19_M_range_initializeIPKS1_EEvT_S7_St20forward_iterator_tag
FN:1324,_ZNSt6vectorIiSaIiEE19_M_range_initializeIPKiEEvT_S5_St20forward_iterator_tag
FN:1601,_ZSteqISt6vectorIiSaIiEESaIS2_EEbRKS0_IT_T0_ES8_
FN:1601,_ZSteqIiSaIiEEbRKSt6vectorIT_T0_ES6_
FNDA:0,_ZNSt12_Vector_baseISt6vectorIiSaIiEESaIS2_EE12_Vector_implD2Ev
FNDA:0,_ZNSt12_Vector_baseIiSaIiEE12_Vector_implD2Ev
FNDA:0,_ZNSt12_Vector_baseISt6vectorIiSaIiEESaIS2_EE12_Vector_implC2Ev
FNDA:0,_ZNSt12_Vector_baseISt6vectorIiSaIiEESaIS2_EE12_Vector_implC2ERKS3_
FNDA:0,_ZNSt12_Vector_baseIiSaIiEE12_Vector_implC2ERKS0_
FNDA:0,_ZNSt12_Vector_baseISt6vectorIiSaIiEESaIS2_EE19_M_get_Tp_allocatorEv
FNDA:0,_ZNSt12_Vector_baseIiSaIiEE19_M_get_Tp_allocatorEv
FNDA:0,_ZNKSt12_Vector_baseIiSaIiEE19_M_get_Tp_allocatorEv
FNDA:0,_ZNSt12_Vector_baseISt6vectorIiSaIiEESaIS2_EEC2Ev
FNDA:0,_ZNSt12_Vector_baseISt6vectorIiSaIiEESaIS2_EEC2ERKS3_
FNDA:0,_ZNSt12_Vector_baseIiSaIiEEC2ERKS0_
FNDA:0,_ZNSt12_Vector_baseIiSaIiEEC2EmRKS0_
FNDA:0,_ZNSt12_Vector_baseISt6vectorIiSaIiEESaIS2_EED2Ev
FNDA:0,_ZNSt12_Vector_baseIiSaIiEED2Ev
FNDA:0,_ZNSt12_Vector_baseISt6vectorIiSaIiEESaIS2_EE11_M_allocateEm
FNDA:0,_ZNSt12_Vector_baseIiSaIiEE11_M_allocateEm
FNDA:0,_ZNSt12_Vector_baseISt6vectorIiSaIiEESaIS2_EE13_M_deallocateEPS2_m
FNDA:0,_ZNSt12_Vector_baseIiSaIiEE13_M_deallocateEPim
FNDA:0,_ZNSt12_Vector_baseIiSaIiEE17_M_create_storageEm
FNDA:0,_ZNSt6vectorIS_IiSaIiEESaIS1_EEC2Ev
FNDA:0,_ZNSt6vectorIiSaIiEEC2ERKS1_
FNDA:0,_ZNSt6vectorIS_IiSaIiEESaIS1_EEC2ESt16initializer_listIS1_ERKS2_
FNDA:0,_ZNSt6vectorIiSaIiEEC2ESt16initializer_listIiERKS0_
FNDA:0,_ZNSt6vectorIS_IiSaIiEESaIS1_EED2Ev
FNDA:0,_ZNSt6vectorIiSaIiEED2Ev
FNDA:0,_ZNKSt6vectorIiSaIiEE5beginEv
FNDA:0,_ZNKSt6vectorIS_IiSaIiEESaIS1_EE5beginEv
FNDA:0,_ZNKSt6vectorIiSaIiEE3endEv
FNDA:0,_ZNKSt6vectorIS_IiSaIiEESaIS1_EE3endEv
FNDA:0,_ZNKSt6vectorIiSaIiEE4sizeEv
FNDA:0,_ZNKSt6vectorIS_IiSaIiEESaIS1_EE4sizeEv
FNDA:0,_ZNSt6vectorIS_IiSaIiEESaIS1_EE19_M_range_initializeIPKS1_EEvT_S7_St20forward_iterator_tag
FNDA:0,_ZNSt6vectorIiSaIiEE19_M_range_initializeIPKiEEvT_S5_St20forward_iterator_tag
FNDA:0,_ZSteqIiSaIiEEbRKSt6vectorIT_T0_ES6_
FNDA:0,_ZSteqISt6vectorIiSaIiEESaIS2_EEbRKS0_IT_T0_ES8_
FNF:35
FNH:0
DA:81,0
DA:88,0
DA:89,0
DA:90,0
DA:92,0
DA:93,0
DA:94,0
DA:115,0
DA:116,0
DA:119,0
DA:120,0
DA:126,0
DA:127,0
DA:129,0
DA:130,0
DA:136,0
DA:137,0
DA:138,0
DA:161,0
DA:162,0
DA:163,0
DA:169,0
DA:172,0
DA:176,0
DA:179,0
DA:180,0
DA:181,0
DA:185,0
DA:187,0
DA:188,0
DA:189,0
DA:190,0
DA:259,0
DA:263,0
DA:326,0
DA:328,0
DA:330,0
DA:331,0
DA:333,0
DA:334,0
DA:383,0
DA:385,0
DA:387,0
DA:389,0
DA:433,0
DA:434,0
DA:435,0
DA:572,0
DA:573,0
DA:590,0
DA:591,0
DA:670,0
DA:671,0
DA:1324,0
DA:1327,0
DA:1328,0
DA:1329,0
DA:1330,0
DA:1331,0
DA:1333,0
DA:1334,0
DA:1601,0
DA:1602,0
DA:1603,0
LF:64
LH:0
end_of_record
SF:/usr/include/c++/7/bits/unique_ptr.h
FN:72,_ZNKSt14default_deleteINSt7__cxx1112basic_stringIcSt11char_traitsIcESaIcEEEEclEPS5_
FN:72,_ZNKSt14default_deleteINSt7__cxx1118basic_stringstreamIcSt11char_traitsIcESaIcEEEEclEPS5_
FN:146,_ZNSt15__uniq_ptr_implINSt7__cxx1112basic_stringIcSt11char_traitsIcESaIcEEESt14default_deleteIS5_EE6_M_ptrEv
FN:146,_ZNSt15__uniq_ptr_implINSt7__cxx1118basic_stringstreamIcSt11char_traitsIcESaIcEEESt14default_deleteIS5_EE6_M_ptrEv
FN:147,_ZNKSt15__uniq_ptr_implINSt7__cxx1112basic_stringIcSt11char_traitsIcESaIcEEESt14default_deleteIS5_EE6_M_ptrEv
FN:148,_ZNSt15__uniq_ptr_implINSt7__cxx1118basic_stringstreamIcSt11char_traitsIcESaIcEEESt14default_deleteIS5_EE10_M_deleterEv
FN:148,_ZNSt15__uniq_ptr_implINSt7__cxx1112basic_stringIcSt11char_traitsIcESaIcEEESt14default_deleteIS5_EE10_M_deleterEv
FN:264,_ZNSt10unique_ptrINSt7__cxx1112basic_stringIcSt11char_traitsIcESaIcEEESt14default_deleteIS5_EED2Ev
FN:264,_ZNSt10unique_ptrINSt7__cxx1118basic_stringstreamIcSt11char_traitsIcESaIcEEESt14default_deleteIS5_EED2Ev
FN:328,_ZNKSt10unique_ptrINSt7__cxx1112basic_stringIcSt11char_traitsIcESaIcEEESt14default_deleteIS5_EEptEv
FN:336,_ZNKSt10unique_ptrINSt7__cxx1112basic_stringIcSt11char_traitsIcESaIcEEESt14default_deleteIS5_EE3getEv
FN:341,_ZNSt10unique_ptrINSt7__cxx1118basic_stringstreamIcSt11char_traitsIcESaIcEEESt14default_deleteIS5_EE11get_deleterEv
FN:341,_ZNSt10unique_ptrINSt7__cxx1112basic_stringIcSt11char_traitsIcESaIcEEESt14default_deleteIS5_EE11get_deleterEv
FNDA:0,_ZNKSt14default_deleteINSt7__cxx1112basic_stringIcSt11char_traitsIcESaIcEEEEclEPS5_
FNDA:0,_ZNKSt14default_deleteINSt7__cxx1118basic_stringstreamIcSt11char_traitsIcESaIcEEEEclEPS5_
FNDA:0,_ZNSt15__uniq_ptr_implINSt7__cxx1112basic_stringIcSt11char_traitsIcESaIcEEESt14default_deleteIS5_EE6_M_ptrEv
FNDA:0,_ZNSt15__uniq_ptr_implINSt7__cxx1118basic_stringstreamIcSt11char_traitsIcESaIcEEESt14default_deleteIS5_EE6_M_ptrEv
FNDA:0,_ZNKSt15__uniq_ptr_implINSt7__cxx1112basic_stringIcSt11char_traitsIcESaIcEEESt14default_deleteIS5_EE6_M_ptrEv
FNDA:0,_ZNSt15__uniq_ptr_implINSt7__cxx1112basic_stringIcSt11char_traitsIcESaIcEEESt14default_deleteIS5_EE10_M_deleterEv
FNDA:0,_ZNSt15__uniq_ptr_implINSt7__cxx1118basic_stringstreamIcSt11char_traitsIcESaIcEEESt14default_deleteIS5_EE10_M_deleterEv
FNDA:0,_ZNSt10unique_ptrINSt7__cxx1112basic_stringIcSt11char_traitsIcESaIcEEESt14default_deleteIS5_EED2Ev
FNDA:0,_ZNSt10unique_ptrINSt7__cxx1118basic_stringstreamIcSt11char_traitsIcESaIcEEESt14default_deleteIS5_EED2Ev
FNDA:0,_ZNKSt10unique_ptrINSt7__cxx1112basic_stringIcSt11char_traitsIcESaIcEEESt14default_deleteIS5_EEptEv
FNDA:0,_ZNKSt10unique_ptrINSt7__cxx1112basic_stringIcSt11char_traitsIcESaIcEEESt14default_deleteIS5_EE3getEv
FNDA:0,_ZNSt10unique_ptrINSt7__cxx1112basic_stringIcSt11char_traitsIcESaIcEEESt14default_deleteIS5_EE11get_deleterEv
FNDA:0,_ZNSt10unique_ptrINSt7__cxx1118basic_stringstreamIcSt11char_traitsIcESaIcEEESt14default_deleteIS5_EE11get_deleterEv
FNF:13
FNH:0
DA:72,0
DA:78,0
DA:79,0
DA:146,0
DA:147,0
DA:148,0
DA:264,0
DA:266,0
DA:267,0
DA:268,0
DA:269,0
DA:270,0
DA:328,0
DA:331,0
DA:336,0
DA:337,0
DA:341,0
DA:342,0
LF:18
LH:0
end_of_record
SF:/usr/include/c++/7/ext/alloc_traits.h
FN:94,_ZN9__gnu_cxx14__alloc_traitsISaIiEE17_S_select_on_copyERKS1_
FNDA:0,_ZN9__gnu_cxx14__alloc_traitsISaIiEE17_S_select_on_copyERKS1_
FNF:1
FNH:0
DA:94,0
DA:95,0
LF:2
LH:0
end_of_record
SF:/usr/include/c++/7/ext/new_allocator.h
FN:79,_ZN9__gnu_cxx13new_allocatorISt6vectorIiSaIiEEEC2Ev
FN:79,_ZN9__gnu_cxx13new_allocatorIiEC2Ev
FN:81,_ZN9__gnu_cxx13new_allocatorISt6vectorIiSaIiEEEC2ERKS4_
FN:81,_ZN9__gnu_cxx13new_allocatorIiEC2ERKS1_
FN:86,_ZN9__gnu_cxx13new_allocatorISt6vectorIiSaIiEEED2Ev
FN:86,_ZN9__gnu_cxx13new_allocatorIiED2Ev
FN:99,_ZN9__gnu_cxx13new_allocatorISt6vectorIiSaIiEEE8allocateEmPKv
FN:99,_ZN9__gnu_cxx13new_allocatorIiE8allocateEmPKv
FN:116,_ZN9__gnu_cxx13new_allocatorIiE10deallocateEPim
FN:116,_ZN9__gnu_cxx13new_allocatorISt6vectorIiSaIiEEE10deallocateEPS3_m
FN:129,_ZNK9__gnu_cxx13new_allocatorIiE8max_sizeEv
FN:129,_ZNK9__gnu_cxx13new_allocatorISt6vectorIiSaIiEEE8max_sizeEv
FNDA:0,_ZN9__gnu_cxx13new_allocatorISt6vectorIiSaIiEEEC2Ev
FNDA:0,_ZN9__gnu_cxx13new_allocatorIiEC2Ev
FNDA:0,_ZN9__gnu_cxx13new_allocatorISt6vectorIiSaIiEEEC2ERKS4_
FNDA:0,_ZN9__gnu_cxx13new_allocatorIiEC2ERKS1_
FNDA:0,_ZN9__gnu_cxx13new_allocatorISt6vectorIiSaIiEEED2Ev
FNDA:0,_ZN9__gnu_cxx13new_allocatorIiED2Ev
FNDA:0,_ZN9__gnu_cxx13new_allocatorISt6vectorIiSaIiEEE8allocateEmPKv
FNDA:0,_ZN9__gnu_cxx13new_allocatorIiE8allocateEmPKv
FNDA:0,_ZN9__gnu_cxx13new_allocatorISt6vectorIiSaIiEEE10deallocateEPS3_m
FNDA:0,_ZN9__gnu_cxx13new_allocatorIiE10deallocateEPim
FNDA:0,_ZNK9__gnu_cxx13new_allocatorISt6vectorIiSaIiEEE8max_sizeEv
FNDA:0,_ZNK9__gnu_cxx13new_allocatorIiE8max_sizeEv
FNF:12
FNH:0
DA:79,0
DA:81,0
DA:86,0
DA:99,0
DA:101,0
DA:102,0
DA:111,0
DA:116,0
DA:125,0
DA:126,0
DA:129,0
DA:130,0
LF:12
LH:0
end_of_record
SF:/usr/include/c++/7/initializer_list
FN:71,_ZNKSt16initializer_listIiE4sizeEv
FN:71,_ZNKSt16initializer_listISt6vectorIiSaIiEEE4sizeEv
FN:75,_ZNKSt16initializer_listIiE5beginEv
FN:75,_ZNKSt16initializer_listISt6vectorIiSaIiEEE5beginEv
FN:79,_ZNKSt16initializer_listIiE3endEv
FN:79,_ZNKSt16initializer_listISt6vectorIiSaIiEEE3endEv
FNDA:0,_ZNKSt16initializer_listISt6vectorIiSaIiEEE4sizeEv
FNDA:0,_ZNKSt16initializer_listIiE4sizeEv
FNDA:0,_ZNKSt16initializer_listISt6vectorIiSaIiEEE5beginEv
FNDA:0,_ZNKSt16initializer_listIiE5beginEv
FNDA:0,_ZNKSt16initializer_listISt6vectorIiSaIiEEE3endEv
FNDA:0,_ZNKSt16initializer_listIiE3endEv
FNF:6
FNH:0
DA:71,0
DA:75,0
DA:79,0
LF:3
LH:0
end_of_record
SF:/usr/include/c++/7/iostream
DA:74,5
LF:1
LH:1
end_of_record
SF:/usr/include/c++/7/new
FN:168,_ZnwmPv
FN:174,_ZdlPvS_
FNDA:0,_ZnwmPv
FNDA:0,_ZdlPvS_
FNF:2
FNH:0
DA:168,0
DA:169,0
DA:174,0
LF:3
LH:0
end_of_record
SF:/usr/include/c++/7/tuple
FN:113,_ZNSt10_Head_baseILm1ESt14default_deleteINSt7__cxx1112basic_stringIcSt11char_traitsIcESaIcEEEELb1EE7_M_headERS8_
FN:113,_ZNSt10_Head_baseILm1ESt14default_deleteINSt7__cxx1118basic_stringstreamIcSt11char_traitsIcESaIcEEEELb1EE7_M_headERS8_
FN:160,_ZNSt10_Head_baseILm0EPNSt7__cxx1118basic_stringstreamIcSt11char_traitsIcESaIcEEELb0EE7_M_headERS7_
FN:160,_ZNSt10_Head_baseILm0EPNSt7__cxx1112basic_stringIcSt11char_traitsIcESaIcEEELb0EE7_M_headERS7_
FN:163,_ZNSt10_Head_baseILm0EPNSt7__cxx1112basic_stringIcSt11char_traitsIcESaIcEEELb0EE7_M_headERKS7_
FN:195,_ZNSt11_Tuple_implILm0EJPNSt7__cxx1118basic_stringstreamIcSt11char_traitsIcESaIcEEESt14default_deleteIS5_EEE7_M_headERS9_
FN:195,_ZNSt11_Tuple_implILm0EJPNSt7__cxx1112basic_stringIcSt11char_traitsIcESaIcEEESt14default_deleteIS5_EEE7_M_headERS9_
FN:198,_ZNSt11_Tuple_implILm0EJPNSt7__cxx1112basic_stringIcSt11char_traitsIcESaIcEEESt14default_deleteIS5_EEE7_M_headERKS9_
FN:351,_ZNSt11_Tuple_implILm1EJSt14default_deleteINSt7__cxx1112basic_stringIcSt11char_traitsIcESaIcEEEEEE7_M_headERS8_
FN:351,_ZNSt11_Tuple_implILm1EJSt14default_deleteINSt7__cxx1118basic_stringstreamIcSt11char_traitsIcESaIcEEEEEE7_M_headERS8_
FN:1303,_ZSt12__get_helperILm1ESt14default_deleteINSt7__cxx1118basic_stringstreamIcSt11char_traitsIcESaIcEEEEJEERT0_RSt11_Tuple_implIXT_EJS8_DpT1_EE
FN:1303,_ZSt12__get_helperILm0EPNSt7__cxx1118basic_stringstreamIcSt11char_traitsIcESaIcEEEJSt14default_deleteIS5_EEERT0_RSt11_Tuple_implIXT_EJS9_DpT1_EE
FN:1303,_ZSt12__get_helperILm1ESt14default_deleteINSt7__cxx1112basic_stringIcSt11char_traitsIcESaIcEEEEJEERT0_RSt11_Tuple_implIXT_EJS8_DpT1_EE
FN:1303,_ZSt12__get_helperILm0EPNSt7__cxx1112basic_stringIcSt11char_traitsIcESaIcEEEJSt14default_deleteIS5_EEERT0_RSt11_Tuple_implIXT_EJS9_DpT1_EE
FN:1308,_ZSt12__get_helperILm0EPNSt7__cxx1112basic_stringIcSt11char_traitsIcESaIcEEEJSt14default_deleteIS5_EEERKT0_RKSt11_Tuple_implIXT_EJS9_DpT1_EE
FN:1314,_ZSt3getILm0EJPNSt7__cxx1118basic_stringstreamIcSt11char_traitsIcESaIcEEESt14default_deleteIS5_EEERNSt13tuple_elementIXT_ESt5tupleIJDpT0_EEE4typeERSD_
FN:1314,_ZSt3getILm1EJPNSt7__cxx1118basic_stringstreamIcSt11char_traitsIcESaIcEEESt14default_deleteIS5_EEERNSt13tuple_elementIXT_ESt5tupleIJDpT0_EEE4typeERSD_
FN:1314,_ZSt3getILm0EJPNSt7__cxx1112basic_stringIcSt11char_traitsIcESaIcEEESt14default_deleteIS5_EEERNSt13tuple_elementIXT_ESt5tupleIJDpT0_EEE4typeERSD_
FN:1314,_ZSt3getILm1EJPNSt7__cxx1112basic_stringIcSt11char_traitsIcESaIcEEESt14default_deleteIS5_EEERNSt13tuple_elementIXT_ESt5tupleIJDpT0_EEE4typeERSD_
FN:1320,_ZSt3getILm0EJPNSt7__cxx1112basic_stringIcSt11char_traitsIcESaIcEEESt14default_deleteIS5_EEERKNSt13tuple_elementIXT_ESt5tupleIJDpT0_EEE4typeERKSD_
FNDA:0,_ZNSt10_Head_baseILm1ESt14default_deleteINSt7__cxx1112basic_stringIcSt11char_traitsIcESaIcEEEELb1EE7_M_headERS8_
FNDA:0,_ZNSt10_Head_baseILm1ESt14default_deleteINSt7__cxx1118basic_stringstreamIcSt11char_traitsIcESaIcEEEELb1EE7_M_headERS8_
FNDA:0,_ZNSt10_Head_baseILm0EPNSt7__cxx1112basic_stringIcSt11char_traitsIcESaIcEEELb0EE7_M_headERS7_
FNDA:0,_ZNSt10_Head_baseILm0EPNSt7__cxx1118basic_stringstreamIcSt11char_traitsIcESaIcEEELb0EE7_M_headERS7_
FNDA:0,_ZNSt10_Head_baseILm0EPNSt7__cxx1112basic_stringIcSt11char_traitsIcESaIcEEELb0EE7_M_headERKS7_
FNDA:0,_ZNSt11_Tuple_implILm0EJPNSt7__cxx1112basic_stringIcSt11char_traitsIcESaIcEEESt14default_deleteIS5_EEE7_M_headERS9_
FNDA:0,_ZNSt11_Tuple_implILm0EJPNSt7__cxx1118basic_stringstreamIcSt11char_traitsIcESaIcEEESt14default_deleteIS5_EEE7_M_headERS9_
FNDA:0,_ZNSt11_Tuple_implILm0EJPNSt7__cxx1112basic_stringIcSt11char_traitsIcESaIcEEESt14default_deleteIS5_EEE7_M_headERKS9_
FNDA:0,_ZNSt11_Tuple_implILm1EJSt14default_deleteINSt7__cxx1112basic_stringIcSt11char_traitsIcESaIcEEEEEE7_M_headERS8_
FNDA:0,_ZNSt11_Tuple_implILm1EJSt14default_deleteINSt7__cxx1118basic_stringstreamIcSt11char_traitsIcESaIcEEEEEE7_M_headERS8_
FNDA:0,_ZSt12__get_helperILm1ESt14default_deleteINSt7__cxx1112basic_stringIcSt11char_traitsIcESaIcEEEEJEERT0_RSt11_Tuple_implIXT_EJS8_DpT1_EE
FNDA:0,_ZSt12__get_helperILm1ESt14default_deleteINSt7__cxx1118basic_stringstreamIcSt11char_traitsIcESaIcEEEEJEERT0_RSt11_Tuple_implIXT_EJS8_DpT1_EE
FNDA:0,_ZSt12__get_helperILm0EPNSt7__cxx1112basic_stringIcSt11char_traitsIcESaIcEEEJSt14default_deleteIS5_EEERT0_RSt11_Tuple_implIXT_EJS9_DpT1_EE
FNDA:0,_ZSt12__get_helperILm0EPNSt7__cxx1118basic_stringstreamIcSt11char_traitsIcESaIcEEEJSt14default_deleteIS5_EEERT0_RSt11_Tuple_implIXT_EJS9_DpT1_EE
FNDA:0,_ZSt12__get_helperILm0EPNSt7__cxx1112basic_stringIcSt11char_traitsIcESaIcEEEJSt14default_deleteIS5_EEERKT0_RKSt11_Tuple_implIXT_EJS9_DpT1_EE
FNDA:0,_ZSt3getILm1EJPNSt7__cxx1112basic_stringIcSt11char_traitsIcESaIcEEESt14default_deleteIS5_EEERNSt13tuple_elementIXT_ESt5tupleIJDpT0_EEE4typeERSD_
FNDA:0,_ZSt3getILm1EJPNSt7__cxx1118basic_stringstreamIcSt11char_traitsIcESaIcEEESt14default_deleteIS5_EEERNSt13tuple_elementIXT_ESt5tupleIJDpT0_EEE4typeERSD_
FNDA:0,_ZSt3getILm0EJPNSt7__cxx1112basic_stringIcSt11char_traitsIcESaIcEEESt14default_deleteIS5_EEERNSt13tuple_elementIXT_ESt5tupleIJDpT0_EEE4typeERSD_
FNDA:0,_ZSt3getILm0EJPNSt7__cxx1118basic_stringstreamIcSt11char_traitsIcESaIcEEESt14default_deleteIS5_EEERNSt13tuple_elementIXT_ESt5tupleIJDpT0_EEE4typeERSD_
FNDA:0,_ZSt3getILm0EJPNSt7__cxx1112basic_stringIcSt11char_traitsIcESaIcEEESt14default_deleteIS5_EEERKNSt13tuple_elementIXT_ESt5tupleIJDpT0_EEE4typeERKSD_
FNF:20
FNH:0
DA:113,0
DA:160,0
DA:163,0
DA:195,0
DA:198,0
DA:351,0
DA:1303,0
DA:1304,0
DA:1308,0
DA:1309,0
DA:1314,0
DA:1315,0
DA:1320,0
DA:1321,0
LF:14
LH:0
end_of_record
TN:
SF:/home/fyulita/Desktop/tpi/algo1-TPI/auxiliares-tests/ej2TEST.cpp
FN:4,_ZN53pixelValidoEncendidoTest_promedioDecimalEnAdy4_2_TestD2Ev
FN:4,_ZN53pixelValidoEncendidoTest_promedioDecimalEnAdy4_2_TestC2Ev
FN:4,_ZN53pixelValidoEncendidoTest_promedioDecimalEnAdy4_2_TestD0Ev
FN:4,_ZN53pixelValidoEncendidoTest_promedioDecimalEnAdy4_2_Test8TestBodyEv
FN:10,_ZN45existeCaminoTest_promedioDecimalEnAdy4_2_TestD0Ev
FN:10,_ZN45existeCaminoTest_promedioDecimalEnAdy4_2_Test8TestBodyEv
FN:10,_ZN45existeCaminoTest_promedioDecimalEnAdy4_2_TestC2Ev
FN:10,_ZN45existeCaminoTest_promedioDecimalEnAdy4_2_TestD2Ev
FN:15,_Z41__static_initialization_and_destruction_0ii
FN:15,_GLOBAL__sub_I__ZN53pixelValidoEncendidoTest_promedioDecimalEnAdy4_2_Test10test_info_E
FNDA:4,_ZN53pixelValidoEncendidoTest_promedioDecimalEnAdy4_2_TestD0Ev
FNDA:4,_ZN53pixelValidoEncendidoTest_promedioDecimalEnAdy4_2_TestD2Ev
FNDA:4,_ZN53pixelValidoEncendidoTest_promedioDecimalEnAdy4_2_Test8TestBodyEv
FNDA:4,_ZN53pixelValidoEncendidoTest_promedioDecimalEnAdy4_2_TestC2Ev
FNDA:4,_ZN45existeCaminoTest_promedioDecimalEnAdy4_2_TestD0Ev
FNDA:4,_ZN45existeCaminoTest_promedioDecimalEnAdy4_2_TestD2Ev
FNDA:4,_ZN45existeCaminoTest_promedioDecimalEnAdy4_2_Test8TestBodyEv
FNDA:4,_ZN45existeCaminoTest_promedioDecimalEnAdy4_2_TestC2Ev
FNDA:5,_GLOBAL__sub_I__ZN53pixelValidoEncendidoTest_promedioDecimalEnAdy4_2_Test10test_info_E
FNDA:5,_Z41__static_initialization_and_destruction_0ii
FNF:10
FNH:10
DA:4,21
DA:5,8
DA:6,8
DA:7,4
DA:8,4
DA:10,21
DA:11,8
DA:12,8
DA:13,8
DA:14,4
DA:15,19
LF:11
LH:11
end_of_record
SF:/home/fyulita/Desktop/tpi/algo1-TPI/lib/googletest-master/googletest/include/gtest/gtest-message.h
FN:91,_ZN7testing7MessageD2Ev
FNDA:0,_ZN7testing7MessageD2Ev
FNF:1
FNH:0
DA:91,0
LF:1
LH:0
end_of_record
SF:/home/fyulita/Desktop/tpi/algo1-TPI/lib/googletest-master/googletest/include/gtest/gtest.h
FN:275,_ZN7testing15AssertionResultD2Ev
FN:293,_ZN7testing15AssertionResultC2IbEERKT_PNSt9enable_ifIXntsrSt14is_convertibleIS2_S0_E5valueEvE4typeE
FN:312,_ZNK7testing15AssertionResultcvbEv
FN:417,_ZN7testing4Test14SetUpTestSuiteEv
FN:427,_ZN7testing4Test17TearDownTestSuiteEv
FN:431,_ZN7testing4Test16TearDownTestCaseEv
FN:432,_ZN7testing4Test13SetUpTestCaseEv
FN:513,_ZN7testing4Test5SetupEv
FNDA:0,_ZN7testing15AssertionResultD2Ev
FNDA:0,_ZN7testing15AssertionResultC2IbEERKT_PNSt9enable_ifIXntsrSt14is_convertibleIS2_S0_E5valueEvE4typeE
FNDA:0,_ZNK7testing15AssertionResultcvbEv
FNDA:0,_ZN7testing4Test14SetUpTestSuiteEv
FNDA:0,_ZN7testing4Test17TearDownTestSuiteEv
FNDA:0,_ZN7testing4Test16TearDownTestCaseEv
FNDA:0,_ZN7testing4Test13SetUpTestCaseEv
FNDA:0,_ZN7testing4Test5SetupEv
FNF:8
FNH:0
DA:275,0
DA:293,0
DA:299,0
DA:312,0
DA:417,0
DA:427,0
DA:431,0
DA:432,0
DA:513,0
LF:9
LH:0
end_of_record
SF:/home/fyulita/Desktop/tpi/algo1-TPI/lib/googletest-master/googletest/include/gtest/internal/gtest-internal.h
FN:442,_ZN7testing8internal15TestFactoryBaseD0Ev
FN:442,_ZN7testing8internal15TestFactoryBaseD2Ev
FN:449,_ZN7testing8internal15TestFactoryBaseC2Ev
FN:458,_ZN7testing8internal15TestFactoryImplI53pixelValidoEncendidoTest_promedioDecimalEnAdy4_2_TestED0Ev
FN:458,_ZN7testing8internal15TestFactoryImplI53pixelValidoEncendidoTest_promedioDecimalEnAdy4_2_TestEC2Ev
FN:458,_ZN7testing8internal15TestFactoryImplI45existeCaminoTest_promedioDecimalEnAdy4_2_TestEC2Ev
FN:458,_ZN7testing8internal15TestFactoryImplI45existeCaminoTest_promedioDecimalEnAdy4_2_TestED2Ev
FN:458,_ZN7testing8internal15TestFactoryImplI53pixelValidoEncendidoTest_promedioDecimalEnAdy4_2_TestED2Ev
FN:458,_ZN7testing8internal15TestFactoryImplI45existeCaminoTest_promedioDecimalEnAdy4_2_TestED0Ev
FN:460,_ZN7testing8internal15TestFactoryImplI53pixelValidoEncendidoTest_promedioDecimalEnAdy4_2_TestE10CreateTestEv
FN:460,_ZN7testing8internal15TestFactoryImplI45existeCaminoTest_promedioDecimalEnAdy4_2_TestE10CreateTestEv
FN:480,_ZN7testing8internal12CodeLocationD2Ev
FN:481,_ZN7testing8internal12CodeLocationC2ERKNSt7__cxx1112basic_stringIcSt11char_traitsIcESaIcEEEi
FN:494,_ZN7testing8internal19GetNotDefaultOrNullEPFvvES2_
FN:509,_ZN7testing8internal16SuiteApiResolverINS_4TestEE19GetSetUpCaseOrSuiteEPKci
FN:524,_ZN7testing8internal16SuiteApiResolverINS_4TestEE22GetTearDownCaseOrSuiteEPKci
FNDA:0,_ZN7testing8internal15TestFactoryBaseD0Ev
FNDA:0,_ZN7testing8internal15TestFactoryBaseD2Ev
FNDA:0,_ZN7testing8internal15TestFactoryBaseC2Ev
FNDA:5,_ZN7testing8internal15TestFactoryImplI53pixelValidoEncendidoTest_promedioDecimalEnAdy4_2_TestED0Ev
FNDA:5,_ZN7testing8internal15TestFactoryImplI53pixelValidoEncendidoTest_promedioDecimalEnAdy4_2_TestED2Ev
FNDA:5,_ZN7testing8internal15TestFactoryImplI45existeCaminoTest_promedioDecimalEnAdy4_2_TestED0Ev
FNDA:5,_ZN7testing8internal15TestFactoryImplI45existeCaminoTest_promedioDecimalEnAdy4_2_TestED2Ev
FNDA:5,_ZN7testing8internal15TestFactoryImplI45existeCaminoTest_promedioDecimalEnAdy4_2_TestEC2Ev
FNDA:5,_ZN7testing8internal15TestFactoryImplI53pixelValidoEncendidoTest_promedioDecimalEnAdy4_2_TestEC2Ev
FNDA:4,_ZN7testing8internal15TestFactoryImplI53pixelValidoEncendidoTest_promedioDecimalEnAdy4_2_TestE10CreateTestEv
FNDA:4,_ZN7testing8internal15TestFactoryImplI45existeCaminoTest_promedioDecimalEnAdy4_2_TestE10CreateTestEv
FNDA:0,_ZN7testing8internal12CodeLocationD2Ev
FNDA:0,_ZN7testing8internal12CodeLocationC2ERKNSt7__cxx1112basic_stringIcSt11char_traitsIcESaIcEEEi
FNDA:0,_ZN7testing8internal19GetNotDefaultOrNullEPFvvES2_
FNDA:0,_ZN7testing8internal16SuiteApiResolverINS_4TestEE19GetSetUpCaseOrSuiteEPKci
FNDA:0,_ZN7testing8internal16SuiteApiResolverINS_4TestEE22GetTearDownCaseOrSuiteEPKci
FNF:16
FNH:8
DA:442,0
DA:449,0
DA:458,30
DA:460,8
DA:480,0
DA:481,0
DA:482,0
DA:494,0
DA:496,0
DA:509,0
DA:511,0
DA:513,0
DA:516,0
DA:519,0
DA:521,0
DA:524,0
DA:526,0
DA:528,0
DA:531,0
DA:534,0
DA:536,0
LF:21
LH:2
end_of_record
SF:/home/fyulita/Desktop/tpi/algo1-TPI/lib/googletest-master/googletest/include/gtest/internal/gtest-port.h
FN:942,_ZN7testing8internal8GTestLog9GetStreamEv
FNDA:0,_ZN7testing8internal8GTestLog9GetStreamEv
FNF:1
FNH:0
DA:942,0
LF:1
LH:0
end_of_record
SF:/usr/include/c++/7/bits/alloc_traits.h
FN:435,_ZNSt16allocator_traitsISaISt6vectorIiSaIiEEEE8allocateERS3_m
FN:435,_ZNSt16allocator_traitsISaIiEE8allocateERS0_m
FN:461,_ZNSt16allocator_traitsISaIiEE10deallocateERS0_Pim
FN:461,_ZNSt16allocator_traitsISaISt6vectorIiSaIiEEEE10deallocateERS3_PS2_m
FN:504,_ZNSt16allocator_traitsISaISt6vectorIiSaIiEEEE37select_on_container_copy_constructionERKS3_
FN:504,_ZNSt16allocator_traitsISaIiEE37select_on_container_copy_constructionERKS0_
FNDA:0,_ZNSt16allocator_traitsISaISt6vectorIiSaIiEEEE8allocateERS3_m
FNDA:0,_ZNSt16allocator_traitsISaIiEE8allocateERS0_m
FNDA:0,_ZNSt16allocator_traitsISaISt6vectorIiSaIiEEEE10deallocateERS3_PS2_m
FNDA:0,_ZNSt16allocator_traitsISaIiEE10deallocateERS0_Pim
FNDA:0,_ZNSt16allocator_traitsISaISt6vectorIiSaIiEEEE37select_on_container_copy_constructionERKS3_
FNDA:0,_ZNSt16allocator_traitsISaIiEE37select_on_container_copy_constructionERKS0_
FNF:6
FNH:0
DA:435,0
DA:436,0
DA:461,0
DA:462,0
DA:504,0
DA:505,0
LF:6
LH:0
end_of_record
SF:/usr/include/c++/7/bits/allocator.h
FN:131,_ZNSaIiEC2Ev
FN:131,_ZNSaISt6vectorIiSaIiEEEC2Ev
FN:133,_ZNSaISt6vectorIiSaIiEEEC2ERKS2_
FN:133,_ZNSaIiEC2ERKS_
FN:139,_ZNSaISt6vectorIiSaIiEEED2Ev
FN:139,_ZNSaIiED2Ev
FNDA:0,_ZNSaISt6vectorIiSaIiEEEC2Ev
FNDA:0,_ZNSaIiEC2Ev
FNDA:0,_ZNSaISt6vectorIiSaIiEEEC2ERKS2_
FNDA:0,_ZNSaIiEC2ERKS_
FNDA:0,_ZNSaISt6vectorIiSaIiEEED2Ev
FNDA:0,_ZNSaIiED2Ev
FNF:6
FNH:0
DA:131,0
DA:133,0
DA:134,0
DA:139,0
LF:4
LH:0
end_of_record
SF:/usr/include/c++/7/bits/cpp_type_traits.h
FN:408,_ZSt12__miter_baseIPKiET_S2_
FN:408,_ZSt12__miter_baseIN9__gnu_cxx17__normal_iteratorIPKiSt6vectorIiSaIiEEEEET_S8_
FNDA:0,_ZSt12__miter_baseIPKiET_S2_
FNDA:0,_ZSt12__miter_baseIN9__gnu_cxx17__normal_iteratorIPKiSt6vectorIiSaIiEEEEET_S8_
FNF:2
FNH:0
DA:408,0
DA:409,0
LF:2
LH:0
end_of_record
SF:/usr/include/c++/7/bits/move.h
FN:47,_ZSt11__addressofISt6vectorIiSaIiEEEPT_RS3_
FN:73,_ZSt7forwardIRKSt6vectorIiSaIiEEEOT_RNSt16remove_referenceIS5_E4typeE
FNDA:0,_ZSt11__addressofISt6vectorIiSaIiEEEPT_RS3_
FNDA:0,_ZSt7forwardIRKSt6vectorIiSaIiEEEOT_RNSt16remove_referenceIS5_E4typeE
FNF:2
FNH:0
DA:47,0
DA:48,0
DA:73,0
DA:74,0
LF:4
LH:0
end_of_record
SF:/usr/include/c++/7/bits/stl_algobase.h
FN:277,_ZSt12__niter_baseIPiET_S1_
FN:277,_ZSt12__niter_baseIPKiET_S2_
FN:357,_ZNSt11__copy_moveILb0ELb1ESt26random_access_iterator_tagE8__copy_mIiEEPT_PKS3_S6_S4_
FN:375,_ZSt13__copy_move_aILb0EPKiPiET1_T0_S4_S3_
FN:420,_ZSt14__copy_move_a2ILb0EPKiPiET1_T0_S4_S3_
FN:420,_ZSt14__copy_move_a2ILb0EN9__gnu_cxx17__normal_iteratorIPKiSt6vectorIiSaIiEEEEPiET1_T0_SA_S9_
FN:446,_ZSt4copyIN9__gnu_cxx17__normal_iteratorIPKiSt6vectorIiSaIiEEEEPiET0_T_SA_S9_
FN:446,_ZSt4copyIPKiPiET0_T_S4_S3_
FNDA:0,_ZSt12__niter_baseIPKiET_S2_
FNDA:0,_ZSt12__niter_baseIPiET_S1_
FNDA:0,_ZNSt11__copy_moveILb0ELb1ESt26random_access_iterator_tagE8__copy_mIiEEPT_PKS3_S6_S4_
FNDA:0,_ZSt13__copy_move_aILb0EPKiPiET1_T0_S4_S3_
FNDA:0,_ZSt14__copy_move_a2ILb0EPKiPiET1_T0_S4_S3_
FNDA:0,_ZSt14__copy_move_a2ILb0EN9__gnu_cxx17__normal_iteratorIPKiSt6vectorIiSaIiEEEEPiET1_T0_SA_S9_
FNDA:0,_ZSt4copyIPKiPiET0_T_S4_S3_
FNDA:0,_ZSt4copyIN9__gnu_cxx17__normal_iteratorIPKiSt6vectorIiSaIiEEEEPiET0_T_SA_S9_
FNF:8
FNH:0
DA:277,0
DA:278,0
DA:357,0
DA:366,0
DA:367,0
DA:368,0
DA:369,0
DA:375,0
DA:380,0
DA:386,0
DA:420,0
DA:422,0
DA:424,0
DA:446,0
DA:455,0
DA:456,0
LF:16
LH:0
end_of_record
SF:/usr/include/c++/7/bits/stl_construct.h
FN:74,_ZSt10_ConstructISt6vectorIiSaIiEEJRKS2_EEvPT_DpOT0_
FN:97,_ZSt8_DestroyISt6vectorIiSaIiEEEvPT_
FN:105,_ZNSt12_Destroy_auxILb0EE9__destroyIPSt6vectorIiSaIiEEEEvT_S6_
FN:117,_ZNSt12_Destroy_auxILb1EE9__destroyIPiEEvT_S3_
FN:127,_ZSt8_DestroyIPiEvT_S1_
FN:127,_ZSt8_DestroyIPSt6vectorIiSaIiEEEvT_S4_
FN:203,_ZSt8_DestroyIPiiEvT_S1_RSaIT0_E
FN:203,_ZSt8_DestroyIPSt6vectorIiSaIiEES2_EvT_S4_RSaIT0_E
FNDA:0,_ZSt10_ConstructISt6vectorIiSaIiEEJRKS2_EEvPT_DpOT0_
FNDA:0,_ZSt8_DestroyISt6vectorIiSaIiEEEvPT_
FNDA:0,_ZNSt12_Destroy_auxILb0EE9__destroyIPSt6vectorIiSaIiEEEEvT_S6_
FNDA:0,_ZNSt12_Destroy_auxILb1EE9__destroyIPiEEvT_S3_
FNDA:0,_ZSt8_DestroyIPSt6vectorIiSaIiEEEvT_S4_
FNDA:0,_ZSt8_DestroyIPiEvT_S1_
FNDA:0,_ZSt8_DestroyIPSt6vectorIiSaIiEES2_EvT_S4_RSaIT0_E
FNDA:0,_ZSt8_DestroyIPiiEvT_S1_RSaIT0_E
FNF:8
FNH:0
DA:74,0
DA:75,0
DA:97,0
DA:98,0
DA:105,0
DA:107,0
DA:108,0
DA:109,0
DA:117,0
DA:127,0
DA:137,0
DA:138,0
DA:203,0
DA:206,0
DA:207,0
LF:15
LH:0
end_of_record
SF:/usr/include/c++/7/bits/stl_iterator.h
FN:782,_ZN9__gnu_cxx17__normal_iteratorIPKiSt6vectorIiSaIiEEEC2ERKS2_
FN:782,_ZN9__gnu_cxx17__normal_iteratorIPKSt6vectorIiSaIiEES1_IS3_SaIS3_EEEC2ERKS5_
FN:795,_ZNK9__gnu_cxx17__normal_iteratorIPKSt6vectorIiSaIiEES1_IS3_SaIS3_EEEdeEv
FN:803,_ZN9__gnu_cxx17__normal_iteratorIPKSt6vectorIiSaIiEES1_IS3_SaIS3_EEEppEv
FN:847,_ZNK9__gnu_cxx17__normal_iteratorIPKiSt6vectorIiSaIiEEE4baseEv
FN:847,_ZNK9__gnu_cxx17__normal_iteratorIPKSt6vectorIiSaIiEES1_IS3_SaIS3_EEE4baseEv
FN:883,_ZN9__gnu_cxxneIPKSt6vectorIiSaIiEES1_IS3_SaIS3_EEEEbRKNS_17__normal_iteratorIT_T0_EESD_
FN:986,_ZSt12__niter_baseIPKiSt6vectorIiSaIiEEET_N9__gnu_cxx17__normal_iteratorIS5_T0_EE
FNDA:0,_ZN9__gnu_cxx17__normal_iteratorIPKSt6vectorIiSaIiEES1_IS3_SaIS3_EEEC2ERKS5_
FNDA:0,_ZN9__gnu_cxx17__normal_iteratorIPKiSt6vectorIiSaIiEEEC2ERKS2_
FNDA:0,_ZNK9__gnu_cxx17__normal_iteratorIPKSt6vectorIiSaIiEES1_IS3_SaIS3_EEEdeEv
FNDA:0,_ZN9__gnu_cxx17__normal_iteratorIPKSt6vectorIiSaIiEES1_IS3_SaIS3_EEEppEv
FNDA:0,_ZNK9__gnu_cxx17__normal_iteratorIPKiSt6vectorIiSaIiEEE4baseEv
FNDA:0,_ZNK9__gnu_cxx17__normal_iteratorIPKSt6vectorIiSaIiEES1_IS3_SaIS3_EEE4baseEv
FNDA:0,_ZN9__gnu_cxxneIPKSt6vectorIiSaIiEES1_IS3_SaIS3_EEEEbRKNS_17__normal_iteratorIT_T0_EESD_
FNDA:0,_ZSt12__niter_baseIPKiSt6vectorIiSaIiEEET_N9__gnu_cxx17__normal_iteratorIS5_T0_EE
FNF:8
FNH:0
DA:782,0
DA:783,0
DA:795,0
DA:796,0
DA:803,0
DA:805,0
DA:806,0
DA:847,0
DA:848,0
DA:883,0
DA:886,0
DA:986,0
DA:987,0
LF:13
LH:0
end_of_record
SF:/usr/include/c++/7/bits/stl_iterator_base_funcs.h
FN:98,_ZSt10__distanceIPKiENSt15iterator_traitsIT_E15difference_typeES3_S3_St26random_access_iterator_tag
FN:98,_ZSt10__distanceIPKSt6vectorIiSaIiEEENSt15iterator_traitsIT_E15difference_typeES6_S6_St26random_access_iterator_tag
FN:138,_ZSt8distanceIPKSt6vectorIiSaIiEEENSt15iterator_traitsIT_E15difference_typeES6_S6_
FN:138,_ZSt8distanceIPKiENSt15iterator_traitsIT_E15difference_typeES3_S3_
FNDA:0,_ZSt10__distanceIPKSt6vectorIiSaIiEEENSt15iterator_traitsIT_E15difference_typeES6_S6_St26random_access_iterator_tag
FNDA:0,_ZSt10__distanceIPKiENSt15iterator_traitsIT_E15difference_typeES3_S3_St26random_access_iterator_tag
FNDA:0,_ZSt8distanceIPKSt6vectorIiSaIiEEENSt15iterator_traitsIT_E15difference_typeES6_S6_
FNDA:0,_ZSt8distanceIPKiENSt15iterator_traitsIT_E15difference_typeES3_S3_
FNF:4
FNH:0
DA:98,0
DA:104,0
DA:138,0
DA:141,0
DA:142,0
LF:5
LH:0
end_of_record
SF:/usr/include/c++/7/bits/stl_iterator_base_types.h
FN:205,_ZSt19__iterator_categoryIPKSt6vectorIiSaIiEEENSt15iterator_traitsIT_E17iterator_categoryERKS6_
FN:205,_ZSt19__iterator_categoryIPKiENSt15iterator_traitsIT_E17iterator_categoryERKS3_
FNDA:0,_ZSt19__iterator_categoryIPKSt6vectorIiSaIiEEENSt15iterator_traitsIT_E17iterator_categoryERKS6_
FNDA:0,_ZSt19__iterator_categoryIPKiENSt15iterator_traitsIT_E17iterator_categoryERKS3_
FNF:2
FNH:0
DA:205,0
DA:206,0
LF:2
LH:0
end_of_record
SF:/usr/include/c++/7/bits/stl_uninitialized.h
FN:76,_ZNSt20__uninitialized_copyILb0EE13__uninit_copyIN9__gnu_cxx17__normal_iteratorIPKSt6vectorIiSaIiEES4_IS6_SaIS6_EEEEPS6_EET0_T_SE_SD_
FN:76,_ZNSt20__uninitialized_copyILb0EE13__uninit_copyIPKSt6vectorIiSaIiEEPS4_EET0_T_S9_S8_
FN:99,_ZNSt20__uninitialized_copyILb1EE13__uninit_copyIN9__gnu_cxx17__normal_iteratorIPKiSt6vectorIiSaIiEEEEPiEET0_T_SC_SB_
FN:99,_ZNSt20__uninitialized_copyILb1EE13__uninit_copyIPKiPiEET0_T_S6_S5_
FN:115,_ZSt18uninitialized_copyIN9__gnu_cxx17__normal_iteratorIPKiSt6vectorIiSaIiEEEEPiET0_T_SA_S9_
FN:115,_ZSt18uninitialized_copyIPKSt6vectorIiSaIiEEPS2_ET0_T_S7_S6_
FN:115,_ZSt18uninitialized_copyIN9__gnu_cxx17__normal_iteratorIPKSt6vectorIiSaIiEES2_IS4_SaIS4_EEEEPS4_ET0_T_SC_SB_
FN:115,_ZSt18uninitialized_copyIPKiPiET0_T_S4_S3_
FN:287,_ZSt22__uninitialized_copy_aIPKSt6vectorIiSaIiEEPS2_S2_ET0_T_S7_S6_RSaIT1_E
FN:287,_ZSt22__uninitialized_copy_aIN9__gnu_cxx17__normal_iteratorIPKiSt6vectorIiSaIiEEEEPiiET0_T_SA_S9_RSaIT1_E
FN:287,_ZSt22__uninitialized_copy_aIN9__gnu_cxx17__normal_iteratorIPKSt6vectorIiSaIiEES2_IS4_SaIS4_EEEEPS4_S4_ET0_T_SC_SB_RSaIT1_E
FN:287,_ZSt22__uninitialized_copy_aIPKiPiiET0_T_S4_S3_RSaIT1_E
FNDA:0,_ZNSt20__uninitialized_copyILb0EE13__uninit_copyIPKSt6vectorIiSaIiEEPS4_EET0_T_S9_S8_
FNDA:0,_ZNSt20__uninitialized_copyILb0EE13__uninit_copyIN9__gnu_cxx17__normal_iteratorIPKSt6vectorIiSaIiEES4_IS6_SaIS6_EEEEPS6_EET0_T_SE_SD_
FNDA:0,_ZNSt20__uninitialized_copyILb1EE13__uninit_copyIPKiPiEET0_T_S6_S5_
FNDA:0,_ZNSt20__uninitialized_copyILb1EE13__uninit_copyIN9__gnu_cxx17__normal_iteratorIPKiSt6vectorIiSaIiEEEEPiEET0_T_SC_SB_
FNDA:0,_ZSt18uninitialized_copyIPKSt6vectorIiSaIiEEPS2_ET0_T_S7_S6_
FNDA:0,_ZSt18uninitialized_copyIPKiPiET0_T_S4_S3_
FNDA:0,_ZSt18uninitialized_copyIN9__gnu_cxx17__normal_iteratorIPKSt6vectorIiSaIiEES2_IS4_SaIS4_EEEEPS4_ET0_T_SC_SB_
FNDA:0,_ZSt18uninitialized_copyIN9__gnu_cxx17__normal_iteratorIPKiSt6vectorIiSaIiEEEEPiET0_T_SA_S9_
FNDA:0,_ZSt22__uninitialized_copy_aIPKSt6vectorIiSaIiEEPS2_S2_ET0_T_S7_S6_RSaIT1_E
FNDA:0,_ZSt22__uninitialized_copy_aIPKiPiiET0_T_S4_S3_RSaIT1_E
FNDA:0,_ZSt22__uninitialized_copy_aIN9__gnu_cxx17__normal_iteratorIPKSt6vectorIiSaIiEES2_IS4_SaIS4_EEEEPS4_S4_ET0_T_SC_SB_RSaIT1_E
FNDA:0,_ZSt22__uninitialized_copy_aIN9__gnu_cxx17__normal_iteratorIPKiSt6vectorIiSaIiEEEEPiiET0_T_SA_S9_RSaIT1_E
FNF:12
FNH:0
DA:76,0
DA:79,0
DA:82,0
DA:83,0
DA:84,0
DA:86,0
DA:88,0
DA:89,0
DA:99,0
DA:101,0
DA:115,0
DA:128,0
DA:134,0
DA:287,0
DA:289,0
LF:15
LH:0
end_of_record
SF:/usr/include/c++/7/bits/stl_vector.h
FN:81,_ZNSt12_Vector_baseIiSaIiEE12_Vector_implD2Ev
FN:81,_ZNSt12_Vector_baseISt6vectorIiSaIiEESaIS2_EE12_Vector_implD2Ev
FN:92,_ZNSt12_Vector_baseISt6vectorIiSaIiEESaIS2_EE12_Vector_implC2ERKS3_
FN:92,_ZNSt12_Vector_baseIiSaIiEE12_Vector_implC2ERKS0_
FN:115,_ZNSt12_Vector_baseIiSaIiEE19_M_get_Tp_allocatorEv
FN:115,_ZNSt12_Vector_baseISt6vectorIiSaIiEESaIS2_EE19_M_get_Tp_allocatorEv
FN:119,_ZNKSt12_Vector_baseIiSaIiEE19_M_get_Tp_allocatorEv
FN:119,_ZNKSt12_Vector_baseISt6vectorIiSaIiEESaIS2_EE19_M_get_Tp_allocatorEv
FN:129,_ZNSt12_Vector_baseISt6vectorIiSaIiEESaIS2_EEC2ERKS3_
FN:129,_ZNSt12_Vector_baseIiSaIiEEC2ERKS0_
FN:136,_ZNSt12_Vector_baseISt6vectorIiSaIiEESaIS2_EEC2EmRKS3_
FN:136,_ZNSt12_Vector_baseIiSaIiEEC2EmRKS0_
FN:161,_ZNSt12_Vector_baseISt6vectorIiSaIiEESaIS2_EED2Ev
FN:161,_ZNSt12_Vector_baseIiSaIiEED2Ev
FN:169,_ZNSt12_Vector_baseIiSaIiEE11_M_allocateEm
FN:169,_ZNSt12_Vector_baseISt6vectorIiSaIiEESaIS2_EE11_M_allocateEm
FN:176,_ZNSt12_Vector_baseISt6vectorIiSaIiEESaIS2_EE13_M_deallocateEPS2_m
FN:176,_ZNSt12_Vector_baseIiSaIiEE13_M_deallocateEPim
FN:185,_ZNSt12_Vector_baseIiSaIiEE17_M_create_storageEm
FN:185,_ZNSt12_Vector_baseISt6vectorIiSaIiEESaIS2_EE17_M_create_storageEm
FN:326,_ZNSt6vectorIiSaIiEEC2ERKS1_
FN:326,_ZNSt6vectorIS_IiSaIiEESaIS1_EEC2ERKS3_
FN:383,_ZNSt6vectorIiSaIiEEC2ESt16initializer_listIiERKS0_
FN:383,_ZNSt6vectorIS_IiSaIiEESaIS1_EEC2ESt16initializer_listIS1_ERKS2_
FN:433,_ZNSt6vectorIiSaIiEED2Ev
FN:433,_ZNSt6vectorIS_IiSaIiEESaIS1_EED2Ev
FN:572,_ZNKSt6vectorIS_IiSaIiEESaIS1_EE5beginEv
FN:572,_ZNKSt6vectorIiSaIiEE5beginEv
FN:590,_ZNKSt6vectorIiSaIiEE3endEv
FN:590,_ZNKSt6vectorIS_IiSaIiEESaIS1_EE3endEv
FN:670,_ZNKSt6vectorIS_IiSaIiEESaIS1_EE4sizeEv
FN:670,_ZNKSt6vectorIiSaIiEE4sizeEv
FN:1324,_ZNSt6vectorIS_IiSaIiEESaIS1_EE19_M_range_initializeIPKS1_EEvT_S7_St20forward_iterator_tag
FN:1324,_ZNSt6vectorIiSaIiEE19_M_range_initializeIPKiEEvT_S5_St20forward_iterator_tag
FNDA:0,_ZNSt12_Vector_baseISt6vectorIiSaIiEESaIS2_EE12_Vector_implD2Ev
FNDA:0,_ZNSt12_Vector_baseIiSaIiEE12_Vector_implD2Ev
FNDA:0,_ZNSt12_Vector_baseISt6vectorIiSaIiEESaIS2_EE12_Vector_implC2ERKS3_
FNDA:0,_ZNSt12_Vector_baseIiSaIiEE12_Vector_implC2ERKS0_
FNDA:0,_ZNSt12_Vector_baseISt6vectorIiSaIiEESaIS2_EE19_M_get_Tp_allocatorEv
FNDA:0,_ZNSt12_Vector_baseIiSaIiEE19_M_get_Tp_allocatorEv
FNDA:0,_ZNKSt12_Vector_baseISt6vectorIiSaIiEESaIS2_EE19_M_get_Tp_allocatorEv
FNDA:0,_ZNKSt12_Vector_baseIiSaIiEE19_M_get_Tp_allocatorEv
FNDA:0,_ZNSt12_Vector_baseISt6vectorIiSaIiEESaIS2_EEC2ERKS3_
FNDA:0,_ZNSt12_Vector_baseIiSaIiEEC2ERKS0_
FNDA:0,_ZNSt12_Vector_baseISt6vectorIiSaIiEESaIS2_EEC2EmRKS3_
FNDA:0,_ZNSt12_Vector_baseIiSaIiEEC2EmRKS0_
FNDA:0,_ZNSt12_Vector_baseISt6vectorIiSaIiEESaIS2_EED2Ev
FNDA:0,_ZNSt12_Vector_baseIiSaIiEED2Ev
FNDA:0,_ZNSt12_Vector_baseISt6vectorIiSaIiEESaIS2_EE11_M_allocateEm
FNDA:0,_ZNSt12_Vector_baseIiSaIiEE11_M_allocateEm
FNDA:0,_ZNSt12_Vector_baseISt6vectorIiSaIiEESaIS2_EE13_M_deallocateEPS2_m
FNDA:0,_ZNSt12_Vector_baseIiSaIiEE13_M_deallocateEPim
FNDA:0,_ZNSt12_Vector_baseISt6vectorIiSaIiEESaIS2_EE17_M_create_storageEm
FNDA:0,_ZNSt12_Vector_baseIiSaIiEE17_M_create_storageEm
FNDA:0,_ZNSt6vectorIS_IiSaIiEESaIS1_EEC2ERKS3_
FNDA:0,_ZNSt6vectorIiSaIiEEC2ERKS1_
FNDA:0,_ZNSt6vectorIS_IiSaIiEESaIS1_EEC2ESt16initializer_listIS1_ERKS2_
FNDA:0,_ZNSt6vectorIiSaIiEEC2ESt16initializer_listIiERKS0_
FNDA:0,_ZNSt6vectorIS_IiSaIiEESaIS1_EED2Ev
FNDA:0,_ZNSt6vectorIiSaIiEED2Ev
FNDA:0,_ZNKSt6vectorIS_IiSaIiEESaIS1_EE5beginEv
FNDA:0,_ZNKSt6vectorIiSaIiEE5beginEv
FNDA:0,_ZNKSt6vectorIS_IiSaIiEESaIS1_EE3endEv
FNDA:0,_ZNKSt6vectorIiSaIiEE3endEv
FNDA:0,_ZNKSt6vectorIS_IiSaIiEESaIS1_EE4sizeEv
FNDA:0,_ZNKSt6vectorIiSaIiEE4sizeEv
FNDA:0,_ZNSt6vectorIS_IiSaIiEESaIS1_EE19_M_range_initializeIPKS1_EEvT_S7_St20forward_iterator_tag
FNDA:0,_ZNSt6vectorIiSaIiEE19_M_range_initializeIPKiEEvT_S5_St20forward_iterator_tag
FNF:34
FNH:0
DA:81,0
DA:92,0
DA:93,0
DA:94,0
DA:115,0
DA:116,0
DA:119,0
DA:120,0
DA:129,0
DA:130,0
DA:136,0
DA:137,0
DA:138,0
DA:161,0
DA:162,0
DA:163,0
DA:169,0
DA:172,0
DA:176,0
DA:179,0
DA:180,0
DA:181,0
DA:185,0
DA:187,0
DA:188,0
DA:189,0
DA:190,0
DA:326,0
DA:328,0
DA:330,0
DA:331,0
DA:333,0
DA:334,0
DA:383,0
DA:385,0
DA:387,0
DA:389,0
DA:433,0
DA:434,0
DA:435,0
DA:572,0
DA:573,0
DA:590,0
DA:591,0
DA:670,0
DA:671,0
DA:1324,0
DA:1327,0
DA:1328,0
DA:1329,0
DA:1330,0
DA:1331,0
DA:1333,0
DA:1334,0
LF:54
LH:0
end_of_record
SF:/usr/include/c++/7/bits/unique_ptr.h
FN:72,_ZNKSt14default_deleteINSt7__cxx1118basic_stringstreamIcSt11char_traitsIcESaIcEEEEclEPS5_
FN:72,_ZNKSt14default_deleteINSt7__cxx1112basic_stringIcSt11char_traitsIcESaIcEEEEclEPS5_
FN:139,_ZNSt15__uniq_ptr_implINSt7__cxx1112basic_stringIcSt11char_traitsIcESaIcEEESt14default_deleteIS5_EEC2Ev
FN:146,_ZNSt15__uniq_ptr_implINSt7__cxx1118basic_stringstreamIcSt11char_traitsIcESaIcEEESt14default_deleteIS5_EE6_M_ptrEv
FN:146,_ZNSt15__uniq_ptr_implINSt7__cxx1112basic_stringIcSt11char_traitsIcESaIcEEESt14default_deleteIS5_EE6_M_ptrEv
FN:148,_ZNSt15__uniq_ptr_implINSt7__cxx1112basic_stringIcSt11char_traitsIcESaIcEEESt14default_deleteIS5_EE10_M_deleterEv
FN:148,_ZNSt15__uniq_ptr_implINSt7__cxx1118basic_stringstreamIcSt11char_traitsIcESaIcEEESt14default_deleteIS5_EE10_M_deleterEv
FN:188,_ZNSt10unique_ptrINSt7__cxx1112basic_stringIcSt11char_traitsIcESaIcEEESt14default_deleteIS5_EEC2IS7_vEEv
FN:264,_ZNSt10unique_ptrINSt7__cxx1118basic_stringstreamIcSt11char_traitsIcESaIcEEESt14default_deleteIS5_EED2Ev
FN:264,_ZNSt10unique_ptrINSt7__cxx1112basic_stringIcSt11char_traitsIcESaIcEEESt14default_deleteIS5_EED2Ev
FN:341,_ZNSt10unique_ptrINSt7__cxx1112basic_stringIcSt11char_traitsIcESaIcEEESt14default_deleteIS5_EE11get_deleterEv
FN:341,_ZNSt10unique_ptrINSt7__cxx1118basic_stringstreamIcSt11char_traitsIcESaIcEEESt14default_deleteIS5_EE11get_deleterEv
FNDA:0,_ZNKSt14default_deleteINSt7__cxx1112basic_stringIcSt11char_traitsIcESaIcEEEEclEPS5_
FNDA:0,_ZNKSt14default_deleteINSt7__cxx1118basic_stringstreamIcSt11char_traitsIcESaIcEEEEclEPS5_
FNDA:0,_ZNSt15__uniq_ptr_implINSt7__cxx1112basic_stringIcSt11char_traitsIcESaIcEEESt14default_deleteIS5_EEC2Ev
FNDA:0,_ZNSt15__uniq_ptr_implINSt7__cxx1112basic_stringIcSt11char_traitsIcESaIcEEESt14default_deleteIS5_EE6_M_ptrEv
FNDA:0,_ZNSt15__uniq_ptr_implINSt7__cxx1118basic_stringstreamIcSt11char_traitsIcESaIcEEESt14default_deleteIS5_EE6_M_ptrEv
FNDA:0,_ZNSt15__uniq_ptr_implINSt7__cxx1112basic_stringIcSt11char_traitsIcESaIcEEESt14default_deleteIS5_EE10_M_deleterEv
FNDA:0,_ZNSt15__uniq_ptr_implINSt7__cxx1118basic_stringstreamIcSt11char_traitsIcESaIcEEESt14default_deleteIS5_EE10_M_deleterEv
FNDA:0,_ZNSt10unique_ptrINSt7__cxx1112basic_stringIcSt11char_traitsIcESaIcEEESt14default_deleteIS5_EEC2IS7_vEEv
FNDA:0,_ZNSt10unique_ptrINSt7__cxx1112basic_stringIcSt11char_traitsIcESaIcEEESt14default_deleteIS5_EED2Ev
FNDA:0,_ZNSt10unique_ptrINSt7__cxx1118basic_stringstreamIcSt11char_traitsIcESaIcEEESt14default_deleteIS5_EED2Ev
FNDA:0,_ZNSt10unique_ptrINSt7__cxx1112basic_stringIcSt11char_traitsIcESaIcEEESt14default_deleteIS5_EE11get_deleterEv
FNDA:0,_ZNSt10unique_ptrINSt7__cxx1118basic_stringstreamIcSt11char_traitsIcESaIcEEESt14default_deleteIS5_EE11get_deleterEv
FNF:12
FNH:0
DA:72,0
DA:78,0
DA:79,0
DA:139,0
DA:146,0
DA:148,0
DA:188,0
DA:189,0
DA:190,0
DA:264,0
DA:266,0
DA:267,0
DA:268,0
DA:269,0
DA:270,0
DA:341,0
DA:342,0
LF:17
LH:0
end_of_record
SF:/usr/include/c++/7/ext/alloc_traits.h
FN:94,_ZN9__gnu_cxx14__alloc_traitsISaIiEE17_S_select_on_copyERKS1_
FN:94,_ZN9__gnu_cxx14__alloc_traitsISaISt6vectorIiSaIiEEEE17_S_select_on_copyERKS4_
FNDA:0,_ZN9__gnu_cxx14__alloc_traitsISaISt6vectorIiSaIiEEEE17_S_select_on_copyERKS4_
FNDA:0,_ZN9__gnu_cxx14__alloc_traitsISaIiEE17_S_select_on_copyERKS1_
FNF:2
FNH:0
DA:94,0
DA:95,0
LF:2
LH:0
end_of_record
SF:/usr/include/c++/7/ext/new_allocator.h
FN:79,_ZN9__gnu_cxx13new_allocatorIiEC2Ev
FN:79,_ZN9__gnu_cxx13new_allocatorISt6vectorIiSaIiEEEC2Ev
FN:81,_ZN9__gnu_cxx13new_allocatorISt6vectorIiSaIiEEEC2ERKS4_
FN:81,_ZN9__gnu_cxx13new_allocatorIiEC2ERKS1_
FN:86,_ZN9__gnu_cxx13new_allocatorIiED2Ev
FN:86,_ZN9__gnu_cxx13new_allocatorISt6vectorIiSaIiEEED2Ev
FN:99,_ZN9__gnu_cxx13new_allocatorIiE8allocateEmPKv
FN:99,_ZN9__gnu_cxx13new_allocatorISt6vectorIiSaIiEEE8allocateEmPKv
FN:116,_ZN9__gnu_cxx13new_allocatorIiE10deallocateEPim
FN:116,_ZN9__gnu_cxx13new_allocatorISt6vectorIiSaIiEEE10deallocateEPS3_m
FN:129,_ZNK9__gnu_cxx13new_allocatorIiE8max_sizeEv
FN:129,_ZNK9__gnu_cxx13new_allocatorISt6vectorIiSaIiEEE8max_sizeEv
FNDA:0,_ZN9__gnu_cxx13new_allocatorISt6vectorIiSaIiEEEC2Ev
FNDA:0,_ZN9__gnu_cxx13new_allocatorIiEC2Ev
FNDA:0,_ZN9__gnu_cxx13new_allocatorISt6vectorIiSaIiEEEC2ERKS4_
FNDA:0,_ZN9__gnu_cxx13new_allocatorIiEC2ERKS1_
FNDA:0,_ZN9__gnu_cxx13new_allocatorISt6vectorIiSaIiEEED2Ev
FNDA:0,_ZN9__gnu_cxx13new_allocatorIiED2Ev
FNDA:0,_ZN9__gnu_cxx13new_allocatorISt6vectorIiSaIiEEE8allocateEmPKv
FNDA:0,_ZN9__gnu_cxx13new_allocatorIiE8allocateEmPKv
FNDA:0,_ZN9__gnu_cxx13new_allocatorISt6vectorIiSaIiEEE10deallocateEPS3_m
FNDA:0,_ZN9__gnu_cxx13new_allocatorIiE10deallocateEPim
FNDA:0,_ZNK9__gnu_cxx13new_allocatorISt6vectorIiSaIiEEE8max_sizeEv
FNDA:0,_ZNK9__gnu_cxx13new_allocatorIiE8max_sizeEv
FNF:12
FNH:0
DA:79,0
DA:81,0
DA:86,0
DA:99,0
DA:101,0
DA:102,0
DA:111,0
DA:116,0
DA:125,0
DA:126,0
DA:129,0
DA:130,0
LF:12
LH:0
end_of_record
SF:/usr/include/c++/7/initializer_list
FN:71,_ZNKSt16initializer_listISt6vectorIiSaIiEEE4sizeEv
FN:71,_ZNKSt16initializer_listIiE4sizeEv
FN:75,_ZNKSt16initializer_listISt6vectorIiSaIiEEE5beginEv
FN:75,_ZNKSt16initializer_listIiE5beginEv
FN:79,_ZNKSt16initializer_listISt6vectorIiSaIiEEE3endEv
FN:79,_ZNKSt16initializer_listIiE3endEv
FNDA:0,_ZNKSt16initializer_listISt6vectorIiSaIiEEE4sizeEv
FNDA:0,_ZNKSt16initializer_listIiE4sizeEv
FNDA:0,_ZNKSt16initializer_listISt6vectorIiSaIiEEE5beginEv
FNDA:0,_ZNKSt16initializer_listIiE5beginEv
FNDA:0,_ZNKSt16initializer_listISt6vectorIiSaIiEEE3endEv
FNDA:0,_ZNKSt16initializer_listIiE3endEv
FNF:6
FNH:0
DA:71,0
DA:75,0
DA:79,0
LF:3
LH:0
end_of_record
SF:/usr/include/c++/7/iostream
DA:74,5
LF:1
LH:1
end_of_record
SF:/usr/include/c++/7/new
FN:168,_ZnwmPv
FN:174,_ZdlPvS_
FNDA:0,_ZnwmPv
FNDA:0,_ZdlPvS_
FNF:2
FNH:0
DA:168,0
DA:169,0
DA:174,0
LF:3
LH:0
end_of_record
SF:/usr/include/c++/7/tuple
FN:76,_ZNSt10_Head_baseILm1ESt14default_deleteINSt7__cxx1112basic_stringIcSt11char_traitsIcESaIcEEEELb1EEC2Ev
FN:113,_ZNSt10_Head_baseILm1ESt14default_deleteINSt7__cxx1118basic_stringstreamIcSt11char_traitsIcESaIcEEEELb1EE7_M_headERS8_
FN:113,_ZNSt10_Head_baseILm1ESt14default_deleteINSt7__cxx1112basic_stringIcSt11char_traitsIcESaIcEEEELb1EE7_M_headERS8_
FN:122,_ZNSt10_Head_baseILm0EPNSt7__cxx1112basic_stringIcSt11char_traitsIcESaIcEEELb0EEC2Ev
FN:160,_ZNSt10_Head_baseILm0EPNSt7__cxx1118basic_stringstreamIcSt11char_traitsIcESaIcEEELb0EE7_M_headERS7_
FN:160,_ZNSt10_Head_baseILm0EPNSt7__cxx1112basic_stringIcSt11char_traitsIcESaIcEEELb0EE7_M_headERS7_
FN:195,_ZNSt11_Tuple_implILm0EJPNSt7__cxx1112basic_stringIcSt11char_traitsIcESaIcEEESt14default_deleteIS5_EEE7_M_headERS9_
FN:195,_ZNSt11_Tuple_implILm0EJPNSt7__cxx1118basic_stringstreamIcSt11char_traitsIcESaIcEEESt14default_deleteIS5_EEE7_M_headERS9_
FN:206,_ZNSt11_Tuple_implILm0EJPNSt7__cxx1112basic_stringIcSt11char_traitsIcESaIcEEESt14default_deleteIS5_EEEC2Ev
FN:351,_ZNSt11_Tuple_implILm1EJSt14default_deleteINSt7__cxx1118basic_stringstreamIcSt11char_traitsIcESaIcEEEEEE7_M_headERS8_
FN:351,_ZNSt11_Tuple_implILm1EJSt14default_deleteINSt7__cxx1112basic_stringIcSt11char_traitsIcESaIcEEEEEE7_M_headERS8_
FN:356,_ZNSt11_Tuple_implILm1EJSt14default_deleteINSt7__cxx1112basic_stringIcSt11char_traitsIcESaIcEEEEEEC2Ev
FN:919,_ZNSt5tupleIJPNSt7__cxx1112basic_stringIcSt11char_traitsIcESaIcEEESt14default_deleteIS5_EEEC2IS6_S8_Lb1EEEv
FN:1303,_ZSt12__get_helperILm0EPNSt7__cxx1112basic_stringIcSt11char_traitsIcESaIcEEEJSt14default_deleteIS5_EEERT0_RSt11_Tuple_implIXT_EJS9_DpT1_EE
FN:1303,_ZSt12__get_helperILm1ESt14default_deleteINSt7__cxx1118basic_stringstreamIcSt11char_traitsIcESaIcEEEEJEERT0_RSt11_Tuple_implIXT_EJS8_DpT1_EE
FN:1303,_ZSt12__get_helperILm1ESt14default_deleteINSt7__cxx1112basic_stringIcSt11char_traitsIcESaIcEEEEJEERT0_RSt11_Tuple_implIXT_EJS8_DpT1_EE
FN:1303,_ZSt12__get_helperILm0EPNSt7__cxx1118basic_stringstreamIcSt11char_traitsIcESaIcEEEJSt14default_deleteIS5_EEERT0_RSt11_Tuple_implIXT_EJS9_DpT1_EE
FN:1314,_ZSt3getILm0EJPNSt7__cxx1112basic_stringIcSt11char_traitsIcESaIcEEESt14default_deleteIS5_EEERNSt13tuple_elementIXT_ESt5tupleIJDpT0_EEE4typeERSD_
FN:1314,_ZSt3getILm0EJPNSt7__cxx1118basic_stringstreamIcSt11char_traitsIcESaIcEEESt14default_deleteIS5_EEERNSt13tuple_elementIXT_ESt5tupleIJDpT0_EEE4typeERSD_
FN:1314,_ZSt3getILm1EJPNSt7__cxx1118basic_stringstreamIcSt11char_traitsIcESaIcEEESt14default_deleteIS5_EEERNSt13tuple_elementIXT_ESt5tupleIJDpT0_EEE4typeERSD_
FN:1314,_ZSt3getILm1EJPNSt7__cxx1112basic_stringIcSt11char_traitsIcESaIcEEESt14default_deleteIS5_EEERNSt13tuple_elementIXT_ESt5tupleIJDpT0_EEE4typeERSD_
FNDA:0,_ZNSt10_Head_baseILm1ESt14default_deleteINSt7__cxx1112basic_stringIcSt11char_traitsIcESaIcEEEELb1EEC2Ev
FNDA:0,_ZNSt10_Head_baseILm1ESt14default_deleteINSt7__cxx1112basic_stringIcSt11char_traitsIcESaIcEEEELb1EE7_M_headERS8_
FNDA:0,_ZNSt10_Head_baseILm1ESt14default_deleteINSt7__cxx1118basic_stringstreamIcSt11char_traitsIcESaIcEEEELb1EE7_M_headERS8_
FNDA:0,_ZNSt10_Head_baseILm0EPNSt7__cxx1112basic_stringIcSt11char_traitsIcESaIcEEELb0EEC2Ev
FNDA:0,_ZNSt10_Head_baseILm0EPNSt7__cxx1112basic_stringIcSt11char_traitsIcESaIcEEELb0EE7_M_headERS7_
FNDA:0,_ZNSt10_Head_baseILm0EPNSt7__cxx1118basic_stringstreamIcSt11char_traitsIcESaIcEEELb0EE7_M_headERS7_
FNDA:0,_ZNSt11_Tuple_implILm0EJPNSt7__cxx1112basic_stringIcSt11char_traitsIcESaIcEEESt14default_deleteIS5_EEE7_M_headERS9_
FNDA:0,_ZNSt11_Tuple_implILm0EJPNSt7__cxx1118basic_stringstreamIcSt11char_traitsIcESaIcEEESt14default_deleteIS5_EEE7_M_headERS9_
FNDA:0,_ZNSt11_Tuple_implILm0EJPNSt7__cxx1112basic_stringIcSt11char_traitsIcESaIcEEESt14default_deleteIS5_EEEC2Ev
FNDA:0,_ZNSt11_Tuple_implILm1EJSt14default_deleteINSt7__cxx1112basic_stringIcSt11char_traitsIcESaIcEEEEEE7_M_headERS8_
FNDA:0,_ZNSt11_Tuple_implILm1EJSt14default_deleteINSt7__cxx1118basic_stringstreamIcSt11char_traitsIcESaIcEEEEEE7_M_headERS8_
FNDA:0,_ZNSt11_Tuple_implILm1EJSt14default_deleteINSt7__cxx1112basic_stringIcSt11char_traitsIcESaIcEEEEEEC2Ev
FNDA:0,_ZNSt5tupleIJPNSt7__cxx1112basic_stringIcSt11char_traitsIcESaIcEEESt14default_deleteIS5_EEEC2IS6_S8_Lb1EEEv
FNDA:0,_ZSt12__get_helperILm1ESt14default_deleteINSt7__cxx1112basic_stringIcSt11char_traitsIcESaIcEEEEJEERT0_RSt11_Tuple_implIXT_EJS8_DpT1_EE
FNDA:0,_ZSt12__get_helperILm1ESt14default_deleteINSt7__cxx1118basic_stringstreamIcSt11char_traitsIcESaIcEEEEJEERT0_RSt11_Tuple_implIXT_EJS8_DpT1_EE
FNDA:0,_ZSt12__get_helperILm0EPNSt7__cxx1112basic_stringIcSt11char_traitsIcESaIcEEEJSt14default_deleteIS5_EEERT0_RSt11_Tuple_implIXT_EJS9_DpT1_EE
FNDA:0,_ZSt12__get_helperILm0EPNSt7__cxx1118basic_stringstreamIcSt11char_traitsIcESaIcEEEJSt14default_deleteIS5_EEERT0_RSt11_Tuple_implIXT_EJS9_DpT1_EE
FNDA:0,_ZSt3getILm1EJPNSt7__cxx1112basic_stringIcSt11char_traitsIcESaIcEEESt14default_deleteIS5_EEERNSt13tuple_elementIXT_ESt5tupleIJDpT0_EEE4typeERSD_
FNDA:0,_ZSt3getILm1EJPNSt7__cxx1118basic_stringstreamIcSt11char_traitsIcESaIcEEESt14default_deleteIS5_EEERNSt13tuple_elementIXT_ESt5tupleIJDpT0_EEE4typeERSD_
FNDA:0,_ZSt3getILm0EJPNSt7__cxx1112basic_stringIcSt11char_traitsIcESaIcEEESt14default_deleteIS5_EEERNSt13tuple_elementIXT_ESt5tupleIJDpT0_EEE4typeERSD_
FNDA:0,_ZSt3getILm0EJPNSt7__cxx1118basic_stringstreamIcSt11char_traitsIcESaIcEEESt14default_deleteIS5_EEERNSt13tuple_elementIXT_ESt5tupleIJDpT0_EEE4typeERSD_
FNF:21
FNH:0
DA:76,0
DA:77,0
DA:113,0
DA:122,0
DA:123,0
DA:160,0
DA:195,0
DA:206,0
DA:207,0
DA:351,0
DA:356,0
DA:357,0
DA:919,0
DA:920,0
DA:1303,0
DA:1304,0
DA:1314,0
DA:1315,0
LF:18
LH:0
end_of_record
TN:
SF:/home/fyulita/Desktop/tpi/algo1-TPI/auxiliares-tests/ej3TEST.cpp
FN:6,_ZN49imagenApagadaTest_regionesDeUnPixel_EnAdy4_1_TestD2Ev
FN:6,_ZN49imagenApagadaTest_regionesDeUnPixel_EnAdy4_1_Test8TestBodyEv
FN:6,_ZN49imagenApagadaTest_regionesDeUnPixel_EnAdy4_1_TestC2Ev
FN:6,_ZN49imagenApagadaTest_regionesDeUnPixel_EnAdy4_1_TestD0Ev
FN:11,_ZN49imagenApagadaTest_regionesDeUnPixel_EnAdy4_2_TestD2Ev
FN:11,_ZN49imagenApagadaTest_regionesDeUnPixel_EnAdy4_2_TestD0Ev
FN:11,_ZN49imagenApagadaTest_regionesDeUnPixel_EnAdy4_2_TestC2Ev
FN:11,_ZN49imagenApagadaTest_regionesDeUnPixel_EnAdy4_2_Test8TestBodyEv
FN:16,_ZN49imagenApagadaTest_regionesDeUnPixel_EnAdy4_3_Test8TestBodyEv
FN:16,_ZN49imagenApagadaTest_regionesDeUnPixel_EnAdy4_3_TestC2Ev
FN:16,_ZN49imagenApagadaTest_regionesDeUnPixel_EnAdy4_3_TestD2Ev
FN:16,_ZN49imagenApagadaTest_regionesDeUnPixel_EnAdy4_3_TestD0Ev
FN:21,_ZN43imagenApagadaTest_MatrizActivaEnAdy4_3_TestC2Ev
FN:21,_ZN43imagenApagadaTest_MatrizActivaEnAdy4_3_TestD0Ev
FN:21,_ZN43imagenApagadaTest_MatrizActivaEnAdy4_3_TestD2Ev
FN:21,_ZN43imagenApagadaTest_MatrizActivaEnAdy4_3_Test8TestBodyEv
FN:26,_ZN47hacerRegionTest_regionesDeUnPixel_EnAdy4_1_Test8TestBodyEv
FN:26,_ZN47hacerRegionTest_regionesDeUnPixel_EnAdy4_1_TestD0Ev
FN:26,_ZN47hacerRegionTest_regionesDeUnPixel_EnAdy4_1_TestD2Ev
FN:26,_ZN47hacerRegionTest_regionesDeUnPixel_EnAdy4_1_TestC2Ev
FN:33,_ZN41hacerRegionTest_regionEnteraEnAdy4_3_TestD0Ev
FN:33,_ZN41hacerRegionTest_regionEnteraEnAdy4_3_TestD2Ev
FN:33,_ZN41hacerRegionTest_regionEnteraEnAdy4_3_Test8TestBodyEv
FN:33,_ZN41hacerRegionTest_regionEnteraEnAdy4_3_TestC2Ev
FN:40,_ZN41hacerRegionTest_regionEnteraEnAdy8_3_TestC2Ev
FN:40,_ZN41hacerRegionTest_regionEnteraEnAdy8_3_Test8TestBodyEv
FN:40,_ZN41hacerRegionTest_regionEnteraEnAdy8_3_TestD0Ev
FN:40,_ZN41hacerRegionTest_regionEnteraEnAdy8_3_TestD2Ev
FN:47,_ZN44regionesTest_regionesDeUnPixel_EnAdy4_1_TestD2Ev
FN:47,_ZN44regionesTest_regionesDeUnPixel_EnAdy4_1_Test8TestBodyEv
FN:47,_ZN44regionesTest_regionesDeUnPixel_EnAdy4_1_TestC2Ev
FN:47,_ZN44regionesTest_regionesDeUnPixel_EnAdy4_1_TestD0Ev
FN:53,_ZN38regionesTest_regionEnteraEnAdy8_3_TestD2Ev
FN:53,_ZN38regionesTest_regionEnteraEnAdy8_3_TestD0Ev
FN:53,_ZN38regionesTest_regionEnteraEnAdy8_3_TestC2Ev
FN:53,_ZN38regionesTest_regionEnteraEnAdy8_3_Test8TestBodyEv
FN:59,_ZN41regionesTest_promedioDecimalEnAdy4_2_TestD2Ev
FN:59,_ZN41regionesTest_promedioDecimalEnAdy4_2_TestC2Ev
FN:59,_ZN41regionesTest_promedioDecimalEnAdy4_2_Test8TestBodyEv
FN:59,_ZN41regionesTest_promedioDecimalEnAdy4_2_TestD0Ev
FN:65,_ZN49promedioAreasTest_regionesDeUnPixel_EnAdy4_1_TestC2Ev
FN:65,_ZN49promedioAreasTest_regionesDeUnPixel_EnAdy4_1_TestD2Ev
FN:65,_ZN49promedioAreasTest_regionesDeUnPixel_EnAdy4_1_TestD0Ev
FN:65,_ZN49promedioAreasTest_regionesDeUnPixel_EnAdy4_1_Test8TestBodyEv
FN:71,_ZN42contenidoSqPixelTest_secuenciaVacia_1_TestC2Ev
FN:71,_ZN42contenidoSqPixelTest_secuenciaVacia_1_Test8TestBodyEv
FN:71,_ZN42contenidoSqPixelTest_secuenciaVacia_1_TestD2Ev
FN:71,_ZN42contenidoSqPixelTest_secuenciaVacia_1_TestD0Ev
FN:77,_ZN42contenidoSqPixelTest_secuenciaVacia_2_Test8TestBodyEv
FN:77,_ZN42contenidoSqPixelTest_secuenciaVacia_2_TestD0Ev
FN:77,_ZN42contenidoSqPixelTest_secuenciaVacia_2_TestD2Ev
FN:77,_ZN42contenidoSqPixelTest_secuenciaVacia_2_TestC2Ev
FN:83,_ZN42contenidoSqPixelTest_secuenciaVacia_3_TestD0Ev
FN:83,_ZN42contenidoSqPixelTest_secuenciaVacia_3_TestD2Ev
FN:83,_ZN42contenidoSqPixelTest_secuenciaVacia_3_TestC2Ev
FN:83,_ZN42contenidoSqPixelTest_secuenciaVacia_3_Test8TestBodyEv
FN:89,_ZN39contenidoSqPixelTest_dosSecuencias_TestD0Ev
FN:89,_ZN39contenidoSqPixelTest_dosSecuencias_TestD2Ev
FN:89,_ZN39contenidoSqPixelTest_dosSecuencias_Test8TestBodyEv
FN:89,_ZN39contenidoSqPixelTest_dosSecuencias_TestC2Ev
FN:93,_GLOBAL__sub_I_abs_err
FN:93,_Z41__static_initialization_and_destruction_0ii
FNDA:2,_ZN49imagenApagadaTest_regionesDeUnPixel_EnAdy4_1_TestD0Ev
FNDA:2,_ZN49imagenApagadaTest_regionesDeUnPixel_EnAdy4_1_TestD2Ev
FNDA:2,_ZN49imagenApagadaTest_regionesDeUnPixel_EnAdy4_1_Test8TestBodyEv
FNDA:2,_ZN49imagenApagadaTest_regionesDeUnPixel_EnAdy4_1_TestC2Ev
FNDA:2,_ZN49imagenApagadaTest_regionesDeUnPixel_EnAdy4_2_TestD0Ev
FNDA:2,_ZN49imagenApagadaTest_regionesDeUnPixel_EnAdy4_2_TestD2Ev
FNDA:2,_ZN49imagenApagadaTest_regionesDeUnPixel_EnAdy4_2_Test8TestBodyEv
FNDA:2,_ZN49imagenApagadaTest_regionesDeUnPixel_EnAdy4_2_TestC2Ev
FNDA:2,_ZN49imagenApagadaTest_regionesDeUnPixel_EnAdy4_3_TestD0Ev
FNDA:2,_ZN49imagenApagadaTest_regionesDeUnPixel_EnAdy4_3_TestD2Ev
FNDA:2,_ZN49imagenApagadaTest_regionesDeUnPixel_EnAdy4_3_Test8TestBodyEv
FNDA:2,_ZN49imagenApagadaTest_regionesDeUnPixel_EnAdy4_3_TestC2Ev
FNDA:2,_ZN43imagenApagadaTest_MatrizActivaEnAdy4_3_TestD0Ev
FNDA:2,_ZN43imagenApagadaTest_MatrizActivaEnAdy4_3_TestD2Ev
FNDA:2,_ZN43imagenApagadaTest_MatrizActivaEnAdy4_3_Test8TestBodyEv
FNDA:2,_ZN43imagenApagadaTest_MatrizActivaEnAdy4_3_TestC2Ev
FNDA:2,_ZN47hacerRegionTest_regionesDeUnPixel_EnAdy4_1_TestD0Ev
FNDA:2,_ZN47hacerRegionTest_regionesDeUnPixel_EnAdy4_1_TestD2Ev
FNDA:2,_ZN47hacerRegionTest_regionesDeUnPixel_EnAdy4_1_Test8TestBodyEv
FNDA:2,_ZN47hacerRegionTest_regionesDeUnPixel_EnAdy4_1_TestC2Ev
FNDA:2,_ZN41hacerRegionTest_regionEnteraEnAdy4_3_TestD0Ev
FNDA:2,_ZN41hacerRegionTest_regionEnteraEnAdy4_3_TestD2Ev
FNDA:2,_ZN41hacerRegionTest_regionEnteraEnAdy4_3_Test8TestBodyEv
FNDA:2,_ZN41hacerRegionTest_regionEnteraEnAdy4_3_TestC2Ev
FNDA:2,_ZN41hacerRegionTest_regionEnteraEnAdy8_3_TestD0Ev
FNDA:2,_ZN41hacerRegionTest_regionEnteraEnAdy8_3_TestD2Ev
FNDA:2,_ZN41hacerRegionTest_regionEnteraEnAdy8_3_Test8TestBodyEv
FNDA:2,_ZN41hacerRegionTest_regionEnteraEnAdy8_3_TestC2Ev
FNDA:2,_ZN44regionesTest_regionesDeUnPixel_EnAdy4_1_TestD0Ev
FNDA:2,_ZN44regionesTest_regionesDeUnPixel_EnAdy4_1_TestD2Ev
FNDA:2,_ZN44regionesTest_regionesDeUnPixel_EnAdy4_1_Test8TestBodyEv
FNDA:2,_ZN44regionesTest_regionesDeUnPixel_EnAdy4_1_TestC2Ev
FNDA:2,_ZN38regionesTest_regionEnteraEnAdy8_3_TestD0Ev
FNDA:2,_ZN38regionesTest_regionEnteraEnAdy8_3_TestD2Ev
FNDA:2,_ZN38regionesTest_regionEnteraEnAdy8_3_Test8TestBodyEv
FNDA:2,_ZN38regionesTest_regionEnteraEnAdy8_3_TestC2Ev
FNDA:2,_ZN41regionesTest_promedioDecimalEnAdy4_2_TestD0Ev
FNDA:2,_ZN41regionesTest_promedioDecimalEnAdy4_2_TestD2Ev
FNDA:2,_ZN41regionesTest_promedioDecimalEnAdy4_2_Test8TestBodyEv
FNDA:2,_ZN41regionesTest_promedioDecimalEnAdy4_2_TestC2Ev
FNDA:2,_ZN49promedioAreasTest_regionesDeUnPixel_EnAdy4_1_TestD0Ev
FNDA:2,_ZN49promedioAreasTest_regionesDeUnPixel_EnAdy4_1_TestD2Ev
FNDA:2,_ZN49promedioAreasTest_regionesDeUnPixel_EnAdy4_1_Test8TestBodyEv
FNDA:2,_ZN49promedioAreasTest_regionesDeUnPixel_EnAdy4_1_TestC2Ev
FNDA:2,_ZN42contenidoSqPixelTest_secuenciaVacia_1_TestD0Ev
FNDA:2,_ZN42contenidoSqPixelTest_secuenciaVacia_1_TestD2Ev
FNDA:2,_ZN42contenidoSqPixelTest_secuenciaVacia_1_Test8TestBodyEv
FNDA:2,_ZN42contenidoSqPixelTest_secuenciaVacia_1_TestC2Ev
FNDA:2,_ZN42contenidoSqPixelTest_secuenciaVacia_2_TestD0Ev
FNDA:2,_ZN42contenidoSqPixelTest_secuenciaVacia_2_TestD2Ev
FNDA:2,_ZN42contenidoSqPixelTest_secuenciaVacia_2_Test8TestBodyEv
FNDA:2,_ZN42contenidoSqPixelTest_secuenciaVacia_2_TestC2Ev
FNDA:2,_ZN42contenidoSqPixelTest_secuenciaVacia_3_TestD0Ev
FNDA:2,_ZN42contenidoSqPixelTest_secuenciaVacia_3_TestD2Ev
FNDA:2,_ZN42contenidoSqPixelTest_secuenciaVacia_3_Test8TestBodyEv
FNDA:2,_ZN42contenidoSqPixelTest_secuenciaVacia_3_TestC2Ev
FNDA:2,_ZN39contenidoSqPixelTest_dosSecuencias_TestD0Ev
FNDA:2,_ZN39contenidoSqPixelTest_dosSecuencias_TestD2Ev
FNDA:2,_ZN39contenidoSqPixelTest_dosSecuencias_Test8TestBodyEv
FNDA:2,_ZN39contenidoSqPixelTest_dosSecuencias_TestC2Ev
FNDA:5,_GLOBAL__sub_I_abs_err
FNDA:5,_Z41__static_initialization_and_destruction_0ii
FNF:62
FNH:62
DA:6,13
DA:7,4
DA:8,2
DA:9,2
DA:11,13
DA:12,4
DA:13,2
DA:14,2
DA:16,13
DA:17,4
DA:18,2
DA:19,2
DA:21,13
DA:22,4
DA:23,2
DA:24,2
DA:26,13
DA:27,4
DA:28,4
DA:29,4
DA:30,2
DA:31,2
DA:33,13
DA:34,4
DA:35,4
DA:36,4
DA:37,2
DA:38,2
DA:40,13
DA:41,4
DA:42,4
DA:43,4
DA:44,2
DA:45,2
DA:47,13
DA:48,4
DA:49,4
DA:50,2
DA:51,2
DA:53,13
DA:54,4
DA:55,4
DA:56,2
DA:57,2
DA:59,13
DA:60,4
DA:61,4
DA:62,2
DA:63,2
DA:65,13
DA:66,4
DA:67,2
DA:68,2
DA:69,2
DA:71,13
DA:72,4
DA:73,4
DA:74,2
DA:75,2
DA:77,13
DA:78,4
DA:79,4
DA:80,2
DA:81,2
DA:83,13
DA:84,4
DA:85,4
DA:86,2
DA:87,2
DA:89,13
DA:90,4
DA:91,4
DA:92,2
DA:93,17
LF:74
LH:74
end_of_record
SF:/home/fyulita/Desktop/tpi/algo1-TPI/lib/googletest-master/googletest/include/gtest/gtest-message.h
FN:91,_ZN7testing7MessageD2Ev
FNDA:0,_ZN7testing7MessageD2Ev
FNF:1
FNH:0
DA:91,0
LF:1
LH:0
end_of_record
SF:/home/fyulita/Desktop/tpi/algo1-TPI/lib/googletest-master/googletest/include/gtest/gtest-printers.h
FN:260,_ZN16testing_internal26DefaultPrintNonContainerToIiEEvRKT_PSo
FN:313,_ZN7testing8internal19FormatForComparisonISt6vectorIS2_IiSaIiEESaIS4_EES6_E6FormatB5cxx11ERKS6_
FN:313,_ZN7testing8internal19FormatForComparisonISt6vectorIS2_IS2_IiSaIiEESaIS4_EESaIS6_EES8_E6FormatB5cxx11ERKS8_
FN:377,_ZN7testing8internal33FormatForComparisonFailureMessageISt6vectorIS2_IiSaIiEESaIS4_EES6_EENSt7__cxx1112basic_stringIcSt11char_traitsIcESaIcEEERKT_RKT0_
FN:377,_ZN7testing8internal33FormatForComparisonFailureMessageISt6vectorIS2_IS2_IiSaIiEESaIS4_EESaIS6_EES8_EENSt7__cxx1112basic_stringIcSt11char_traitsIcESaIcEEERKT_RKT0_
FN:406,_ZN7testing8internal14DefaultPrintToISt6vectorIS2_IiSaIiEESaIS4_EEEEvNS0_15WrapPrinterTypeILNS0_18DefaultPrinterTypeE0EEERKT_PSo
FN:406,_ZN7testing8internal14DefaultPrintToISt6vectorIiSaIiEEEEvNS0_15WrapPrinterTypeILNS0_18DefaultPrinterTypeE0EEERKT_PSo
FN:406,_ZN7testing8internal14DefaultPrintToISt6vectorIS2_IS2_IiSaIiEESaIS4_EESaIS6_EEEEvNS0_15WrapPrinterTypeILNS0_18DefaultPrinterTypeE0EEERKT_PSo
FN:466,_ZN7testing8internal14DefaultPrintToIiEEvNS0_15WrapPrinterTypeILNS0_18DefaultPrinterTypeE3EEERKT_PSo
FN:483,_ZN7testing8internal7PrintToISt6vectorIiSaIiEEEEvRKT_PSo
FN:483,_ZN7testing8internal7PrintToIiEEvRKT_PSo
FN:483,_ZN7testing8internal7PrintToISt6vectorIS2_IS2_IiSaIiEESaIS4_EESaIS6_EEEEvRKT_PSo
FN:483,_ZN7testing8internal7PrintToISt6vectorIS2_IiSaIiEESaIS4_EEEEvRKT_PSo
FN:670,_ZN7testing8internal16UniversalPrinterISt6vectorIS2_IS2_IiSaIiEESaIS4_EESaIS6_EEE5PrintERKS8_PSo
FN:670,_ZN7testing8internal16UniversalPrinterIiE5PrintERKiPSo
FN:670,_ZN7testing8internal16UniversalPrinterISt6vectorIiSaIiEEE5PrintERKS4_PSo
FN:670,_ZN7testing8internal16UniversalPrinterISt6vectorIS2_IiSaIiEESaIS4_EEE5PrintERKS6_PSo
FN:796,_ZN7testing8internal21UniversalTersePrinterISt6vectorIS2_IS2_IiSaIiEESaIS4_EESaIS6_EEE5PrintERKS8_PSo
FN:796,_ZN7testing8internal21UniversalTersePrinterISt6vectorIS2_IiSaIiEESaIS4_EEE5PrintERKS6_PSo
FN:865,_ZN7testing8internal14UniversalPrintIiEEvRKT_PSo
FN:865,_ZN7testing8internal14UniversalPrintISt6vectorIiSaIiEEEEvRKT_PSo
FN:865,_ZN7testing8internal14UniversalPrintISt6vectorIS2_IS2_IiSaIiEESaIS4_EESaIS6_EEEEvRKT_PSo
FN:865,_ZN7testing8internal14UniversalPrintISt6vectorIS2_IiSaIiEESaIS4_EEEEvRKT_PSo
FN:915,_ZN7testing13PrintToStringISt6vectorIS1_IS1_IiSaIiEESaIS3_EESaIS5_EEEENSt7__cxx1112basic_stringIcSt11char_traitsIcESaIcEEERKT_
FN:915,_ZN7testing13PrintToStringISt6vectorIS1_IiSaIiEESaIS3_EEEENSt7__cxx1112basic_stringIcSt11char_traitsIcESaIcEEERKT_
FNDA:0,_ZN16testing_internal26DefaultPrintNonContainerToIiEEvRKT_PSo
FNDA:0,_ZN7testing8internal19FormatForComparisonISt6vectorIS2_IS2_IiSaIiEESaIS4_EESaIS6_EES8_E6FormatB5cxx11ERKS8_
FNDA:0,_ZN7testing8internal19FormatForComparisonISt6vectorIS2_IiSaIiEESaIS4_EES6_E6FormatB5cxx11ERKS6_
FNDA:0,_ZN7testing8internal33FormatForComparisonFailureMessageISt6vectorIS2_IS2_IiSaIiEESaIS4_EESaIS6_EES8_EENSt7__cxx1112basic_stringIcSt11char_traitsIcESaIcEEERKT_RKT0_
FNDA:0,_ZN7testing8internal33FormatForComparisonFailureMessageISt6vectorIS2_IiSaIiEESaIS4_EES6_EENSt7__cxx1112basic_stringIcSt11char_traitsIcESaIcEEERKT_RKT0_
FNDA:0,_ZN7testing8internal14DefaultPrintToISt6vectorIiSaIiEEEEvNS0_15WrapPrinterTypeILNS0_18DefaultPrinterTypeE0EEERKT_PSo
FNDA:0,_ZN7testing8internal14DefaultPrintToISt6vectorIS2_IS2_IiSaIiEESaIS4_EESaIS6_EEEEvNS0_15WrapPrinterTypeILNS0_18DefaultPrinterTypeE0EEERKT_PSo
FNDA:0,_ZN7testing8internal14DefaultPrintToISt6vectorIS2_IiSaIiEESaIS4_EEEEvNS0_15WrapPrinterTypeILNS0_18DefaultPrinterTypeE0EEERKT_PSo
FNDA:0,_ZN7testing8internal14DefaultPrintToIiEEvNS0_15WrapPrinterTypeILNS0_18DefaultPrinterTypeE3EEERKT_PSo
FNDA:0,_ZN7testing8internal7PrintToIiEEvRKT_PSo
FNDA:0,_ZN7testing8internal7PrintToISt6vectorIiSaIiEEEEvRKT_PSo
FNDA:0,_ZN7testing8internal7PrintToISt6vectorIS2_IS2_IiSaIiEESaIS4_EESaIS6_EEEEvRKT_PSo
FNDA:0,_ZN7testing8internal7PrintToISt6vectorIS2_IiSaIiEESaIS4_EEEEvRKT_PSo
FNDA:0,_ZN7testing8internal16UniversalPrinterIiE5PrintERKiPSo
FNDA:0,_ZN7testing8internal16UniversalPrinterISt6vectorIiSaIiEEE5PrintERKS4_PSo
FNDA:0,_ZN7testing8internal16UniversalPrinterISt6vectorIS2_IS2_IiSaIiEESaIS4_EESaIS6_EEE5PrintERKS8_PSo
FNDA:0,_ZN7testing8internal16UniversalPrinterISt6vectorIS2_IiSaIiEESaIS4_EEE5PrintERKS6_PSo
FNDA:0,_ZN7testing8internal21UniversalTersePrinterISt6vectorIS2_IS2_IiSaIiEESaIS4_EESaIS6_EEE5PrintERKS8_PSo
FNDA:0,_ZN7testing8internal21UniversalTersePrinterISt6vectorIS2_IiSaIiEESaIS4_EEE5PrintERKS6_PSo
FNDA:0,_ZN7testing8internal14UniversalPrintIiEEvRKT_PSo
FNDA:0,_ZN7testing8internal14UniversalPrintISt6vectorIiSaIiEEEEvRKT_PSo
FNDA:0,_ZN7testing8internal14UniversalPrintISt6vectorIS2_IS2_IiSaIiEESaIS4_EESaIS6_EEEEvRKT_PSo
FNDA:0,_ZN7testing8internal14UniversalPrintISt6vectorIS2_IiSaIiEESaIS4_EEEEvRKT_PSo
FNDA:0,_ZN7testing13PrintToStringISt6vectorIS1_IS1_IiSaIiEESaIS3_EESaIS5_EEEENSt7__cxx1112basic_stringIcSt11char_traitsIcESaIcEEERKT_
FNDA:0,_ZN7testing13PrintToStringISt6vectorIS1_IiSaIiEESaIS3_EEEENSt7__cxx1112basic_stringIcSt11char_traitsIcESaIcEEERKT_
FNF:25
FNH:0
DA:260,0
DA:287,0
DA:288,0
DA:313,0
DA:314,0
DA:377,0
DA:379,0
DA:406,0
DA:408,0
DA:409,0
DA:410,0
DA:411,0
DA:412,0
DA:413,0
DA:414,0
DA:415,0
DA:416,0
DA:417,0
DA:420,0
DA:423,0
DA:426,0
DA:427,0
DA:429,0
DA:430,0
DA:466,0
DA:468,0
DA:469,0
DA:483,0
DA:503,0
DA:514,0
DA:670,0
DA:679,0
DA:680,0
DA:796,0
DA:797,0
DA:798,0
DA:865,0
DA:869,0
DA:870,0
DA:915,0
DA:916,0
DA:917,0
DA:918,0
LF:43
LH:0
end_of_record
SF:/home/fyulita/Desktop/tpi/algo1-TPI/lib/googletest-master/googletest/include/gtest/gtest.h
FN:275,_ZN7testing15AssertionResultD2Ev
FN:293,_ZN7testing15AssertionResultC2IbEERKT_PNSt9enable_ifIXntsrSt14is_convertibleIS2_S0_E5valueEvE4typeE
FN:312,_ZNK7testing15AssertionResultcvbEv
FN:321,_ZNK7testing15AssertionResult7messageEv
FN:325,_ZNK7testing15AssertionResult15failure_messageEv
FN:417,_ZN7testing4Test14SetUpTestSuiteEv
FN:427,_ZN7testing4Test17TearDownTestSuiteEv
FN:431,_ZN7testing4Test16TearDownTestCaseEv
FN:432,_ZN7testing4Test13SetUpTestCaseEv
FN:513,_ZN7testing4Test5SetupEv
FN:1504,_ZN7testing8internal18CmpHelperEQFailureISt6vectorIS2_IS2_IiSaIiEESaIS4_EESaIS6_EES8_EENS_15AssertionResultEPKcSB_RKT_RKT0_
FN:1504,_ZN7testing8internal18CmpHelperEQFailureISt6vectorIS2_IiSaIiEESaIS4_EES6_EENS_15AssertionResultEPKcS9_RKT_RKT0_
FN:1523,_ZN7testing8internal11CmpHelperEQISt6vectorIS2_IiSaIiEESaIS4_EES6_EENS_15AssertionResultEPKcS9_RKT_RKT0_
FN:1523,_ZN7testing8internal11CmpHelperEQISt6vectorIS2_IS2_IiSaIiEESaIS4_EESaIS6_EES8_EENS_15AssertionResultEPKcSB_RKT_RKT0_
FN:1551,_ZN7testing8internal8EqHelper7CompareISt6vectorIS3_IS3_IiSaIiEESaIS5_EESaIS7_EES9_LPv0EEENS_15AssertionResultEPKcSD_RKT_RKT0_
FN:1551,_ZN7testing8internal8EqHelper7CompareISt6vectorIS3_IiSaIiEESaIS5_EES7_LPv0EEENS_15AssertionResultEPKcSB_RKT_RKT0_
FNDA:0,_ZN7testing15AssertionResultD2Ev
FNDA:0,_ZN7testing15AssertionResultC2IbEERKT_PNSt9enable_ifIXntsrSt14is_convertibleIS2_S0_E5valueEvE4typeE
FNDA:0,_ZNK7testing15AssertionResultcvbEv
FNDA:0,_ZNK7testing15AssertionResult7messageEv
FNDA:0,_ZNK7testing15AssertionResult15failure_messageEv
FNDA:0,_ZN7testing4Test14SetUpTestSuiteEv
FNDA:0,_ZN7testing4Test17TearDownTestSuiteEv
FNDA:0,_ZN7testing4Test16TearDownTestCaseEv
FNDA:0,_ZN7testing4Test13SetUpTestCaseEv
FNDA:0,_ZN7testing4Test5SetupEv
FNDA:0,_ZN7testing8internal18CmpHelperEQFailureISt6vectorIS2_IS2_IiSaIiEESaIS4_EESaIS6_EES8_EENS_15AssertionResultEPKcSB_RKT_RKT0_
FNDA:0,_ZN7testing8internal18CmpHelperEQFailureISt6vectorIS2_IiSaIiEESaIS4_EES6_EENS_15AssertionResultEPKcS9_RKT_RKT0_
FNDA:6,_ZN7testing8internal11CmpHelperEQISt6vectorIS2_IS2_IiSaIiEESaIS4_EESaIS6_EES8_EENS_15AssertionResultEPKcSB_RKT_RKT0_
FNDA:0,_ZN7testing8internal11CmpHelperEQISt6vectorIS2_IiSaIiEESaIS4_EES6_EENS_15AssertionResultEPKcS9_RKT_RKT0_
FNDA:6,_ZN7testing8internal8EqHelper7CompareISt6vectorIS3_IS3_IiSaIiEESaIS5_EESaIS7_EES9_LPv0EEENS_15AssertionResultEPKcSD_RKT_RKT0_
FNDA:0,_ZN7testing8internal8EqHelper7CompareISt6vectorIS3_IiSaIiEESaIS5_EES7_LPv0EEENS_15AssertionResultEPKcSB_RKT_RKT0_
FNF:16
FNH:2
DA:275,0
DA:293,0
DA:299,0
DA:312,0
DA:321,0
DA:322,0
DA:325,0
DA:417,0
DA:427,0
DA:431,0
DA:432,0
DA:513,0
DA:1504,0
DA:1511,0
DA:1523,6
DA:1527,6
DA:1528,6
DA:1531,0
DA:1551,6
DA:1554,6
LF:20
LH:5
end_of_record
SF:/home/fyulita/Desktop/tpi/algo1-TPI/lib/googletest-master/googletest/include/gtest/internal/gtest-internal.h
FN:442,_ZN7testing8internal15TestFactoryBaseD2Ev
FN:442,_ZN7testing8internal15TestFactoryBaseD0Ev
FN:449,_ZN7testing8internal15TestFactoryBaseC2Ev
FN:458,_ZN7testing8internal15TestFactoryImplI38regionesTest_regionEnteraEnAdy8_3_TestED2Ev
FN:458,_ZN7testing8internal15TestFactoryImplI44regionesTest_regionesDeUnPixel_EnAdy4_1_TestED0Ev
FN:458,_ZN7testing8internal15TestFactoryImplI41hacerRegionTest_regionEnteraEnAdy4_3_TestED2Ev
FN:458,_ZN7testing8internal15TestFactoryImplI42contenidoSqPixelTest_secuenciaVacia_3_TestED0Ev
FN:458,_ZN7testing8internal15TestFactoryImplI43imagenApagadaTest_MatrizActivaEnAdy4_3_TestED2Ev
FN:458,_ZN7testing8internal15TestFactoryImplI41hacerRegionTest_regionEnteraEnAdy8_3_TestEC2Ev
FN:458,_ZN7testing8internal15TestFactoryImplI49imagenApagadaTest_regionesDeUnPixel_EnAdy4_1_TestEC2Ev
FN:458,_ZN7testing8internal15TestFactoryImplI41regionesTest_promedioDecimalEnAdy4_2_TestED2Ev
FN:458,_ZN7testing8internal15TestFactoryImplI41regionesTest_promedioDecimalEnAdy4_2_TestED0Ev
FN:458,_ZN7testing8internal15TestFactoryImplI47hacerRegionTest_regionesDeUnPixel_EnAdy4_1_TestEC2Ev
FN:458,_ZN7testing8internal15TestFactoryImplI49imagenApagadaTest_regionesDeUnPixel_EnAdy4_3_TestED0Ev
FN:458,_ZN7testing8internal15TestFactoryImplI43imagenApagadaTest_MatrizActivaEnAdy4_3_TestEC2Ev
FN:458,_ZN7testing8internal15TestFactoryImplI42contenidoSqPixelTest_secuenciaVacia_1_TestED2Ev
FN:458,_ZN7testing8internal15TestFactoryImplI41regionesTest_promedioDecimalEnAdy4_2_TestEC2Ev
FN:458,_ZN7testing8internal15TestFactoryImplI41hacerRegionTest_regionEnteraEnAdy4_3_TestED0Ev
FN:458,_ZN7testing8internal15TestFactoryImplI49imagenApagadaTest_regionesDeUnPixel_EnAdy4_2_TestED2Ev
FN:458,_ZN7testing8internal15TestFactoryImplI49promedioAreasTest_regionesDeUnPixel_EnAdy4_1_TestED0Ev
FN:458,_ZN7testing8internal15TestFactoryImplI49promedioAreasTest_regionesDeUnPixel_EnAdy4_1_TestED2Ev
FN:458,_ZN7testing8internal15TestFactoryImplI39contenidoSqPixelTest_dosSecuencias_TestEC2Ev
FN:458,_ZN7testing8internal15TestFactoryImplI49imagenApagadaTest_regionesDeUnPixel_EnAdy4_3_TestED2Ev
FN:458,_ZN7testing8internal15TestFactoryImplI41hacerRegionTest_regionEnteraEnAdy8_3_TestED0Ev
FN:458,_ZN7testing8internal15TestFactoryImplI42contenidoSqPixelTest_secuenciaVacia_3_TestED2Ev
FN:458,_ZN7testing8internal15TestFactoryImplI47hacerRegionTest_regionesDeUnPixel_EnAdy4_1_TestED2Ev
FN:458,_ZN7testing8internal15TestFactoryImplI49imagenApagadaTest_regionesDeUnPixel_EnAdy4_2_TestED0Ev
FN:458,_ZN7testing8internal15TestFactoryImplI38regionesTest_regionEnteraEnAdy8_3_TestED0Ev
FN:458,_ZN7testing8internal15TestFactoryImplI44regionesTest_regionesDeUnPixel_EnAdy4_1_TestEC2Ev
FN:458,_ZN7testing8internal15TestFactoryImplI44regionesTest_regionesDeUnPixel_EnAdy4_1_TestED2Ev
FN:458,_ZN7testing8internal15TestFactoryImplI41hacerRegionTest_regionEnteraEnAdy4_3_TestEC2Ev
FN:458,_ZN7testing8internal15TestFactoryImplI49promedioAreasTest_regionesDeUnPixel_EnAdy4_1_TestEC2Ev
FN:458,_ZN7testing8internal15TestFactoryImplI42contenidoSqPixelTest_secuenciaVacia_2_TestED0Ev
FN:458,_ZN7testing8internal15TestFactoryImplI49imagenApagadaTest_regionesDeUnPixel_EnAdy4_1_TestED2Ev
FN:458,_ZN7testing8internal15TestFactoryImplI43imagenApagadaTest_MatrizActivaEnAdy4_3_TestED0Ev
FN:458,_ZN7testing8internal15TestFactoryImplI42contenidoSqPixelTest_secuenciaVacia_1_TestEC2Ev
FN:458,_ZN7testing8internal15TestFactoryImplI42contenidoSqPixelTest_secuenciaVacia_2_TestEC2Ev
FN:458,_ZN7testing8internal15TestFactoryImplI39contenidoSqPixelTest_dosSecuencias_TestED0Ev
FN:458,_ZN7testing8internal15TestFactoryImplI41hacerRegionTest_regionEnteraEnAdy8_3_TestED2Ev
FN:458,_ZN7testing8internal15TestFactoryImplI42contenidoSqPixelTest_secuenciaVacia_1_TestED0Ev
FN:458,_ZN7testing8internal15TestFactoryImplI38regionesTest_regionEnteraEnAdy8_3_TestEC2Ev
FN:458,_ZN7testing8internal15TestFactoryImplI49imagenApagadaTest_regionesDeUnPixel_EnAdy4_3_TestEC2Ev
FN:458,_ZN7testing8internal15TestFactoryImplI47hacerRegionTest_regionesDeUnPixel_EnAdy4_1_TestED0Ev
FN:458,_ZN7testing8internal15TestFactoryImplI39contenidoSqPixelTest_dosSecuencias_TestED2Ev
FN:458,_ZN7testing8internal15TestFactoryImplI49imagenApagadaTest_regionesDeUnPixel_EnAdy4_2_TestEC2Ev
FN:458,_ZN7testing8internal15TestFactoryImplI42contenidoSqPixelTest_secuenciaVacia_2_TestED2Ev
FN:458,_ZN7testing8internal15TestFactoryImplI42contenidoSqPixelTest_secuenciaVacia_3_TestEC2Ev
FN:458,_ZN7testing8internal15TestFactoryImplI49imagenApagadaTest_regionesDeUnPixel_EnAdy4_1_TestED0Ev
FN:460,_ZN7testing8internal15TestFactoryImplI41hacerRegionTest_regionEnteraEnAdy8_3_TestE10CreateTestEv
FN:460,_ZN7testing8internal15TestFactoryImplI41hacerRegionTest_regionEnteraEnAdy4_3_TestE10CreateTestEv
FN:460,_ZN7testing8internal15TestFactoryImplI44regionesTest_regionesDeUnPixel_EnAdy4_1_TestE10CreateTestEv
FN:460,_ZN7testing8internal15TestFactoryImplI39contenidoSqPixelTest_dosSecuencias_TestE10CreateTestEv
FN:460,_ZN7testing8internal15TestFactoryImplI49imagenApagadaTest_regionesDeUnPixel_EnAdy4_1_TestE10CreateTestEv
FN:460,_ZN7testing8internal15TestFactoryImplI42contenidoSqPixelTest_secuenciaVacia_1_TestE10CreateTestEv
FN:460,_ZN7testing8internal15TestFactoryImplI49promedioAreasTest_regionesDeUnPixel_EnAdy4_1_TestE10CreateTestEv
FN:460,_ZN7testing8internal15TestFactoryImplI41regionesTest_promedioDecimalEnAdy4_2_TestE10CreateTestEv
FN:460,_ZN7testing8internal15TestFactoryImplI42contenidoSqPixelTest_secuenciaVacia_2_TestE10CreateTestEv
FN:460,_ZN7testing8internal15TestFactoryImplI49imagenApagadaTest_regionesDeUnPixel_EnAdy4_3_TestE10CreateTestEv
FN:460,_ZN7testing8internal15TestFactoryImplI49imagenApagadaTest_regionesDeUnPixel_EnAdy4_2_TestE10CreateTestEv
FN:460,_ZN7testing8internal15TestFactoryImplI38regionesTest_regionEnteraEnAdy8_3_TestE10CreateTestEv
FN:460,_ZN7testing8internal15TestFactoryImplI42contenidoSqPixelTest_secuenciaVacia_3_TestE10CreateTestEv
FN:460,_ZN7testing8internal15TestFactoryImplI43imagenApagadaTest_MatrizActivaEnAdy4_3_TestE10CreateTestEv
FN:460,_ZN7testing8internal15TestFactoryImplI47hacerRegionTest_regionesDeUnPixel_EnAdy4_1_TestE10CreateTestEv
FN:480,_ZN7testing8internal12CodeLocationD2Ev
FN:481,_ZN7testing8internal12CodeLocationC2ERKNSt7__cxx1112basic_stringIcSt11char_traitsIcESaIcEEEi
FN:494,_ZN7testing8internal19GetNotDefaultOrNullEPFvvES2_
FN:509,_ZN7testing8internal16SuiteApiResolverINS_4TestEE19GetSetUpCaseOrSuiteEPKci
FN:524,_ZN7testing8internal16SuiteApiResolverINS_4TestEE22GetTearDownCaseOrSuiteEPKci
FNDA:0,_ZN7testing8internal15TestFactoryBaseD0Ev
FNDA:0,_ZN7testing8internal15TestFactoryBaseD2Ev
FNDA:0,_ZN7testing8internal15TestFactoryBaseC2Ev
FNDA:5,_ZN7testing8internal15TestFactoryImplI49imagenApagadaTest_regionesDeUnPixel_EnAdy4_1_TestED0Ev
FNDA:5,_ZN7testing8internal15TestFactoryImplI49imagenApagadaTest_regionesDeUnPixel_EnAdy4_1_TestED2Ev
FNDA:5,_ZN7testing8internal15TestFactoryImplI49imagenApagadaTest_regionesDeUnPixel_EnAdy4_2_TestED0Ev
FNDA:5,_ZN7testing8internal15TestFactoryImplI49imagenApagadaTest_regionesDeUnPixel_EnAdy4_2_TestED2Ev
FNDA:5,_ZN7testing8internal15TestFactoryImplI49imagenApagadaTest_regionesDeUnPixel_EnAdy4_3_TestED0Ev
FNDA:5,_ZN7testing8internal15TestFactoryImplI49imagenApagadaTest_regionesDeUnPixel_EnAdy4_3_TestED2Ev
FNDA:5,_ZN7testing8internal15TestFactoryImplI43imagenApagadaTest_MatrizActivaEnAdy4_3_TestED0Ev
FNDA:5,_ZN7testing8internal15TestFactoryImplI43imagenApagadaTest_MatrizActivaEnAdy4_3_TestED2Ev
FNDA:5,_ZN7testing8internal15TestFactoryImplI47hacerRegionTest_regionesDeUnPixel_EnAdy4_1_TestED0Ev
FNDA:5,_ZN7testing8internal15TestFactoryImplI47hacerRegionTest_regionesDeUnPixel_EnAdy4_1_TestED2Ev
FNDA:5,_ZN7testing8internal15TestFactoryImplI41hacerRegionTest_regionEnteraEnAdy4_3_TestED0Ev
FNDA:5,_ZN7testing8internal15TestFactoryImplI41hacerRegionTest_regionEnteraEnAdy4_3_TestED2Ev
FNDA:5,_ZN7testing8internal15TestFactoryImplI41hacerRegionTest_regionEnteraEnAdy8_3_TestED0Ev
FNDA:5,_ZN7testing8internal15TestFactoryImplI41hacerRegionTest_regionEnteraEnAdy8_3_TestED2Ev
FNDA:5,_ZN7testing8internal15TestFactoryImplI44regionesTest_regionesDeUnPixel_EnAdy4_1_TestED0Ev
FNDA:5,_ZN7testing8internal15TestFactoryImplI44regionesTest_regionesDeUnPixel_EnAdy4_1_TestED2Ev
FNDA:5,_ZN7testing8internal15TestFactoryImplI38regionesTest_regionEnteraEnAdy8_3_TestED0Ev
FNDA:5,_ZN7testing8internal15TestFactoryImplI38regionesTest_regionEnteraEnAdy8_3_TestED2Ev
FNDA:5,_ZN7testing8internal15TestFactoryImplI41regionesTest_promedioDecimalEnAdy4_2_TestED0Ev
FNDA:5,_ZN7testing8internal15TestFactoryImplI41regionesTest_promedioDecimalEnAdy4_2_TestED2Ev
FNDA:5,_ZN7testing8internal15TestFactoryImplI49promedioAreasTest_regionesDeUnPixel_EnAdy4_1_TestED0Ev
FNDA:5,_ZN7testing8internal15TestFactoryImplI49promedioAreasTest_regionesDeUnPixel_EnAdy4_1_TestED2Ev
FNDA:5,_ZN7testing8internal15TestFactoryImplI42contenidoSqPixelTest_secuenciaVacia_1_TestED0Ev
FNDA:5,_ZN7testing8internal15TestFactoryImplI42contenidoSqPixelTest_secuenciaVacia_1_TestED2Ev
FNDA:5,_ZN7testing8internal15TestFactoryImplI42contenidoSqPixelTest_secuenciaVacia_2_TestED0Ev
FNDA:5,_ZN7testing8internal15TestFactoryImplI42contenidoSqPixelTest_secuenciaVacia_2_TestED2Ev
FNDA:5,_ZN7testing8internal15TestFactoryImplI42contenidoSqPixelTest_secuenciaVacia_3_TestED0Ev
FNDA:5,_ZN7testing8internal15TestFactoryImplI42contenidoSqPixelTest_secuenciaVacia_3_TestED2Ev
FNDA:5,_ZN7testing8internal15TestFactoryImplI39contenidoSqPixelTest_dosSecuencias_TestED0Ev
FNDA:5,_ZN7testing8internal15TestFactoryImplI39contenidoSqPixelTest_dosSecuencias_TestED2Ev
FNDA:5,_ZN7testing8internal15TestFactoryImplI39contenidoSqPixelTest_dosSecuencias_TestEC2Ev
FNDA:5,_ZN7testing8internal15TestFactoryImplI42contenidoSqPixelTest_secuenciaVacia_3_TestEC2Ev
FNDA:5,_ZN7testing8internal15TestFactoryImplI42contenidoSqPixelTest_secuenciaVacia_2_TestEC2Ev
FNDA:5,_ZN7testing8internal15TestFactoryImplI42contenidoSqPixelTest_secuenciaVacia_1_TestEC2Ev
FNDA:5,_ZN7testing8internal15TestFactoryImplI49promedioAreasTest_regionesDeUnPixel_EnAdy4_1_TestEC2Ev
FNDA:5,_ZN7testing8internal15TestFactoryImplI41regionesTest_promedioDecimalEnAdy4_2_TestEC2Ev
FNDA:5,_ZN7testing8internal15TestFactoryImplI38regionesTest_regionEnteraEnAdy8_3_TestEC2Ev
FNDA:5,_ZN7testing8internal15TestFactoryImplI44regionesTest_regionesDeUnPixel_EnAdy4_1_TestEC2Ev
FNDA:5,_ZN7testing8internal15TestFactoryImplI41hacerRegionTest_regionEnteraEnAdy8_3_TestEC2Ev
FNDA:5,_ZN7testing8internal15TestFactoryImplI41hacerRegionTest_regionEnteraEnAdy4_3_TestEC2Ev
FNDA:5,_ZN7testing8internal15TestFactoryImplI47hacerRegionTest_regionesDeUnPixel_EnAdy4_1_TestEC2Ev
FNDA:5,_ZN7testing8internal15TestFactoryImplI43imagenApagadaTest_MatrizActivaEnAdy4_3_TestEC2Ev
FNDA:5,_ZN7testing8internal15TestFactoryImplI49imagenApagadaTest_regionesDeUnPixel_EnAdy4_3_TestEC2Ev
FNDA:5,_ZN7testing8internal15TestFactoryImplI49imagenApagadaTest_regionesDeUnPixel_EnAdy4_2_TestEC2Ev
FNDA:5,_ZN7testing8internal15TestFactoryImplI49imagenApagadaTest_regionesDeUnPixel_EnAdy4_1_TestEC2Ev
FNDA:2,_ZN7testing8internal15TestFactoryImplI49imagenApagadaTest_regionesDeUnPixel_EnAdy4_1_TestE10CreateTestEv
FNDA:2,_ZN7testing8internal15TestFactoryImplI49imagenApagadaTest_regionesDeUnPixel_EnAdy4_2_TestE10CreateTestEv
FNDA:2,_ZN7testing8internal15TestFactoryImplI49imagenApagadaTest_regionesDeUnPixel_EnAdy4_3_TestE10CreateTestEv
FNDA:2,_ZN7testing8internal15TestFactoryImplI43imagenApagadaTest_MatrizActivaEnAdy4_3_TestE10CreateTestEv
FNDA:2,_ZN7testing8internal15TestFactoryImplI47hacerRegionTest_regionesDeUnPixel_EnAdy4_1_TestE10CreateTestEv
FNDA:2,_ZN7testing8internal15TestFactoryImplI41hacerRegionTest_regionEnteraEnAdy4_3_TestE10CreateTestEv
FNDA:2,_ZN7testing8internal15TestFactoryImplI41hacerRegionTest_regionEnteraEnAdy8_3_TestE10CreateTestEv
FNDA:2,_ZN7testing8internal15TestFactoryImplI44regionesTest_regionesDeUnPixel_EnAdy4_1_TestE10CreateTestEv
FNDA:2,_ZN7testing8internal15TestFactoryImplI38regionesTest_regionEnteraEnAdy8_3_TestE10CreateTestEv
FNDA:2,_ZN7testing8internal15TestFactoryImplI41regionesTest_promedioDecimalEnAdy4_2_TestE10CreateTestEv
FNDA:2,_ZN7testing8internal15TestFactoryImplI49promedioAreasTest_regionesDeUnPixel_EnAdy4_1_TestE10CreateTestEv
FNDA:2,_ZN7testing8internal15TestFactoryImplI42contenidoSqPixelTest_secuenciaVacia_1_TestE10CreateTestEv
FNDA:2,_ZN7testing8internal15TestFactoryImplI42contenidoSqPixelTest_secuenciaVacia_2_TestE10CreateTestEv
FNDA:2,_ZN7testing8internal15TestFactoryImplI42contenidoSqPixelTest_secuenciaVacia_3_TestE10CreateTestEv
FNDA:2,_ZN7testing8internal15TestFactoryImplI39contenidoSqPixelTest_dosSecuencias_TestE10CreateTestEv
FNDA:0,_ZN7testing8internal12CodeLocationD2Ev
FNDA:0,_ZN7testing8internal12CodeLocationC2ERKNSt7__cxx1112basic_stringIcSt11char_traitsIcESaIcEEEi
FNDA:0,_ZN7testing8internal19GetNotDefaultOrNullEPFvvES2_
FNDA:0,_ZN7testing8internal16SuiteApiResolverINS_4TestEE19GetSetUpCaseOrSuiteEPKci
FNDA:0,_ZN7testing8internal16SuiteApiResolverINS_4TestEE22GetTearDownCaseOrSuiteEPKci
FNF:68
FNH:60
DA:442,0
DA:449,0
DA:458,225
DA:460,30
DA:480,0
DA:481,0
DA:482,0
DA:494,0
DA:496,0
DA:509,0
DA:511,0
DA:513,0
DA:516,0
DA:519,0
DA:521,0
DA:524,0
DA:526,0
DA:528,0
DA:531,0
DA:534,0
DA:536,0
LF:21
LH:2
end_of_record
SF:/home/fyulita/Desktop/tpi/algo1-TPI/lib/googletest-master/googletest/include/gtest/internal/gtest-port.h
FN:942,_ZN7testing8internal8GTestLog9GetStreamEv
FNDA:0,_ZN7testing8internal8GTestLog9GetStreamEv
FNF:1
FNH:0
DA:942,0
LF:1
LH:0
end_of_record
SF:/usr/include/c++/7/bits/alloc_traits.h
FN:435,_ZNSt16allocator_traitsISaISt6vectorIS0_IiSaIiEESaIS2_EEEE8allocateERS5_m
FN:435,_ZNSt16allocator_traitsISaIiEE8allocateERS0_m
FN:435,_ZNSt16allocator_traitsISaISt6vectorIiSaIiEEEE8allocateERS3_m
FN:461,_ZNSt16allocator_traitsISaISt6vectorIiSaIiEEEE10deallocateERS3_PS2_m
FN:461,_ZNSt16allocator_traitsISaISt6vectorIS0_IiSaIiEESaIS2_EEEE10deallocateERS5_PS4_m
FN:461,_ZNSt16allocator_traitsISaIiEE10deallocateERS0_Pim
FN:504,_ZNSt16allocator_traitsISaIiEE37select_on_container_copy_constructionERKS0_
FN:504,_ZNSt16allocator_traitsISaISt6vectorIiSaIiEEEE37select_on_container_copy_constructionERKS3_
FNDA:0,_ZNSt16allocator_traitsISaISt6vectorIS0_IiSaIiEESaIS2_EEEE8allocateERS5_m
FNDA:0,_ZNSt16allocator_traitsISaISt6vectorIiSaIiEEEE8allocateERS3_m
FNDA:0,_ZNSt16allocator_traitsISaIiEE8allocateERS0_m
FNDA:0,_ZNSt16allocator_traitsISaISt6vectorIS0_IiSaIiEESaIS2_EEEE10deallocateERS5_PS4_m
FNDA:0,_ZNSt16allocator_traitsISaISt6vectorIiSaIiEEEE10deallocateERS3_PS2_m
FNDA:0,_ZNSt16allocator_traitsISaIiEE10deallocateERS0_Pim
FNDA:0,_ZNSt16allocator_traitsISaISt6vectorIiSaIiEEEE37select_on_container_copy_constructionERKS3_
FNDA:0,_ZNSt16allocator_traitsISaIiEE37select_on_container_copy_constructionERKS0_
FNF:8
FNH:0
DA:435,0
DA:436,0
DA:461,0
DA:462,0
DA:504,0
DA:505,0
LF:6
LH:0
end_of_record
SF:/usr/include/c++/7/bits/allocator.h
FN:131,_ZNSaISt6vectorIiSaIiEEEC2Ev
FN:131,_ZNSaISt6vectorIS_IiSaIiEESaIS1_EEEC2Ev
FN:131,_ZNSaIiEC2Ev
FN:133,_ZNSaISt6vectorIS_IiSaIiEESaIS1_EEEC2ERKS4_
FN:133,_ZNSaISt6vectorIiSaIiEEEC2ERKS2_
FN:133,_ZNSaIiEC2ERKS_
FN:139,_ZNSaISt6vectorIS_IiSaIiEESaIS1_EEED2Ev
FN:139,_ZNSaIiED2Ev
FN:139,_ZNSaISt6vectorIiSaIiEEED2Ev
FNDA:0,_ZNSaISt6vectorIS_IiSaIiEESaIS1_EEEC2Ev
FNDA:0,_ZNSaISt6vectorIiSaIiEEEC2Ev
FNDA:0,_ZNSaIiEC2Ev
FNDA:12,_ZNSaISt6vectorIS_IiSaIiEESaIS1_EEEC2ERKS4_
FNDA:0,_ZNSaISt6vectorIiSaIiEEEC2ERKS2_
FNDA:0,_ZNSaIiEC2ERKS_
FNDA:0,_ZNSaISt6vectorIS_IiSaIiEESaIS1_EEED2Ev
FNDA:0,_ZNSaISt6vectorIiSaIiEEED2Ev
FNDA:0,_ZNSaIiED2Ev
FNF:9
FNH:1
DA:131,0
DA:133,12
DA:134,12
DA:139,0
LF:4
LH:2
end_of_record
SF:/usr/include/c++/7/bits/cpp_type_traits.h
FN:408,_ZSt12__miter_baseIPKiET_S2_
FN:408,_ZSt12__miter_baseIN9__gnu_cxx17__normal_iteratorIPKiSt6vectorIiSaIiEEEEET_S8_
FNDA:0,_ZSt12__miter_baseIN9__gnu_cxx17__normal_iteratorIPKiSt6vectorIiSaIiEEEEET_S8_
FNDA:0,_ZSt12__miter_baseIPKiET_S2_
FNF:2
FNH:0
DA:408,0
DA:409,0
LF:2
LH:0
end_of_record
SF:/usr/include/c++/7/bits/ios_base.h
FN:129,_ZStorSt13_Ios_OpenmodeS_
FNDA:0,_ZStorSt13_Ios_OpenmodeS_
FNF:1
FNH:0
DA:129,0
DA:130,0
LF:2
LH:0
end_of_record
SF:/usr/include/c++/7/bits/move.h
FN:47,_ZSt11__addressofISt6vectorIS0_IiSaIiEESaIS2_EEEPT_RS5_
FN:47,_ZSt11__addressofISt6vectorIiSaIiEEEPT_RS3_
FN:73,_ZSt7forwardIRKSt6vectorIS0_IiSaIiEESaIS2_EEEOT_RNSt16remove_referenceIS7_E4typeE
FN:73,_ZSt7forwardIRKSt6vectorIiSaIiEEEOT_RNSt16remove_referenceIS5_E4typeE
FNDA:0,_ZSt11__addressofISt6vectorIS0_IiSaIiEESaIS2_EEEPT_RS5_
FNDA:0,_ZSt11__addressofISt6vectorIiSaIiEEEPT_RS3_
FNDA:28,_ZSt7forwardIRKSt6vectorIS0_IiSaIiEESaIS2_EEEOT_RNSt16remove_referenceIS7_E4typeE
FNDA:0,_ZSt7forwardIRKSt6vectorIiSaIiEEEOT_RNSt16remove_referenceIS5_E4typeE
FNF:4
FNH:1
DA:47,0
DA:48,0
DA:73,28
DA:74,28
LF:4
LH:2
end_of_record
SF:/usr/include/c++/7/bits/stl_algobase.h
FN:277,_ZSt12__niter_baseIPiET_S1_
FN:277,_ZSt12__niter_baseIPKiET_S2_
FN:357,_ZNSt11__copy_moveILb0ELb1ESt26random_access_iterator_tagE8__copy_mIiEEPT_PKS3_S6_S4_
FN:375,_ZSt13__copy_move_aILb0EPKiPiET1_T0_S4_S3_
FN:420,_ZSt14__copy_move_a2ILb0EPKiPiET1_T0_S4_S3_
FN:420,_ZSt14__copy_move_a2ILb0EN9__gnu_cxx17__normal_iteratorIPKiSt6vectorIiSaIiEEEEPiET1_T0_SA_S9_
FN:446,_ZSt4copyIN9__gnu_cxx17__normal_iteratorIPKiSt6vectorIiSaIiEEEEPiET0_T_SA_S9_
FN:446,_ZSt4copyIPKiPiET0_T_S4_S3_
FN:797,_ZNSt7__equalILb0EE5equalIPKSt6vectorIiSaIiEES6_EEbT_S7_T0_
FN:797,_ZNSt7__equalILb0EE5equalIPKSt6vectorIS2_IiSaIiEESaIS4_EES8_EEbT_S9_T0_
FN:811,_ZNSt7__equalILb1EE5equalIiEEbPKT_S4_S4_
FN:821,_ZSt11__equal_auxIPKiS1_EbT_S2_T0_
FN:821,_ZSt11__equal_auxIPKSt6vectorIiSaIiEES4_EbT_S5_T0_
FN:821,_ZSt11__equal_auxIPKSt6vectorIS0_IiSaIiEESaIS2_EES6_EbT_S7_T0_
FN:1041,_ZSt5equalIN9__gnu_cxx17__normal_iteratorIPKSt6vectorIiSaIiEES2_IS4_SaIS4_EEEES9_EbT_SA_T0_
FN:1041,_ZSt5equalIN9__gnu_cxx17__normal_iteratorIPKSt6vectorIS2_IiSaIiEESaIS4_EES2_IS6_SaIS6_EEEESB_EbT_SC_T0_
FN:1041,_ZSt5equalIN9__gnu_cxx17__normal_iteratorIPKiSt6vectorIiSaIiEEEES7_EbT_S8_T0_
FNDA:0,_ZSt12__niter_baseIPiET_S1_
FNDA:0,_ZSt12__niter_baseIPKiET_S2_
FNDA:0,_ZNSt11__copy_moveILb0ELb1ESt26random_access_iterator_tagE8__copy_mIiEEPT_PKS3_S6_S4_
FNDA:0,_ZSt13__copy_move_aILb0EPKiPiET1_T0_S4_S3_
FNDA:0,_ZSt14__copy_move_a2ILb0EN9__gnu_cxx17__normal_iteratorIPKiSt6vectorIiSaIiEEEEPiET1_T0_SA_S9_
FNDA:0,_ZSt14__copy_move_a2ILb0EPKiPiET1_T0_S4_S3_
FNDA:0,_ZSt4copyIN9__gnu_cxx17__normal_iteratorIPKiSt6vectorIiSaIiEEEEPiET0_T_SA_S9_
FNDA:0,_ZSt4copyIPKiPiET0_T_S4_S3_
FNDA:6,_ZNSt7__equalILb0EE5equalIPKSt6vectorIS2_IiSaIiEESaIS4_EES8_EEbT_S9_T0_
FNDA:0,_ZNSt7__equalILb0EE5equalIPKSt6vectorIiSaIiEES6_EEbT_S7_T0_
FNDA:0,_ZNSt7__equalILb1EE5equalIiEEbPKT_S4_S4_
FNDA:0,_ZSt11__equal_auxIPKiS1_EbT_S2_T0_
FNDA:6,_ZSt11__equal_auxIPKSt6vectorIS0_IiSaIiEESaIS2_EES6_EbT_S7_T0_
FNDA:0,_ZSt11__equal_auxIPKSt6vectorIiSaIiEES4_EbT_S5_T0_
FNDA:0,_ZSt5equalIN9__gnu_cxx17__normal_iteratorIPKiSt6vectorIiSaIiEEEES7_EbT_S8_T0_
FNDA:6,_ZSt5equalIN9__gnu_cxx17__normal_iteratorIPKSt6vectorIS2_IiSaIiEESaIS4_EES2_IS6_SaIS6_EEEESB_EbT_SC_T0_
FNDA:0,_ZSt5equalIN9__gnu_cxx17__normal_iteratorIPKSt6vectorIiSaIiEES2_IS4_SaIS4_EEEES9_EbT_SA_T0_
FNF:17
FNH:3
DA:277,0
DA:278,0
DA:357,0
DA:366,0
DA:367,0
DA:368,0
DA:369,0
DA:375,0
DA:380,0
DA:386,0
DA:420,0
DA:422,0
DA:424,0
DA:446,0
DA:455,0
DA:456,0
DA:797,22
DA:799,38
DA:800,16
DA:801,0
DA:802,6
DA:811,0
DA:813,0
DA:814,0
DA:815,0
DA:821,6
DA:825,6
DA:831,6
DA:1041,6
DA:1051,6
DA:1053,6
LF:31
LH:10
end_of_record
SF:/usr/include/c++/7/bits/stl_construct.h
FN:74,_ZSt10_ConstructISt6vectorIiSaIiEEJRKS2_EEvPT_DpOT0_
FN:74,_ZSt10_ConstructISt6vectorIS0_IiSaIiEESaIS2_EEJRKS4_EEvPT_DpOT0_
FN:97,_ZSt8_DestroyISt6vectorIS0_IiSaIiEESaIS2_EEEvPT_
FN:97,_ZSt8_DestroyISt6vectorIiSaIiEEEvPT_
FN:105,_ZNSt12_Destroy_auxILb0EE9__destroyIPSt6vectorIiSaIiEEEEvT_S6_
FN:105,_ZNSt12_Destroy_auxILb0EE9__destroyIPSt6vectorIS2_IiSaIiEESaIS4_EEEEvT_S8_
FN:117,_ZNSt12_Destroy_auxILb1EE9__destroyIPiEEvT_S3_
FN:127,_ZSt8_DestroyIPSt6vectorIiSaIiEEEvT_S4_
FN:127,_ZSt8_DestroyIPSt6vectorIS0_IiSaIiEESaIS2_EEEvT_S6_
FN:127,_ZSt8_DestroyIPiEvT_S1_
FN:203,_ZSt8_DestroyIPSt6vectorIS0_IiSaIiEESaIS2_EES4_EvT_S6_RSaIT0_E
FN:203,_ZSt8_DestroyIPSt6vectorIiSaIiEES2_EvT_S4_RSaIT0_E
FN:203,_ZSt8_DestroyIPiiEvT_S1_RSaIT0_E
FNDA:28,_ZSt10_ConstructISt6vectorIS0_IiSaIiEESaIS2_EEJRKS4_EEvPT_DpOT0_
FNDA:0,_ZSt10_ConstructISt6vectorIiSaIiEEJRKS2_EEvPT_DpOT0_
FNDA:0,_ZSt8_DestroyISt6vectorIS0_IiSaIiEESaIS2_EEEvPT_
FNDA:0,_ZSt8_DestroyISt6vectorIiSaIiEEEvPT_
FNDA:0,_ZNSt12_Destroy_auxILb0EE9__destroyIPSt6vectorIS2_IiSaIiEESaIS4_EEEEvT_S8_
FNDA:0,_ZNSt12_Destroy_auxILb0EE9__destroyIPSt6vectorIiSaIiEEEEvT_S6_
FNDA:0,_ZNSt12_Destroy_auxILb1EE9__destroyIPiEEvT_S3_
FNDA:0,_ZSt8_DestroyIPSt6vectorIS0_IiSaIiEESaIS2_EEEvT_S6_
FNDA:0,_ZSt8_DestroyIPSt6vectorIiSaIiEEEvT_S4_
FNDA:0,_ZSt8_DestroyIPiEvT_S1_
FNDA:0,_ZSt8_DestroyIPSt6vectorIS0_IiSaIiEESaIS2_EES4_EvT_S6_RSaIT0_E
FNDA:0,_ZSt8_DestroyIPSt6vectorIiSaIiEES2_EvT_S4_RSaIT0_E
FNDA:0,_ZSt8_DestroyIPiiEvT_S1_RSaIT0_E
FNF:13
FNH:1
DA:74,28
DA:75,28
DA:97,0
DA:98,0
DA:105,0
DA:107,0
DA:108,0
DA:109,0
DA:117,0
DA:127,0
DA:137,0
DA:138,0
DA:203,0
DA:206,0
DA:207,0
LF:15
LH:2
end_of_record
SF:/usr/include/c++/7/bits/stl_iterator.h
FN:782,_ZN9__gnu_cxx17__normal_iteratorIPKSt6vectorIiSaIiEES1_IS3_SaIS3_EEEC2ERKS5_
FN:782,_ZN9__gnu_cxx17__normal_iteratorIPKSt6vectorIS1_IiSaIiEESaIS3_EES1_IS5_SaIS5_EEEC2ERKS7_
FN:782,_ZN9__gnu_cxx17__normal_iteratorIPKiSt6vectorIiSaIiEEEC2ERKS2_
FN:795,_ZNK9__gnu_cxx17__normal_iteratorIPKSt6vectorIS1_IiSaIiEESaIS3_EES1_IS5_SaIS5_EEEdeEv
FN:795,_ZNK9__gnu_cxx17__normal_iteratorIPKSt6vectorIiSaIiEES1_IS3_SaIS3_EEEdeEv
FN:795,_ZNK9__gnu_cxx17__normal_iteratorIPKiSt6vectorIiSaIiEEEdeEv
FN:803,_ZN9__gnu_cxx17__normal_iteratorIPKiSt6vectorIiSaIiEEEppEv
FN:803,_ZN9__gnu_cxx17__normal_iteratorIPKSt6vectorIiSaIiEES1_IS3_SaIS3_EEEppEv
FN:803,_ZN9__gnu_cxx17__normal_iteratorIPKSt6vectorIS1_IiSaIiEESaIS3_EES1_IS5_SaIS5_EEEppEv
FN:847,_ZNK9__gnu_cxx17__normal_iteratorIPKSt6vectorIiSaIiEES1_IS3_SaIS3_EEE4baseEv
FN:847,_ZNK9__gnu_cxx17__normal_iteratorIPKSt6vectorIS1_IiSaIiEESaIS3_EES1_IS5_SaIS5_EEE4baseEv
FN:847,_ZNK9__gnu_cxx17__normal_iteratorIPKiSt6vectorIiSaIiEEE4baseEv
FN:883,_ZN9__gnu_cxxneIPKSt6vectorIS1_IiSaIiEESaIS3_EES1_IS5_SaIS5_EEEEbRKNS_17__normal_iteratorIT_T0_EESF_
FN:883,_ZN9__gnu_cxxneIPKiSt6vectorIiSaIiEEEEbRKNS_17__normal_iteratorIT_T0_EESB_
FN:883,_ZN9__gnu_cxxneIPKSt6vectorIiSaIiEES1_IS3_SaIS3_EEEEbRKNS_17__normal_iteratorIT_T0_EESD_
FN:986,_ZSt12__niter_baseIPKSt6vectorIiSaIiEES0_IS2_SaIS2_EEET_N9__gnu_cxx17__normal_iteratorIS7_T0_EE
FN:986,_ZSt12__niter_baseIPKiSt6vectorIiSaIiEEET_N9__gnu_cxx17__normal_iteratorIS5_T0_EE
FN:986,_ZSt12__niter_baseIPKSt6vectorIS0_IiSaIiEESaIS2_EES0_IS4_SaIS4_EEET_N9__gnu_cxx17__normal_iteratorIS9_T0_EE
FNDA:0,_ZN9__gnu_cxx17__normal_iteratorIPKiSt6vectorIiSaIiEEEC2ERKS2_
FNDA:18,_ZN9__gnu_cxx17__normal_iteratorIPKSt6vectorIS1_IiSaIiEESaIS3_EES1_IS5_SaIS5_EEEC2ERKS7_
FNDA:0,_ZN9__gnu_cxx17__normal_iteratorIPKSt6vectorIiSaIiEES1_IS3_SaIS3_EEEC2ERKS5_
FNDA:0,_ZNK9__gnu_cxx17__normal_iteratorIPKiSt6vectorIiSaIiEEEdeEv
FNDA:0,_ZNK9__gnu_cxx17__normal_iteratorIPKSt6vectorIS1_IiSaIiEESaIS3_EES1_IS5_SaIS5_EEEdeEv
FNDA:0,_ZNK9__gnu_cxx17__normal_iteratorIPKSt6vectorIiSaIiEES1_IS3_SaIS3_EEEdeEv
FNDA:0,_ZN9__gnu_cxx17__normal_iteratorIPKiSt6vectorIiSaIiEEEppEv
FNDA:0,_ZN9__gnu_cxx17__normal_iteratorIPKSt6vectorIS1_IiSaIiEESaIS3_EES1_IS5_SaIS5_EEEppEv
FNDA:0,_ZN9__gnu_cxx17__normal_iteratorIPKSt6vectorIiSaIiEES1_IS3_SaIS3_EEEppEv
FNDA:0,_ZNK9__gnu_cxx17__normal_iteratorIPKiSt6vectorIiSaIiEEE4baseEv
FNDA:18,_ZNK9__gnu_cxx17__normal_iteratorIPKSt6vectorIS1_IiSaIiEESaIS3_EES1_IS5_SaIS5_EEE4baseEv
FNDA:0,_ZNK9__gnu_cxx17__normal_iteratorIPKSt6vectorIiSaIiEES1_IS3_SaIS3_EEE4baseEv
FNDA:0,_ZN9__gnu_cxxneIPKiSt6vectorIiSaIiEEEEbRKNS_17__normal_iteratorIT_T0_EESB_
FNDA:0,_ZN9__gnu_cxxneIPKSt6vectorIS1_IiSaIiEESaIS3_EES1_IS5_SaIS5_EEEEbRKNS_17__normal_iteratorIT_T0_EESF_
FNDA:0,_ZN9__gnu_cxxneIPKSt6vectorIiSaIiEES1_IS3_SaIS3_EEEEbRKNS_17__normal_iteratorIT_T0_EESD_
FNDA:0,_ZSt12__niter_baseIPKiSt6vectorIiSaIiEEET_N9__gnu_cxx17__normal_iteratorIS5_T0_EE
FNDA:18,_ZSt12__niter_baseIPKSt6vectorIS0_IiSaIiEESaIS2_EES0_IS4_SaIS4_EEET_N9__gnu_cxx17__normal_iteratorIS9_T0_EE
FNDA:0,_ZSt12__niter_baseIPKSt6vectorIiSaIiEES0_IS2_SaIS2_EEET_N9__gnu_cxx17__normal_iteratorIS7_T0_EE
FNF:18
FNH:3
DA:782,18
DA:783,18
DA:795,0
DA:796,0
DA:803,0
DA:805,0
DA:806,0
DA:847,18
DA:848,18
DA:883,0
DA:886,0
DA:986,18
DA:987,18
LF:13
LH:6
end_of_record
SF:/usr/include/c++/7/bits/stl_iterator_base_funcs.h
FN:98,_ZSt10__distanceIPKSt6vectorIiSaIiEEENSt15iterator_traitsIT_E15difference_typeES6_S6_St26random_access_iterator_tag
FN:98,_ZSt10__distanceIPKiENSt15iterator_traitsIT_E15difference_typeES3_S3_St26random_access_iterator_tag
FN:98,_ZSt10__distanceIPKSt6vectorIS0_IiSaIiEESaIS2_EEENSt15iterator_traitsIT_E15difference_typeES8_S8_St26random_access_iterator_tag
FN:138,_ZSt8distanceIPKSt6vectorIS0_IiSaIiEESaIS2_EEENSt15iterator_traitsIT_E15difference_typeES8_S8_
FN:138,_ZSt8distanceIPKSt6vectorIiSaIiEEENSt15iterator_traitsIT_E15difference_typeES6_S6_
FN:138,_ZSt8distanceIPKiENSt15iterator_traitsIT_E15difference_typeES3_S3_
FNDA:12,_ZSt10__distanceIPKSt6vectorIS0_IiSaIiEESaIS2_EEENSt15iterator_traitsIT_E15difference_typeES8_S8_St26random_access_iterator_tag
FNDA:0,_ZSt10__distanceIPKSt6vectorIiSaIiEEENSt15iterator_traitsIT_E15difference_typeES6_S6_St26random_access_iterator_tag
FNDA:0,_ZSt10__distanceIPKiENSt15iterator_traitsIT_E15difference_typeES3_S3_St26random_access_iterator_tag
FNDA:12,_ZSt8distanceIPKSt6vectorIS0_IiSaIiEESaIS2_EEENSt15iterator_traitsIT_E15difference_typeES8_S8_
FNDA:0,_ZSt8distanceIPKSt6vectorIiSaIiEEENSt15iterator_traitsIT_E15difference_typeES6_S6_
FNDA:0,_ZSt8distanceIPKiENSt15iterator_traitsIT_E15difference_typeES3_S3_
FNF:6
FNH:2
DA:98,12
DA:104,12
DA:138,12
DA:141,12
DA:142,24
LF:5
LH:5
end_of_record
SF:/usr/include/c++/7/bits/stl_iterator_base_types.h
FN:205,_ZSt19__iterator_categoryIPKSt6vectorIS0_IiSaIiEESaIS2_EEENSt15iterator_traitsIT_E17iterator_categoryERKS8_
FN:205,_ZSt19__iterator_categoryIPKSt6vectorIiSaIiEEENSt15iterator_traitsIT_E17iterator_categoryERKS6_
FN:205,_ZSt19__iterator_categoryIPKiENSt15iterator_traitsIT_E17iterator_categoryERKS3_
FNDA:12,_ZSt19__iterator_categoryIPKSt6vectorIS0_IiSaIiEESaIS2_EEENSt15iterator_traitsIT_E17iterator_categoryERKS8_
FNDA:0,_ZSt19__iterator_categoryIPKSt6vectorIiSaIiEEENSt15iterator_traitsIT_E17iterator_categoryERKS6_
FNDA:0,_ZSt19__iterator_categoryIPKiENSt15iterator_traitsIT_E17iterator_categoryERKS3_
FNF:3
FNH:1
DA:205,12
DA:206,12
LF:2
LH:2
end_of_record
SF:/usr/include/c++/7/bits/stl_uninitialized.h
FN:76,_ZNSt20__uninitialized_copyILb0EE13__uninit_copyIPKSt6vectorIS2_IiSaIiEESaIS4_EEPS6_EET0_T_SB_SA_
FN:76,_ZNSt20__uninitialized_copyILb0EE13__uninit_copyIPKSt6vectorIiSaIiEEPS4_EET0_T_S9_S8_
FN:76,_ZNSt20__uninitialized_copyILb0EE13__uninit_copyIN9__gnu_cxx17__normal_iteratorIPKSt6vectorIiSaIiEES4_IS6_SaIS6_EEEEPS6_EET0_T_SE_SD_
FN:99,_ZNSt20__uninitialized_copyILb1EE13__uninit_copyIN9__gnu_cxx17__normal_iteratorIPKiSt6vectorIiSaIiEEEEPiEET0_T_SC_SB_
FN:99,_ZNSt20__uninitialized_copyILb1EE13__uninit_copyIPKiPiEET0_T_S6_S5_
FN:115,_ZSt18uninitialized_copyIN9__gnu_cxx17__normal_iteratorIPKiSt6vectorIiSaIiEEEEPiET0_T_SA_S9_
FN:115,_ZSt18uninitialized_copyIPKSt6vectorIS0_IiSaIiEESaIS2_EEPS4_ET0_T_S9_S8_
FN:115,_ZSt18uninitialized_copyIPKSt6vectorIiSaIiEEPS2_ET0_T_S7_S6_
FN:115,_ZSt18uninitialized_copyIPKiPiET0_T_S4_S3_
FN:115,_ZSt18uninitialized_copyIN9__gnu_cxx17__normal_iteratorIPKSt6vectorIiSaIiEES2_IS4_SaIS4_EEEEPS4_ET0_T_SC_SB_
FN:287,_ZSt22__uninitialized_copy_aIN9__gnu_cxx17__normal_iteratorIPKiSt6vectorIiSaIiEEEEPiiET0_T_SA_S9_RSaIT1_E
FN:287,_ZSt22__uninitialized_copy_aIPKSt6vectorIiSaIiEEPS2_S2_ET0_T_S7_S6_RSaIT1_E
FN:287,_ZSt22__uninitialized_copy_aIN9__gnu_cxx17__normal_iteratorIPKSt6vectorIiSaIiEES2_IS4_SaIS4_EEEEPS4_S4_ET0_T_SC_SB_RSaIT1_E
FN:287,_ZSt22__uninitialized_copy_aIPKiPiiET0_T_S4_S3_RSaIT1_E
FN:287,_ZSt22__uninitialized_copy_aIPKSt6vectorIS0_IiSaIiEESaIS2_EEPS4_S4_ET0_T_S9_S8_RSaIT1_E
FNDA:0,_ZNSt20__uninitialized_copyILb0EE13__uninit_copyIN9__gnu_cxx17__normal_iteratorIPKSt6vectorIiSaIiEES4_IS6_SaIS6_EEEEPS6_EET0_T_SE_SD_
FNDA:12,_ZNSt20__uninitialized_copyILb0EE13__uninit_copyIPKSt6vectorIS2_IiSaIiEESaIS4_EEPS6_EET0_T_SB_SA_
FNDA:0,_ZNSt20__uninitialized_copyILb0EE13__uninit_copyIPKSt6vectorIiSaIiEEPS4_EET0_T_S9_S8_
FNDA:0,_ZNSt20__uninitialized_copyILb1EE13__uninit_copyIN9__gnu_cxx17__normal_iteratorIPKiSt6vectorIiSaIiEEEEPiEET0_T_SC_SB_
FNDA:0,_ZNSt20__uninitialized_copyILb1EE13__uninit_copyIPKiPiEET0_T_S6_S5_
FNDA:0,_ZSt18uninitialized_copyIN9__gnu_cxx17__normal_iteratorIPKSt6vectorIiSaIiEES2_IS4_SaIS4_EEEEPS4_ET0_T_SC_SB_
FNDA:0,_ZSt18uninitialized_copyIN9__gnu_cxx17__normal_iteratorIPKiSt6vectorIiSaIiEEEEPiET0_T_SA_S9_
FNDA:12,_ZSt18uninitialized_copyIPKSt6vectorIS0_IiSaIiEESaIS2_EEPS4_ET0_T_S9_S8_
FNDA:0,_ZSt18uninitialized_copyIPKSt6vectorIiSaIiEEPS2_ET0_T_S7_S6_
FNDA:0,_ZSt18uninitialized_copyIPKiPiET0_T_S4_S3_
FNDA:0,_ZSt22__uninitialized_copy_aIN9__gnu_cxx17__normal_iteratorIPKSt6vectorIiSaIiEES2_IS4_SaIS4_EEEEPS4_S4_ET0_T_SC_SB_RSaIT1_E
FNDA:0,_ZSt22__uninitialized_copy_aIN9__gnu_cxx17__normal_iteratorIPKiSt6vectorIiSaIiEEEEPiiET0_T_SA_S9_RSaIT1_E
FNDA:12,_ZSt22__uninitialized_copy_aIPKSt6vectorIS0_IiSaIiEESaIS2_EEPS4_S4_ET0_T_S9_S8_RSaIT1_E
FNDA:0,_ZSt22__uninitialized_copy_aIPKSt6vectorIiSaIiEEPS2_S2_ET0_T_S7_S6_RSaIT1_E
FNDA:0,_ZSt22__uninitialized_copy_aIPKiPiiET0_T_S4_S3_RSaIT1_E
FNF:15
FNH:3
DA:76,12
DA:79,12
DA:82,68
DA:83,28
DA:84,12
DA:86,0
DA:88,0
DA:89,0
DA:99,0
DA:101,0
DA:115,12
DA:128,12
DA:134,12
DA:287,12
DA:289,12
LF:15
LH:10
end_of_record
SF:/usr/include/c++/7/bits/stl_vector.h
FN:81,_ZNSt12_Vector_baseISt6vectorIiSaIiEESaIS2_EE12_Vector_implD2Ev
FN:81,_ZNSt12_Vector_baseIiSaIiEE12_Vector_implD2Ev
FN:81,_ZNSt12_Vector_baseISt6vectorIS0_IiSaIiEESaIS2_EESaIS4_EE12_Vector_implD2Ev
FN:88,_ZNSt12_Vector_baseISt6vectorIS0_IiSaIiEESaIS2_EESaIS4_EE12_Vector_implC2Ev
FN:88,_ZNSt12_Vector_baseISt6vectorIiSaIiEESaIS2_EE12_Vector_implC2Ev
FN:92,_ZNSt12_Vector_baseISt6vectorIS0_IiSaIiEESaIS2_EESaIS4_EE12_Vector_implC2ERKS5_
FN:92,_ZNSt12_Vector_baseISt6vectorIiSaIiEESaIS2_EE12_Vector_implC2ERKS3_
FN:92,_ZNSt12_Vector_baseIiSaIiEE12_Vector_implC2ERKS0_
FN:115,_ZNSt12_Vector_baseISt6vectorIS0_IiSaIiEESaIS2_EESaIS4_EE19_M_get_Tp_allocatorEv
FN:115,_ZNSt12_Vector_baseIiSaIiEE19_M_get_Tp_allocatorEv
FN:115,_ZNSt12_Vector_baseISt6vectorIiSaIiEESaIS2_EE19_M_get_Tp_allocatorEv
FN:119,_ZNKSt12_Vector_baseIiSaIiEE19_M_get_Tp_allocatorEv
FN:119,_ZNKSt12_Vector_baseISt6vectorIiSaIiEESaIS2_EE19_M_get_Tp_allocatorEv
FN:126,_ZNSt12_Vector_baseISt6vectorIS0_IiSaIiEESaIS2_EESaIS4_EEC2Ev
FN:126,_ZNSt12_Vector_baseISt6vectorIiSaIiEESaIS2_EEC2Ev
FN:129,_ZNSt12_Vector_baseIiSaIiEEC2ERKS0_
FN:129,_ZNSt12_Vector_baseISt6vectorIS0_IiSaIiEESaIS2_EESaIS4_EEC2ERKS5_
FN:129,_ZNSt12_Vector_baseISt6vectorIiSaIiEESaIS2_EEC2ERKS3_
FN:136,_ZNSt12_Vector_baseIiSaIiEEC2EmRKS0_
FN:136,_ZNSt12_Vector_baseISt6vectorIiSaIiEESaIS2_EEC2EmRKS3_
FN:161,_ZNSt12_Vector_baseISt6vectorIS0_IiSaIiEESaIS2_EESaIS4_EED2Ev
FN:161,_ZNSt12_Vector_baseIiSaIiEED2Ev
FN:161,_ZNSt12_Vector_baseISt6vectorIiSaIiEESaIS2_EED2Ev
FN:169,_ZNSt12_Vector_baseISt6vectorIS0_IiSaIiEESaIS2_EESaIS4_EE11_M_allocateEm
FN:169,_ZNSt12_Vector_baseIiSaIiEE11_M_allocateEm
FN:169,_ZNSt12_Vector_baseISt6vectorIiSaIiEESaIS2_EE11_M_allocateEm
FN:176,_ZNSt12_Vector_baseISt6vectorIiSaIiEESaIS2_EE13_M_deallocateEPS2_m
FN:176,_ZNSt12_Vector_baseIiSaIiEE13_M_deallocateEPim
FN:176,_ZNSt12_Vector_baseISt6vectorIS0_IiSaIiEESaIS2_EESaIS4_EE13_M_deallocateEPS4_m
FN:185,_ZNSt12_Vector_baseISt6vectorIiSaIiEESaIS2_EE17_M_create_storageEm
FN:185,_ZNSt12_Vector_baseIiSaIiEE17_M_create_storageEm
FN:259,_ZNSt6vectorIS_IS_IiSaIiEESaIS1_EESaIS3_EEC2Ev
FN:259,_ZNSt6vectorIS_IiSaIiEESaIS1_EEC2Ev
FN:326,_ZNSt6vectorIiSaIiEEC2ERKS1_
FN:326,_ZNSt6vectorIS_IiSaIiEESaIS1_EEC2ERKS3_
FN:383,_ZNSt6vectorIiSaIiEEC2ESt16initializer_listIiERKS0_
FN:383,_ZNSt6vectorIS_IiSaIiEESaIS1_EEC2ESt16initializer_listIS1_ERKS2_
FN:383,_ZNSt6vectorIS_IS_IiSaIiEESaIS1_EESaIS3_EEC2ESt16initializer_listIS3_ERKS4_
FN:433,_ZNSt6vectorIS_IiSaIiEESaIS1_EED2Ev
FN:433,_ZNSt6vectorIiSaIiEED2Ev
FN:433,_ZNSt6vectorIS_IS_IiSaIiEESaIS1_EESaIS3_EED2Ev
FN:572,_ZNKSt6vectorIiSaIiEE5beginEv
FN:572,_ZNKSt6vectorIS_IS_IiSaIiEESaIS1_EESaIS3_EE5beginEv
FN:572,_ZNKSt6vectorIS_IiSaIiEESaIS1_EE5beginEv
FN:590,_ZNKSt6vectorIiSaIiEE3endEv
FN:590,_ZNKSt6vectorIS_IiSaIiEESaIS1_EE3endEv
FN:590,_ZNKSt6vectorIS_IS_IiSaIiEESaIS1_EESaIS3_EE3endEv
FN:670,_ZNKSt6vectorIiSaIiEE4sizeEv
FN:670,_ZNKSt6vectorIS_IiSaIiEESaIS1_EE4sizeEv
FN:670,_ZNKSt6vectorIS_IS_IiSaIiEESaIS1_EESaIS3_EE4sizeEv
FN:1324,_ZNSt6vectorIS_IiSaIiEESaIS1_EE19_M_range_initializeIPKS1_EEvT_S7_St20forward_iterator_tag
FN:1324,_ZNSt6vectorIS_IS_IiSaIiEESaIS1_EESaIS3_EE19_M_range_initializeIPKS3_EEvT_S9_St20forward_iterator_tag
FN:1324,_ZNSt6vectorIiSaIiEE19_M_range_initializeIPKiEEvT_S5_St20forward_iterator_tag
FN:1601,_ZSteqIiSaIiEEbRKSt6vectorIT_T0_ES6_
FN:1601,_ZSteqISt6vectorIiSaIiEESaIS2_EEbRKS0_IT_T0_ES8_
FN:1601,_ZSteqISt6vectorIS0_IiSaIiEESaIS2_EESaIS4_EEbRKS0_IT_T0_ESA_
FNDA:0,_ZNSt12_Vector_baseISt6vectorIS0_IiSaIiEESaIS2_EESaIS4_EE12_Vector_implD2Ev
FNDA:0,_ZNSt12_Vector_baseISt6vectorIiSaIiEESaIS2_EE12_Vector_implD2Ev
FNDA:0,_ZNSt12_Vector_baseIiSaIiEE12_Vector_implD2Ev
FNDA:0,_ZNSt12_Vector_baseISt6vectorIS0_IiSaIiEESaIS2_EESaIS4_EE12_Vector_implC2Ev
FNDA:0,_ZNSt12_Vector_baseISt6vectorIiSaIiEESaIS2_EE12_Vector_implC2Ev
FNDA:12,_ZNSt12_Vector_baseISt6vectorIS0_IiSaIiEESaIS2_EESaIS4_EE12_Vector_implC2ERKS5_
FNDA:0,_ZNSt12_Vector_baseISt6vectorIiSaIiEESaIS2_EE12_Vector_implC2ERKS3_
FNDA:0,_ZNSt12_Vector_baseIiSaIiEE12_Vector_implC2ERKS0_
FNDA:0,_ZNSt12_Vector_baseISt6vectorIS0_IiSaIiEESaIS2_EESaIS4_EE19_M_get_Tp_allocatorEv
FNDA:0,_ZNSt12_Vector_baseISt6vectorIiSaIiEESaIS2_EE19_M_get_Tp_allocatorEv
FNDA:0,_ZNSt12_Vector_baseIiSaIiEE19_M_get_Tp_allocatorEv
FNDA:0,_ZNKSt12_Vector_baseISt6vectorIiSaIiEESaIS2_EE19_M_get_Tp_allocatorEv
FNDA:0,_ZNKSt12_Vector_baseIiSaIiEE19_M_get_Tp_allocatorEv
FNDA:0,_ZNSt12_Vector_baseISt6vectorIS0_IiSaIiEESaIS2_EESaIS4_EEC2Ev
FNDA:0,_ZNSt12_Vector_baseISt6vectorIiSaIiEESaIS2_EEC2Ev
FNDA:12,_ZNSt12_Vector_baseISt6vectorIS0_IiSaIiEESaIS2_EESaIS4_EEC2ERKS5_
FNDA:0,_ZNSt12_Vector_baseISt6vectorIiSaIiEESaIS2_EEC2ERKS3_
FNDA:0,_ZNSt12_Vector_baseIiSaIiEEC2ERKS0_
FNDA:0,_ZNSt12_Vector_baseISt6vectorIiSaIiEESaIS2_EEC2EmRKS3_
FNDA:0,_ZNSt12_Vector_baseIiSaIiEEC2EmRKS0_
FNDA:0,_ZNSt12_Vector_baseISt6vectorIS0_IiSaIiEESaIS2_EESaIS4_EED2Ev
FNDA:0,_ZNSt12_Vector_baseISt6vectorIiSaIiEESaIS2_EED2Ev
FNDA:0,_ZNSt12_Vector_baseIiSaIiEED2Ev
FNDA:0,_ZNSt12_Vector_baseISt6vectorIS0_IiSaIiEESaIS2_EESaIS4_EE11_M_allocateEm
FNDA:0,_ZNSt12_Vector_baseISt6vectorIiSaIiEESaIS2_EE11_M_allocateEm
FNDA:0,_ZNSt12_Vector_baseIiSaIiEE11_M_allocateEm
FNDA:0,_ZNSt12_Vector_baseISt6vectorIS0_IiSaIiEESaIS2_EESaIS4_EE13_M_deallocateEPS4_m
FNDA:0,_ZNSt12_Vector_baseISt6vectorIiSaIiEESaIS2_EE13_M_deallocateEPS2_m
FNDA:0,_ZNSt12_Vector_baseIiSaIiEE13_M_deallocateEPim
FNDA:0,_ZNSt12_Vector_baseISt6vectorIiSaIiEESaIS2_EE17_M_create_storageEm
FNDA:0,_ZNSt12_Vector_baseIiSaIiEE17_M_create_storageEm
FNDA:0,_ZNSt6vectorIS_IS_IiSaIiEESaIS1_EESaIS3_EEC2Ev
FNDA:0,_ZNSt6vectorIS_IiSaIiEESaIS1_EEC2Ev
FNDA:0,_ZNSt6vectorIS_IiSaIiEESaIS1_EEC2ERKS3_
FNDA:0,_ZNSt6vectorIiSaIiEEC2ERKS1_
FNDA:12,_ZNSt6vectorIS_IS_IiSaIiEESaIS1_EESaIS3_EEC2ESt16initializer_listIS3_ERKS4_
FNDA:0,_ZNSt6vectorIS_IiSaIiEESaIS1_EEC2ESt16initializer_listIS1_ERKS2_
FNDA:0,_ZNSt6vectorIiSaIiEEC2ESt16initializer_listIiERKS0_
FNDA:0,_ZNSt6vectorIS_IS_IiSaIiEESaIS1_EESaIS3_EED2Ev
FNDA:0,_ZNSt6vectorIS_IiSaIiEESaIS1_EED2Ev
FNDA:0,_ZNSt6vectorIiSaIiEED2Ev
FNDA:0,_ZNKSt6vectorIiSaIiEE5beginEv
FNDA:12,_ZNKSt6vectorIS_IS_IiSaIiEESaIS1_EESaIS3_EE5beginEv
FNDA:0,_ZNKSt6vectorIS_IiSaIiEESaIS1_EE5beginEv
FNDA:0,_ZNKSt6vectorIiSaIiEE3endEv
FNDA:6,_ZNKSt6vectorIS_IS_IiSaIiEESaIS1_EESaIS3_EE3endEv
FNDA:0,_ZNKSt6vectorIS_IiSaIiEESaIS1_EE3endEv
FNDA:0,_ZNKSt6vectorIiSaIiEE4sizeEv
FNDA:0,_ZNKSt6vectorIS_IS_IiSaIiEESaIS1_EESaIS3_EE4sizeEv
FNDA:0,_ZNKSt6vectorIS_IiSaIiEESaIS1_EE4sizeEv
FNDA:12,_ZNSt6vectorIS_IS_IiSaIiEESaIS1_EESaIS3_EE19_M_range_initializeIPKS3_EEvT_S9_St20forward_iterator_tag
FNDA:0,_ZNSt6vectorIS_IiSaIiEESaIS1_EE19_M_range_initializeIPKS1_EEvT_S7_St20forward_iterator_tag
FNDA:0,_ZNSt6vectorIiSaIiEE19_M_range_initializeIPKiEEvT_S5_St20forward_iterator_tag
FNDA:0,_ZSteqIiSaIiEEbRKSt6vectorIT_T0_ES6_
FNDA:6,_ZSteqISt6vectorIS0_IiSaIiEESaIS2_EESaIS4_EEbRKS0_IT_T0_ESA_
FNDA:0,_ZSteqISt6vectorIiSaIiEESaIS2_EEbRKS0_IT_T0_ES8_
FNF:56
FNH:7
DA:81,0
DA:88,0
DA:89,0
DA:90,0
DA:92,12
DA:93,12
DA:94,12
DA:115,0
DA:116,0
DA:119,0
DA:120,0
DA:126,0
DA:127,0
DA:129,12
DA:130,12
DA:136,0
DA:137,0
DA:138,0
DA:161,0
DA:162,0
DA:163,0
DA:169,0
DA:172,0
DA:176,0
DA:179,0
DA:180,0
DA:181,0
DA:185,0
DA:187,0
DA:188,0
DA:189,0
DA:190,0
DA:259,0
DA:263,0
DA:326,0
DA:328,0
DA:330,0
DA:331,0
DA:333,0
DA:334,0
DA:383,12
DA:385,12
DA:387,12
DA:389,12
DA:433,0
DA:434,0
DA:435,0
DA:572,12
DA:573,12
DA:590,6
DA:591,6
DA:670,0
DA:671,0
DA:1324,12
DA:1327,12
DA:1328,12
DA:1329,12
DA:1330,12
DA:1331,12
DA:1333,12
DA:1334,12
DA:1601,6
DA:1602,6
DA:1603,6
LF:64
LH:24
end_of_record
SF:/usr/include/c++/7/bits/unique_ptr.h
FN:72,_ZNKSt14default_deleteINSt7__cxx1118basic_stringstreamIcSt11char_traitsIcESaIcEEEEclEPS5_
FN:72,_ZNKSt14default_deleteINSt7__cxx1112basic_stringIcSt11char_traitsIcESaIcEEEEclEPS5_
FN:139,_ZNSt15__uniq_ptr_implINSt7__cxx1112basic_stringIcSt11char_traitsIcESaIcEEESt14default_deleteIS5_EEC2Ev
FN:146,_ZNSt15__uniq_ptr_implINSt7__cxx1118basic_stringstreamIcSt11char_traitsIcESaIcEEESt14default_deleteIS5_EE6_M_ptrEv
FN:146,_ZNSt15__uniq_ptr_implINSt7__cxx1112basic_stringIcSt11char_traitsIcESaIcEEESt14default_deleteIS5_EE6_M_ptrEv
FN:147,_ZNKSt15__uniq_ptr_implINSt7__cxx1112basic_stringIcSt11char_traitsIcESaIcEEESt14default_deleteIS5_EE6_M_ptrEv
FN:148,_ZNSt15__uniq_ptr_implINSt7__cxx1112basic_stringIcSt11char_traitsIcESaIcEEESt14default_deleteIS5_EE10_M_deleterEv
FN:148,_ZNSt15__uniq_ptr_implINSt7__cxx1118basic_stringstreamIcSt11char_traitsIcESaIcEEESt14default_deleteIS5_EE10_M_deleterEv
FN:188,_ZNSt10unique_ptrINSt7__cxx1112basic_stringIcSt11char_traitsIcESaIcEEESt14default_deleteIS5_EEC2IS7_vEEv
FN:264,_ZNSt10unique_ptrINSt7__cxx1112basic_stringIcSt11char_traitsIcESaIcEEESt14default_deleteIS5_EED2Ev
FN:264,_ZNSt10unique_ptrINSt7__cxx1118basic_stringstreamIcSt11char_traitsIcESaIcEEESt14default_deleteIS5_EED2Ev
FN:328,_ZNKSt10unique_ptrINSt7__cxx1112basic_stringIcSt11char_traitsIcESaIcEEESt14default_deleteIS5_EEptEv
FN:336,_ZNKSt10unique_ptrINSt7__cxx1112basic_stringIcSt11char_traitsIcESaIcEEESt14default_deleteIS5_EE3getEv
FN:341,_ZNSt10unique_ptrINSt7__cxx1118basic_stringstreamIcSt11char_traitsIcESaIcEEESt14default_deleteIS5_EE11get_deleterEv
FN:341,_ZNSt10unique_ptrINSt7__cxx1112basic_stringIcSt11char_traitsIcESaIcEEESt14default_deleteIS5_EE11get_deleterEv
FNDA:0,_ZNKSt14default_deleteINSt7__cxx1112basic_stringIcSt11char_traitsIcESaIcEEEEclEPS5_
FNDA:0,_ZNKSt14default_deleteINSt7__cxx1118basic_stringstreamIcSt11char_traitsIcESaIcEEEEclEPS5_
FNDA:0,_ZNSt15__uniq_ptr_implINSt7__cxx1112basic_stringIcSt11char_traitsIcESaIcEEESt14default_deleteIS5_EEC2Ev
FNDA:0,_ZNSt15__uniq_ptr_implINSt7__cxx1112basic_stringIcSt11char_traitsIcESaIcEEESt14default_deleteIS5_EE6_M_ptrEv
FNDA:0,_ZNSt15__uniq_ptr_implINSt7__cxx1118basic_stringstreamIcSt11char_traitsIcESaIcEEESt14default_deleteIS5_EE6_M_ptrEv
FNDA:0,_ZNKSt15__uniq_ptr_implINSt7__cxx1112basic_stringIcSt11char_traitsIcESaIcEEESt14default_deleteIS5_EE6_M_ptrEv
FNDA:0,_ZNSt15__uniq_ptr_implINSt7__cxx1112basic_stringIcSt11char_traitsIcESaIcEEESt14default_deleteIS5_EE10_M_deleterEv
FNDA:0,_ZNSt15__uniq_ptr_implINSt7__cxx1118basic_stringstreamIcSt11char_traitsIcESaIcEEESt14default_deleteIS5_EE10_M_deleterEv
FNDA:0,_ZNSt10unique_ptrINSt7__cxx1112basic_stringIcSt11char_traitsIcESaIcEEESt14default_deleteIS5_EEC2IS7_vEEv
FNDA:0,_ZNSt10unique_ptrINSt7__cxx1112basic_stringIcSt11char_traitsIcESaIcEEESt14default_deleteIS5_EED2Ev
FNDA:0,_ZNSt10unique_ptrINSt7__cxx1118basic_stringstreamIcSt11char_traitsIcESaIcEEESt14default_deleteIS5_EED2Ev
FNDA:0,_ZNKSt10unique_ptrINSt7__cxx1112basic_stringIcSt11char_traitsIcESaIcEEESt14default_deleteIS5_EEptEv
FNDA:0,_ZNKSt10unique_ptrINSt7__cxx1112basic_stringIcSt11char_traitsIcESaIcEEESt14default_deleteIS5_EE3getEv
FNDA:0,_ZNSt10unique_ptrINSt7__cxx1112basic_stringIcSt11char_traitsIcESaIcEEESt14default_deleteIS5_EE11get_deleterEv
FNDA:0,_ZNSt10unique_ptrINSt7__cxx1118basic_stringstreamIcSt11char_traitsIcESaIcEEESt14default_deleteIS5_EE11get_deleterEv
FNF:15
FNH:0
DA:72,0
DA:78,0
DA:79,0
DA:139,0
DA:146,0
DA:147,0
DA:148,0
DA:188,0
DA:189,0
DA:190,0
DA:264,0
DA:266,0
DA:267,0
DA:268,0
DA:269,0
DA:270,0
DA:328,0
DA:331,0
DA:336,0
DA:337,0
DA:341,0
DA:342,0
LF:22
LH:0
end_of_record
SF:/usr/include/c++/7/ext/alloc_traits.h
FN:94,_ZN9__gnu_cxx14__alloc_traitsISaISt6vectorIiSaIiEEEE17_S_select_on_copyERKS4_
FN:94,_ZN9__gnu_cxx14__alloc_traitsISaIiEE17_S_select_on_copyERKS1_
FNDA:0,_ZN9__gnu_cxx14__alloc_traitsISaISt6vectorIiSaIiEEEE17_S_select_on_copyERKS4_
FNDA:0,_ZN9__gnu_cxx14__alloc_traitsISaIiEE17_S_select_on_copyERKS1_
FNF:2
FNH:0
DA:94,0
DA:95,0
LF:2
LH:0
end_of_record
SF:/usr/include/c++/7/ext/new_allocator.h
FN:79,_ZN9__gnu_cxx13new_allocatorIiEC2Ev
FN:79,_ZN9__gnu_cxx13new_allocatorISt6vectorIS1_IiSaIiEESaIS3_EEEC2Ev
FN:79,_ZN9__gnu_cxx13new_allocatorISt6vectorIiSaIiEEEC2Ev
FN:81,_ZN9__gnu_cxx13new_allocatorISt6vectorIS1_IiSaIiEESaIS3_EEEC2ERKS6_
FN:81,_ZN9__gnu_cxx13new_allocatorISt6vectorIiSaIiEEEC2ERKS4_
FN:81,_ZN9__gnu_cxx13new_allocatorIiEC2ERKS1_
FN:86,_ZN9__gnu_cxx13new_allocatorISt6vectorIS1_IiSaIiEESaIS3_EEED2Ev
FN:86,_ZN9__gnu_cxx13new_allocatorISt6vectorIiSaIiEEED2Ev
FN:86,_ZN9__gnu_cxx13new_allocatorIiED2Ev
FN:99,_ZN9__gnu_cxx13new_allocatorIiE8allocateEmPKv
FN:99,_ZN9__gnu_cxx13new_allocatorISt6vectorIS1_IiSaIiEESaIS3_EEE8allocateEmPKv
FN:99,_ZN9__gnu_cxx13new_allocatorISt6vectorIiSaIiEEE8allocateEmPKv
FN:116,_ZN9__gnu_cxx13new_allocatorISt6vectorIiSaIiEEE10deallocateEPS3_m
FN:116,_ZN9__gnu_cxx13new_allocatorIiE10deallocateEPim
FN:116,_ZN9__gnu_cxx13new_allocatorISt6vectorIS1_IiSaIiEESaIS3_EEE10deallocateEPS5_m
FN:129,_ZNK9__gnu_cxx13new_allocatorIiE8max_sizeEv
FN:129,_ZNK9__gnu_cxx13new_allocatorISt6vectorIiSaIiEEE8max_sizeEv
FN:129,_ZNK9__gnu_cxx13new_allocatorISt6vectorIS1_IiSaIiEESaIS3_EEE8max_sizeEv
FNDA:0,_ZN9__gnu_cxx13new_allocatorISt6vectorIS1_IiSaIiEESaIS3_EEEC2Ev
FNDA:0,_ZN9__gnu_cxx13new_allocatorISt6vectorIiSaIiEEEC2Ev
FNDA:0,_ZN9__gnu_cxx13new_allocatorIiEC2Ev
FNDA:12,_ZN9__gnu_cxx13new_allocatorISt6vectorIS1_IiSaIiEESaIS3_EEEC2ERKS6_
FNDA:0,_ZN9__gnu_cxx13new_allocatorISt6vectorIiSaIiEEEC2ERKS4_
FNDA:0,_ZN9__gnu_cxx13new_allocatorIiEC2ERKS1_
FNDA:0,_ZN9__gnu_cxx13new_allocatorISt6vectorIS1_IiSaIiEESaIS3_EEED2Ev
FNDA:0,_ZN9__gnu_cxx13new_allocatorISt6vectorIiSaIiEEED2Ev
FNDA:0,_ZN9__gnu_cxx13new_allocatorIiED2Ev
FNDA:0,_ZN9__gnu_cxx13new_allocatorISt6vectorIS1_IiSaIiEESaIS3_EEE8allocateEmPKv
FNDA:0,_ZN9__gnu_cxx13new_allocatorISt6vectorIiSaIiEEE8allocateEmPKv
FNDA:0,_ZN9__gnu_cxx13new_allocatorIiE8allocateEmPKv
FNDA:0,_ZN9__gnu_cxx13new_allocatorISt6vectorIS1_IiSaIiEESaIS3_EEE10deallocateEPS5_m
FNDA:0,_ZN9__gnu_cxx13new_allocatorISt6vectorIiSaIiEEE10deallocateEPS3_m
FNDA:0,_ZN9__gnu_cxx13new_allocatorIiE10deallocateEPim
FNDA:0,_ZNK9__gnu_cxx13new_allocatorISt6vectorIS1_IiSaIiEESaIS3_EEE8max_sizeEv
FNDA:0,_ZNK9__gnu_cxx13new_allocatorISt6vectorIiSaIiEEE8max_sizeEv
FNDA:0,_ZNK9__gnu_cxx13new_allocatorIiE8max_sizeEv
FNF:18
FNH:1
DA:79,0
DA:81,12
DA:86,0
DA:99,0
DA:101,0
DA:102,0
DA:111,0
DA:116,0
DA:125,0
DA:126,0
DA:129,0
DA:130,0
LF:12
LH:1
end_of_record
SF:/usr/include/c++/7/initializer_list
FN:71,_ZNKSt16initializer_listIiE4sizeEv
FN:71,_ZNKSt16initializer_listISt6vectorIiSaIiEEE4sizeEv
FN:71,_ZNKSt16initializer_listISt6vectorIS0_IiSaIiEESaIS2_EEE4sizeEv
FN:75,_ZNKSt16initializer_listISt6vectorIS0_IiSaIiEESaIS2_EEE5beginEv
FN:75,_ZNKSt16initializer_listIiE5beginEv
FN:75,_ZNKSt16initializer_listISt6vectorIiSaIiEEE5beginEv
FN:79,_ZNKSt16initializer_listIiE3endEv
FN:79,_ZNKSt16initializer_listISt6vectorIS0_IiSaIiEESaIS2_EEE3endEv
FN:79,_ZNKSt16initializer_listISt6vectorIiSaIiEEE3endEv
FNDA:12,_ZNKSt16initializer_listISt6vectorIS0_IiSaIiEESaIS2_EEE4sizeEv
FNDA:0,_ZNKSt16initializer_listISt6vectorIiSaIiEEE4sizeEv
FNDA:0,_ZNKSt16initializer_listIiE4sizeEv
FNDA:24,_ZNKSt16initializer_listISt6vectorIS0_IiSaIiEESaIS2_EEE5beginEv
FNDA:0,_ZNKSt16initializer_listISt6vectorIiSaIiEEE5beginEv
FNDA:0,_ZNKSt16initializer_listIiE5beginEv
FNDA:12,_ZNKSt16initializer_listISt6vectorIS0_IiSaIiEESaIS2_EEE3endEv
FNDA:0,_ZNKSt16initializer_listISt6vectorIiSaIiEEE3endEv
FNDA:0,_ZNKSt16initializer_listIiE3endEv
FNF:9
FNH:3
DA:71,12
DA:75,24
DA:79,12
LF:3
LH:3
end_of_record
SF:/usr/include/c++/7/iostream
DA:74,5
LF:1
LH:1
end_of_record
SF:/usr/include/c++/7/new
FN:168,_ZnwmPv
FN:174,_ZdlPvS_
FNDA:0,_ZnwmPv
FNDA:0,_ZdlPvS_
FNF:2
FNH:0
DA:168,0
DA:169,0
DA:174,0
LF:3
LH:0
end_of_record
SF:/usr/include/c++/7/tuple
FN:76,_ZNSt10_Head_baseILm1ESt14default_deleteINSt7__cxx1112basic_stringIcSt11char_traitsIcESaIcEEEELb1EEC2Ev
FN:113,_ZNSt10_Head_baseILm1ESt14default_deleteINSt7__cxx1118basic_stringstreamIcSt11char_traitsIcESaIcEEEELb1EE7_M_headERS8_
FN:113,_ZNSt10_Head_baseILm1ESt14default_deleteINSt7__cxx1112basic_stringIcSt11char_traitsIcESaIcEEEELb1EE7_M_headERS8_
FN:122,_ZNSt10_Head_baseILm0EPNSt7__cxx1112basic_stringIcSt11char_traitsIcESaIcEEELb0EEC2Ev
FN:160,_ZNSt10_Head_baseILm0EPNSt7__cxx1112basic_stringIcSt11char_traitsIcESaIcEEELb0EE7_M_headERS7_
FN:160,_ZNSt10_Head_baseILm0EPNSt7__cxx1118basic_stringstreamIcSt11char_traitsIcESaIcEEELb0EE7_M_headERS7_
FN:163,_ZNSt10_Head_baseILm0EPNSt7__cxx1112basic_stringIcSt11char_traitsIcESaIcEEELb0EE7_M_headERKS7_
FN:195,_ZNSt11_Tuple_implILm0EJPNSt7__cxx1112basic_stringIcSt11char_traitsIcESaIcEEESt14default_deleteIS5_EEE7_M_headERS9_
FN:195,_ZNSt11_Tuple_implILm0EJPNSt7__cxx1118basic_stringstreamIcSt11char_traitsIcESaIcEEESt14default_deleteIS5_EEE7_M_headERS9_
FN:198,_ZNSt11_Tuple_implILm0EJPNSt7__cxx1112basic_stringIcSt11char_traitsIcESaIcEEESt14default_deleteIS5_EEE7_M_headERKS9_
FN:206,_ZNSt11_Tuple_implILm0EJPNSt7__cxx1112basic_stringIcSt11char_traitsIcESaIcEEESt14default_deleteIS5_EEEC2Ev
FN:351,_ZNSt11_Tuple_implILm1EJSt14default_deleteINSt7__cxx1118basic_stringstreamIcSt11char_traitsIcESaIcEEEEEE7_M_headERS8_
FN:351,_ZNSt11_Tuple_implILm1EJSt14default_deleteINSt7__cxx1112basic_stringIcSt11char_traitsIcESaIcEEEEEE7_M_headERS8_
FN:356,_ZNSt11_Tuple_implILm1EJSt14default_deleteINSt7__cxx1112basic_stringIcSt11char_traitsIcESaIcEEEEEEC2Ev
FN:919,_ZNSt5tupleIJPNSt7__cxx1112basic_stringIcSt11char_traitsIcESaIcEEESt14default_deleteIS5_EEEC2IS6_S8_Lb1EEEv
FN:1303,_ZSt12__get_helperILm0EPNSt7__cxx1112basic_stringIcSt11char_traitsIcESaIcEEEJSt14default_deleteIS5_EEERT0_RSt11_Tuple_implIXT_EJS9_DpT1_EE
FN:1303,_ZSt12__get_helperILm1ESt14default_deleteINSt7__cxx1112basic_stringIcSt11char_traitsIcESaIcEEEEJEERT0_RSt11_Tuple_implIXT_EJS8_DpT1_EE
FN:1303,_ZSt12__get_helperILm0EPNSt7__cxx1118basic_stringstreamIcSt11char_traitsIcESaIcEEEJSt14default_deleteIS5_EEERT0_RSt11_Tuple_implIXT_EJS9_DpT1_EE
FN:1303,_ZSt12__get_helperILm1ESt14default_deleteINSt7__cxx1118basic_stringstreamIcSt11char_traitsIcESaIcEEEEJEERT0_RSt11_Tuple_implIXT_EJS8_DpT1_EE
FN:1308,_ZSt12__get_helperILm0EPNSt7__cxx1112basic_stringIcSt11char_traitsIcESaIcEEEJSt14default_deleteIS5_EEERKT0_RKSt11_Tuple_implIXT_EJS9_DpT1_EE
FN:1314,_ZSt3getILm1EJPNSt7__cxx1112basic_stringIcSt11char_traitsIcESaIcEEESt14default_deleteIS5_EEERNSt13tuple_elementIXT_ESt5tupleIJDpT0_EEE4typeERSD_
FN:1314,_ZSt3getILm0EJPNSt7__cxx1112basic_stringIcSt11char_traitsIcESaIcEEESt14default_deleteIS5_EEERNSt13tuple_elementIXT_ESt5tupleIJDpT0_EEE4typeERSD_
FN:1314,_ZSt3getILm1EJPNSt7__cxx1118basic_stringstreamIcSt11char_traitsIcESaIcEEESt14default_deleteIS5_EEERNSt13tuple_elementIXT_ESt5tupleIJDpT0_EEE4typeERSD_
FN:1314,_ZSt3getILm0EJPNSt7__cxx1118basic_stringstreamIcSt11char_traitsIcESaIcEEESt14default_deleteIS5_EEERNSt13tuple_elementIXT_ESt5tupleIJDpT0_EEE4typeERSD_
FN:1320,_ZSt3getILm0EJPNSt7__cxx1112basic_stringIcSt11char_traitsIcESaIcEEESt14default_deleteIS5_EEERKNSt13tuple_elementIXT_ESt5tupleIJDpT0_EEE4typeERKSD_
FNDA:0,_ZNSt10_Head_baseILm1ESt14default_deleteINSt7__cxx1112basic_stringIcSt11char_traitsIcESaIcEEEELb1EEC2Ev
FNDA:0,_ZNSt10_Head_baseILm1ESt14default_deleteINSt7__cxx1112basic_stringIcSt11char_traitsIcESaIcEEEELb1EE7_M_headERS8_
FNDA:0,_ZNSt10_Head_baseILm1ESt14default_deleteINSt7__cxx1118basic_stringstreamIcSt11char_traitsIcESaIcEEEELb1EE7_M_headERS8_
FNDA:0,_ZNSt10_Head_baseILm0EPNSt7__cxx1112basic_stringIcSt11char_traitsIcESaIcEEELb0EEC2Ev
FNDA:0,_ZNSt10_Head_baseILm0EPNSt7__cxx1112basic_stringIcSt11char_traitsIcESaIcEEELb0EE7_M_headERS7_
FNDA:0,_ZNSt10_Head_baseILm0EPNSt7__cxx1118basic_stringstreamIcSt11char_traitsIcESaIcEEELb0EE7_M_headERS7_
FNDA:0,_ZNSt10_Head_baseILm0EPNSt7__cxx1112basic_stringIcSt11char_traitsIcESaIcEEELb0EE7_M_headERKS7_
FNDA:0,_ZNSt11_Tuple_implILm0EJPNSt7__cxx1112basic_stringIcSt11char_traitsIcESaIcEEESt14default_deleteIS5_EEE7_M_headERS9_
FNDA:0,_ZNSt11_Tuple_implILm0EJPNSt7__cxx1118basic_stringstreamIcSt11char_traitsIcESaIcEEESt14default_deleteIS5_EEE7_M_headERS9_
FNDA:0,_ZNSt11_Tuple_implILm0EJPNSt7__cxx1112basic_stringIcSt11char_traitsIcESaIcEEESt14default_deleteIS5_EEE7_M_headERKS9_
FNDA:0,_ZNSt11_Tuple_implILm0EJPNSt7__cxx1112basic_stringIcSt11char_traitsIcESaIcEEESt14default_deleteIS5_EEEC2Ev
FNDA:0,_ZNSt11_Tuple_implILm1EJSt14default_deleteINSt7__cxx1112basic_stringIcSt11char_traitsIcESaIcEEEEEE7_M_headERS8_
FNDA:0,_ZNSt11_Tuple_implILm1EJSt14default_deleteINSt7__cxx1118basic_stringstreamIcSt11char_traitsIcESaIcEEEEEE7_M_headERS8_
FNDA:0,_ZNSt11_Tuple_implILm1EJSt14default_deleteINSt7__cxx1112basic_stringIcSt11char_traitsIcESaIcEEEEEEC2Ev
FNDA:0,_ZNSt5tupleIJPNSt7__cxx1112basic_stringIcSt11char_traitsIcESaIcEEESt14default_deleteIS5_EEEC2IS6_S8_Lb1EEEv
FNDA:0,_ZSt12__get_helperILm1ESt14default_deleteINSt7__cxx1112basic_stringIcSt11char_traitsIcESaIcEEEEJEERT0_RSt11_Tuple_implIXT_EJS8_DpT1_EE
FNDA:0,_ZSt12__get_helperILm1ESt14default_deleteINSt7__cxx1118basic_stringstreamIcSt11char_traitsIcESaIcEEEEJEERT0_RSt11_Tuple_implIXT_EJS8_DpT1_EE
FNDA:0,_ZSt12__get_helperILm0EPNSt7__cxx1112basic_stringIcSt11char_traitsIcESaIcEEEJSt14default_deleteIS5_EEERT0_RSt11_Tuple_implIXT_EJS9_DpT1_EE
FNDA:0,_ZSt12__get_helperILm0EPNSt7__cxx1118basic_stringstreamIcSt11char_traitsIcESaIcEEEJSt14default_deleteIS5_EEERT0_RSt11_Tuple_implIXT_EJS9_DpT1_EE
FNDA:0,_ZSt12__get_helperILm0EPNSt7__cxx1112basic_stringIcSt11char_traitsIcESaIcEEEJSt14default_deleteIS5_EEERKT0_RKSt11_Tuple_implIXT_EJS9_DpT1_EE
FNDA:0,_ZSt3getILm1EJPNSt7__cxx1112basic_stringIcSt11char_traitsIcESaIcEEESt14default_deleteIS5_EEERNSt13tuple_elementIXT_ESt5tupleIJDpT0_EEE4typeERSD_
FNDA:0,_ZSt3getILm1EJPNSt7__cxx1118basic_stringstreamIcSt11char_traitsIcESaIcEEESt14default_deleteIS5_EEERNSt13tuple_elementIXT_ESt5tupleIJDpT0_EEE4typeERSD_
FNDA:0,_ZSt3getILm0EJPNSt7__cxx1112basic_stringIcSt11char_traitsIcESaIcEEESt14default_deleteIS5_EEERNSt13tuple_elementIXT_ESt5tupleIJDpT0_EEE4typeERSD_
FNDA:0,_ZSt3getILm0EJPNSt7__cxx1118basic_stringstreamIcSt11char_traitsIcESaIcEEESt14default_deleteIS5_EEERNSt13tuple_elementIXT_ESt5tupleIJDpT0_EEE4typeERSD_
FNDA:0,_ZSt3getILm0EJPNSt7__cxx1112basic_stringIcSt11char_traitsIcESaIcEEESt14default_deleteIS5_EEERKNSt13tuple_elementIXT_ESt5tupleIJDpT0_EEE4typeERKSD_
FNF:25
FNH:0
DA:76,0
DA:77,0
DA:113,0
DA:122,0
DA:123,0
DA:160,0
DA:163,0
DA:195,0
DA:198,0
DA:206,0
DA:207,0
DA:351,0
DA:356,0
DA:357,0
DA:919,0
DA:920,0
DA:1303,0
DA:1304,0
DA:1308,0
DA:1309,0
DA:1314,0
DA:1315,0
DA:1320,0
DA:1321,0
LF:24
LH:0
end_of_record
TN:
SF:/home/fyulita/Desktop/tpi/algo1-TPI/ejercicios.cpp
FN:7,_Z14esImagenValidaRKSt6vectorIS_IiSaIiEESaIS1_EE
FN:14,_Z20sonPixelesConectadosRKSt6vectorIS_IiSaIiEESaIS1_EERKS1_S7_i
FN:25,_Z21devolverPromedioAreasRKSt6vectorIS_IiSaIiEESaIS1_EEi
FN:37,_Z16calcularContornoRKSt6vectorIS_IiSaIiEESaIS1_EEi
FN:45,_Z11cerrarFormaRSt6vectorIS_IiSaIiEESaIS1_EERKS3_
FN:52,_Z22obtenerRegionConectadaRSt6vectorIS_IiSaIiEESaIS1_EERKS1_
FN:56,_GLOBAL__sub_I__Z14esImagenValidaRKSt6vectorIS_IiSaIiEESaIS1_EE
FN:56,_Z41__static_initialization_and_destruction_0ii
FNDA:10,_Z14esImagenValidaRKSt6vectorIS_IiSaIiEESaIS1_EE
FNDA:34,_Z20sonPixelesConectadosRKSt6vectorIS_IiSaIiEESaIS1_EERKS1_S7_i
FNDA:36,_Z21devolverPromedioAreasRKSt6vectorIS_IiSaIiEESaIS1_EEi
FNDA:8,_Z16calcularContornoRKSt6vectorIS_IiSaIiEESaIS1_EEi
FNDA:4,_Z11cerrarFormaRSt6vectorIS_IiSaIiEESaIS1_EERKS3_
FNDA:8,_Z22obtenerRegionConectadaRSt6vectorIS_IiSaIiEESaIS1_EERKS1_
FNDA:5,_GLOBAL__sub_I__Z14esImagenValidaRKSt6vectorIS_IiSaIiEESaIS1_EE
FNDA:5,_Z41__static_initialization_and_destruction_0ii
FNF:8
FNH:8
DA:7,10
DA:8,10
DA:9,10
DA:14,34
DA:16,34
DA:17,0
DA:19,34
DA:21,34
DA:25,36
DA:27,36
DA:28,8
DA:30,28
DA:32,36
DA:37,8
DA:38,8
DA:39,8
DA:40,8
DA:45,4
DA:46,4
DA:47,4
DA:48,4
DA:52,8
DA:53,8
DA:54,8
DA:55,8
DA:56,15
LF:26
LH:25
end_of_record
SF:/usr/include/c++/7/bits/alloc_traits.h
FN:461,_ZNSt16allocator_traitsISaISt6vectorIiSaIiEEEE10deallocateERS3_PS2_m
FN:461,_ZNSt16allocator_traitsISaIiEE10deallocateERS0_Pim
FN:535,_ZSt18__do_alloc_on_moveISaISt6vectorIiSaIiEEEEvRT_S5_St17integral_constantIbLb1EE
FN:543,_ZSt15__alloc_on_moveISaISt6vectorIiSaIiEEEEvRT_S5_
FNDA:11211317,_ZNSt16allocator_traitsISaIiEE10deallocateERS0_Pim
FNDA:2603822,_ZNSt16allocator_traitsISaISt6vectorIiSaIiEEEE10deallocateERS3_PS2_m
FNDA:8,_ZSt18__do_alloc_on_moveISaISt6vectorIiSaIiEEEEvRT_S5_St17integral_constantIbLb1EE
FNDA:8,_ZSt15__alloc_on_moveISaISt6vectorIiSaIiEEEEvRT_S5_
FNF:4
FNH:4
DA:461,13815139
DA:462,13815139
DA:535,8
DA:536,8
DA:543,8
DA:547,8
DA:548,8
LF:7
LH:7
end_of_record
SF:/usr/include/c++/7/bits/allocator.h
FN:131,_ZNSaISt6vectorIiSaIiEEEC2Ev
FN:133,_ZNSaISt6vectorIiSaIiEEEC2ERKS2_
FN:139,_ZNSaISt6vectorIiSaIiEEED2Ev
FN:139,_ZNSaIiED2Ev
FNDA:26590,_ZNSaISt6vectorIiSaIiEEEC2Ev
FNDA:5112222,_ZNSaISt6vectorIiSaIiEEEC2ERKS2_
FNDA:22474319,_ZNSaIiED2Ev
FNDA:5138812,_ZNSaISt6vectorIiSaIiEEED2Ev
FNF:4
FNH:4
DA:131,26590
DA:133,5112222
DA:134,5112222
DA:139,27613131
LF:4
LH:4
end_of_record
SF:/usr/include/c++/7/bits/move.h
FN:47,_ZSt11__addressofISt6vectorIiSaIiEEEPT_RS3_
FN:98,_ZSt4moveIRSaISt6vectorIiSaIiEEEEONSt16remove_referenceIT_E4typeEOS6_
FN:98,_ZSt4moveIRPSt6vectorIiSaIiEEEONSt16remove_referenceIT_E4typeEOS6_
FN:98,_ZSt4moveIRSt6vectorIS0_IiSaIiEESaIS2_EEEONSt16remove_referenceIT_E4typeEOS7_
FN:187,_ZSt4swapIPSt6vectorIiSaIiEEENSt9enable_ifIXsrSt6__and_IJSt6__not_ISt15__is_tuple_likeIT_EESt21is_move_constructibleIS8_ESt18is_move_assignableIS8_EEE5valueEvE4typeERS8_SI_
FNDA:17179188,_ZSt11__addressofISt6vectorIiSaIiEEEPT_RS3_
FNDA:16470,_ZSt4moveIRPSt6vectorIiSaIiEEEONSt16remove_referenceIT_E4typeEOS6_
FNDA:3636,_ZSt4moveIRSaISt6vectorIiSaIiEEEEONSt16remove_referenceIT_E4typeEOS6_
FNDA:2758,_ZSt4moveIRSt6vectorIS0_IiSaIiEESaIS2_EEEONSt16remove_referenceIT_E4typeEOS7_
FNDA:5490,_ZSt4swapIPSt6vectorIiSaIiEEENSt9enable_ifIXsrSt6__and_IJSt6__not_ISt15__is_tuple_likeIT_EESt21is_move_constructibleIS8_ESt18is_move_assignableIS8_EEE5valueEvE4typeERS8_SI_
FNF:5
FNH:5
DA:47,17179188
DA:48,17179188
DA:98,22864
DA:99,22864
DA:187,5490
DA:198,5490
DA:199,5490
DA:200,5490
DA:201,5490
LF:9
LH:9
end_of_record
SF:/usr/include/c++/7/bits/stl_algobase.h
FN:811,_ZNSt7__equalILb1EE5equalIiEEbPKT_S4_S4_
FN:821,_ZSt11__equal_auxIPKiS1_EbT_S2_T0_
FN:1041,_ZSt5equalIN9__gnu_cxx17__normal_iteratorIPKiSt6vectorIiSaIiEEEES7_EbT_S8_T0_
FNDA:2969056,_ZNSt7__equalILb1EE5equalIiEEbPKT_S4_S4_
FNDA:2969056,_ZSt11__equal_auxIPKiS1_EbT_S2_T0_
FNDA:2969056,_ZSt5equalIN9__gnu_cxx17__normal_iteratorIPKiSt6vectorIiSaIiEEEES7_EbT_S8_T0_
FNF:3
FNH:3
DA:811,2969056
DA:813,2969056
DA:814,2969056
DA:815,0
DA:821,2969056
DA:825,2969056
DA:831,2969056
DA:1041,2969056
DA:1051,2969056
DA:1053,2969056
LF:10
LH:9
end_of_record
SF:/usr/include/c++/7/bits/stl_construct.h
FN:97,_ZSt8_DestroyISt6vectorIiSaIiEEEvPT_
FN:105,_ZNSt12_Destroy_auxILb0EE9__destroyIPSt6vectorIiSaIiEEEEvT_S6_
FN:117,_ZNSt12_Destroy_auxILb1EE9__destroyIPiEEvT_S3_
FN:127,_ZSt8_DestroyIPSt6vectorIiSaIiEEEvT_S4_
FN:127,_ZSt8_DestroyIPiEvT_S1_
FN:203,_ZSt8_DestroyIPiiEvT_S1_RSaIT0_E
FN:203,_ZSt8_DestroyIPSt6vectorIiSaIiEES2_EvT_S4_RSaIT0_E
FNDA:8619267,_ZSt8_DestroyISt6vectorIiSaIiEEEvPT_
FNDA:2631961,_ZNSt12_Destroy_auxILb0EE9__destroyIPSt6vectorIiSaIiEEEEvT_S6_
FNDA:11270463,_ZNSt12_Destroy_auxILb1EE9__destroyIPiEEvT_S3_
FNDA:11270463,_ZSt8_DestroyIPiEvT_S1_
FNDA:2631961,_ZSt8_DestroyIPSt6vectorIiSaIiEEEvT_S4_
FNDA:11270463,_ZSt8_DestroyIPiiEvT_S1_RSaIT0_E
FNDA:2631961,_ZSt8_DestroyIPSt6vectorIiSaIiEES2_EvT_S4_RSaIT0_E
FNF:7
FNH:7
DA:97,8619267
DA:98,8619267
DA:105,11251228
DA:107,19870495
DA:108,8619267
DA:109,2631961
DA:117,11270463
DA:127,13902424
DA:137,13902424
DA:138,13902424
DA:203,13902424
DA:206,13902424
DA:207,13902424
LF:13
LH:13
end_of_record
SF:/usr/include/c++/7/bits/stl_iterator.h
FN:782,_ZN9__gnu_cxx17__normal_iteratorIPKiSt6vectorIiSaIiEEEC2ERKS2_
FN:847,_ZNK9__gnu_cxx17__normal_iteratorIPKiSt6vectorIiSaIiEEE4baseEv
FN:986,_ZSt12__niter_baseIPKiSt6vectorIiSaIiEEET_N9__gnu_cxx17__normal_iteratorIS5_T0_EE
FNDA:31494838,_ZN9__gnu_cxx17__normal_iteratorIPKiSt6vectorIiSaIiEEEC2ERKS2_
FNDA:31494838,_ZNK9__gnu_cxx17__normal_iteratorIPKiSt6vectorIiSaIiEEE4baseEv
FNDA:31494838,_ZSt12__niter_baseIPKiSt6vectorIiSaIiEEET_N9__gnu_cxx17__normal_iteratorIS5_T0_EE
FNF:3
FNH:3
DA:782,31494838
DA:783,31494838
DA:847,31494838
DA:848,31494838
DA:986,31494838
DA:987,31494838
LF:6
LH:6
end_of_record
SF:/usr/include/c++/7/bits/stl_vector.h
FN:81,_ZNSt12_Vector_baseIiSaIiEE12_Vector_implD2Ev
FN:81,_ZNSt12_Vector_baseISt6vectorIiSaIiEESaIS2_EE12_Vector_implD2Ev
FN:88,_ZNSt12_Vector_baseISt6vectorIiSaIiEESaIS2_EE12_Vector_implC2Ev
FN:92,_ZNSt12_Vector_baseISt6vectorIiSaIiEESaIS2_EE12_Vector_implC2ERKS3_
FN:103,_ZNSt12_Vector_baseISt6vectorIiSaIiEESaIS2_EE12_Vector_impl12_M_swap_dataERS5_
FN:115,_ZNSt12_Vector_baseIiSaIiEE19_M_get_Tp_allocatorEv
FN:115,_ZNSt12_Vector_baseISt6vectorIiSaIiEESaIS2_EE19_M_get_Tp_allocatorEv
FN:119,_ZNKSt12_Vector_baseISt6vectorIiSaIiEESaIS2_EE19_M_get_Tp_allocatorEv
FN:123,_ZNKSt12_Vector_baseISt6vectorIiSaIiEESaIS2_EE13get_allocatorEv
FN:126,_ZNSt12_Vector_baseISt6vectorIiSaIiEESaIS2_EEC2Ev
FN:129,_ZNSt12_Vector_baseISt6vectorIiSaIiEESaIS2_EEC2ERKS3_
FN:161,_ZNSt12_Vector_baseISt6vectorIiSaIiEESaIS2_EED2Ev
FN:161,_ZNSt12_Vector_baseIiSaIiEED2Ev
FN:176,_ZNSt12_Vector_baseISt6vectorIiSaIiEESaIS2_EE13_M_deallocateEPS2_m
FN:176,_ZNSt12_Vector_baseIiSaIiEE13_M_deallocateEPim
FN:259,_ZNSt6vectorIS_IiSaIiEESaIS1_EEC2Ev
FN:270,_ZNSt6vectorIS_IiSaIiEESaIS1_EEC2ERKS2_
FN:433,_ZNSt6vectorIS_IiSaIiEESaIS1_EED2Ev
FN:433,_ZNSt6vectorIiSaIiEED2Ev
FN:461,_ZNSt6vectorIS_IiSaIiEESaIS1_EEaSEOS3_
FN:572,_ZNKSt6vectorIiSaIiEE5beginEv
FN:590,_ZNKSt6vectorIiSaIiEE3endEv
FN:670,_ZNKSt6vectorIiSaIiEE4sizeEv
FN:1534,_ZNSt6vectorIS_IiSaIiEESaIS1_EE14_M_move_assignEOS3_St17integral_constantIbLb1EE
FN:1601,_ZSteqIiSaIiEEbRKSt6vectorIT_T0_ES6_
FNDA:11266651,_ZNSt12_Vector_baseIiSaIiEE12_Vector_implD2Ev
FNDA:2578322,_ZNSt12_Vector_baseISt6vectorIiSaIiEESaIS2_EE12_Vector_implD2Ev
FNDA:16018,_ZNSt12_Vector_baseISt6vectorIiSaIiEESaIS2_EE12_Vector_implC2Ev
FNDA:2560490,_ZNSt12_Vector_baseISt6vectorIiSaIiEESaIS2_EE12_Vector_implC2ERKS3_
FNDA:1830,_ZNSt12_Vector_baseISt6vectorIiSaIiEESaIS2_EE12_Vector_impl12_M_swap_dataERS5_
FNDA:22713283,_ZNSt12_Vector_baseIiSaIiEE19_M_get_Tp_allocatorEv
FNDA:5390232,_ZNSt12_Vector_baseISt6vectorIiSaIiEESaIS2_EE19_M_get_Tp_allocatorEv
FNDA:2642044,_ZNKSt12_Vector_baseISt6vectorIiSaIiEESaIS2_EE19_M_get_Tp_allocatorEv
FNDA:8,_ZNKSt12_Vector_baseISt6vectorIiSaIiEESaIS2_EE13get_allocatorEv
FNDA:16018,_ZNSt12_Vector_baseISt6vectorIiSaIiEESaIS2_EEC2Ev
FNDA:277,_ZNSt12_Vector_baseISt6vectorIiSaIiEESaIS2_EEC2ERKS3_
FNDA:11266651,_ZNSt12_Vector_baseIiSaIiEED2Ev
FNDA:2578322,_ZNSt12_Vector_baseISt6vectorIiSaIiEESaIS2_EED2Ev
FNDA:11270463,_ZNSt12_Vector_baseIiSaIiEE13_M_deallocateEPim
FNDA:2631961,_ZNSt12_Vector_baseISt6vectorIiSaIiEESaIS2_EE13_M_deallocateEPS2_m
FNDA:16018,_ZNSt6vectorIS_IiSaIiEESaIS1_EEC2Ev
FNDA:8,_ZNSt6vectorIS_IiSaIiEESaIS1_EEC2ERKS2_
FNDA:11266651,_ZNSt6vectorIiSaIiEED2Ev
FNDA:2578322,_ZNSt6vectorIS_IiSaIiEESaIS1_EED2Ev
FNDA:8,_ZNSt6vectorIS_IiSaIiEESaIS1_EEaSEOS3_
FNDA:17231947,_ZNKSt6vectorIiSaIiEE5beginEv
FNDA:14262891,_ZNKSt6vectorIiSaIiEE3endEv
FNDA:18696746,_ZNKSt6vectorIiSaIiEE4sizeEv
FNDA:8,_ZNSt6vectorIS_IiSaIiEESaIS1_EE14_M_move_assignEOS3_St17integral_constantIbLb1EE
FNDA:2969056,_ZSteqIiSaIiEEbRKSt6vectorIT_T0_ES6_
FNF:25
FNH:25
DA:81,13844973
DA:88,16018
DA:89,16018
DA:90,16018
DA:92,2560490
DA:93,2560490
DA:94,2560490
DA:103,1830
DA:105,1830
DA:106,1830
DA:107,1830
DA:108,1830
DA:115,28103515
DA:116,28103515
DA:119,2642044
DA:120,2642044
DA:123,8
DA:124,8
DA:126,16018
DA:127,16018
DA:129,277
DA:130,277
DA:161,13844973
DA:162,27689946
DA:163,27689946
DA:176,13902424
DA:179,13902424
DA:180,13815139
DA:181,13902424
DA:259,16018
DA:263,16018
DA:270,8
DA:271,8
DA:433,13844973
DA:434,13844973
DA:435,27689946
DA:461,8
DA:463,8
DA:466,8
DA:467,8
DA:572,17231947
DA:573,17231947
DA:590,14262891
DA:591,14262891
DA:670,18696746
DA:671,18696746
DA:1534,8
DA:1536,16
DA:1537,8
DA:1538,8
DA:1539,8
DA:1540,8
DA:1601,2969056
DA:1602,2969056
DA:1603,2969056
LF:55
LH:55
end_of_record
SF:/usr/include/c++/7/ext/new_allocator.h
FN:79,_ZN9__gnu_cxx13new_allocatorISt6vectorIiSaIiEEEC2Ev
FN:81,_ZN9__gnu_cxx13new_allocatorISt6vectorIiSaIiEEEC2ERKS4_
FN:86,_ZN9__gnu_cxx13new_allocatorIiED2Ev
FN:86,_ZN9__gnu_cxx13new_allocatorISt6vectorIiSaIiEEED2Ev
FN:116,_ZN9__gnu_cxx13new_allocatorISt6vectorIiSaIiEEE10deallocateEPS3_m
FN:116,_ZN9__gnu_cxx13new_allocatorIiE10deallocateEPim
FNDA:26590,_ZN9__gnu_cxx13new_allocatorISt6vectorIiSaIiEEEC2Ev
FNDA:5112222,_ZN9__gnu_cxx13new_allocatorISt6vectorIiSaIiEEEC2ERKS4_
FNDA:22474319,_ZN9__gnu_cxx13new_allocatorIiED2Ev
FNDA:5138812,_ZN9__gnu_cxx13new_allocatorISt6vectorIiSaIiEEED2Ev
FNDA:11211317,_ZN9__gnu_cxx13new_allocatorIiE10deallocateEPim
FNDA:2603822,_ZN9__gnu_cxx13new_allocatorISt6vectorIiSaIiEEE10deallocateEPS3_m
FNF:6
FNH:6
DA:79,26590
DA:81,5112222
DA:86,27613131
DA:116,13815139
DA:125,13815139
DA:126,13815139
LF:6
LH:6
end_of_record
SF:/usr/include/c++/7/iostream
DA:74,5
LF:1
LH:1
end_of_record
TN:
SF:/home/fyulita/Desktop/tpi/algo1-TPI/lib/googletest-master/googletest/include/gtest/gtest-message.h
FN:91,_ZN7testing7MessageD2Ev
FNDA:0,_ZN7testing7MessageD2Ev
FNF:1
FNH:0
DA:91,0
LF:1
LH:0
end_of_record
SF:/home/fyulita/Desktop/tpi/algo1-TPI/lib/googletest-master/googletest/include/gtest/gtest-printers.h
FN:260,_ZN16testing_internal26DefaultPrintNonContainerToIiEEvRKT_PSo
FN:313,_ZN7testing8internal19FormatForComparisonIiiE6FormatB5cxx11ERKi
FN:313,_ZN7testing8internal19FormatForComparisonISt6vectorIS2_IiSaIiEESaIS4_EES6_E6FormatB5cxx11ERKS6_
FN:377,_ZN7testing8internal33FormatForComparisonFailureMessageISt6vectorIS2_IiSaIiEESaIS4_EES6_EENSt7__cxx1112basic_stringIcSt11char_traitsIcESaIcEEERKT_RKT0_
FN:377,_ZN7testing8internal33FormatForComparisonFailureMessageIiiEENSt7__cxx1112basic_stringIcSt11char_traitsIcESaIcEEERKT_RKT0_
FN:406,_ZN7testing8internal14DefaultPrintToISt6vectorIiSaIiEEEEvNS0_15WrapPrinterTypeILNS0_18DefaultPrinterTypeE0EEERKT_PSo
FN:406,_ZN7testing8internal14DefaultPrintToISt6vectorIS2_IiSaIiEESaIS4_EEEEvNS0_15WrapPrinterTypeILNS0_18DefaultPrinterTypeE0EEERKT_PSo
FN:466,_ZN7testing8internal14DefaultPrintToIiEEvNS0_15WrapPrinterTypeILNS0_18DefaultPrinterTypeE3EEERKT_PSo
FN:483,_ZN7testing8internal7PrintToISt6vectorIS2_IiSaIiEESaIS4_EEEEvRKT_PSo
FN:483,_ZN7testing8internal7PrintToIiEEvRKT_PSo
FN:483,_ZN7testing8internal7PrintToISt6vectorIiSaIiEEEEvRKT_PSo
FN:670,_ZN7testing8internal16UniversalPrinterISt6vectorIS2_IiSaIiEESaIS4_EEE5PrintERKS6_PSo
FN:670,_ZN7testing8internal16UniversalPrinterISt6vectorIiSaIiEEE5PrintERKS4_PSo
FN:670,_ZN7testing8internal16UniversalPrinterIiE5PrintERKiPSo
FN:796,_ZN7testing8internal21UniversalTersePrinterISt6vectorIS2_IiSaIiEESaIS4_EEE5PrintERKS6_PSo
FN:796,_ZN7testing8internal21UniversalTersePrinterIiE5PrintERKiPSo
FN:865,_ZN7testing8internal14UniversalPrintISt6vectorIS2_IiSaIiEESaIS4_EEEEvRKT_PSo
FN:865,_ZN7testing8internal14UniversalPrintISt6vectorIiSaIiEEEEvRKT_PSo
FN:865,_ZN7testing8internal14UniversalPrintIiEEvRKT_PSo
FN:915,_ZN7testing13PrintToStringIiEENSt7__cxx1112basic_stringIcSt11char_traitsIcESaIcEEERKT_
FN:915,_ZN7testing13PrintToStringISt6vectorIS1_IiSaIiEESaIS3_EEEENSt7__cxx1112basic_stringIcSt11char_traitsIcESaIcEEERKT_
FNDA:0,_ZN16testing_internal26DefaultPrintNonContainerToIiEEvRKT_PSo
FNDA:0,_ZN7testing8internal19FormatForComparisonIiiE6FormatB5cxx11ERKi
FNDA:0,_ZN7testing8internal19FormatForComparisonISt6vectorIS2_IiSaIiEESaIS4_EES6_E6FormatB5cxx11ERKS6_
FNDA:0,_ZN7testing8internal33FormatForComparisonFailureMessageIiiEENSt7__cxx1112basic_stringIcSt11char_traitsIcESaIcEEERKT_RKT0_
FNDA:0,_ZN7testing8internal33FormatForComparisonFailureMessageISt6vectorIS2_IiSaIiEESaIS4_EES6_EENSt7__cxx1112basic_stringIcSt11char_traitsIcESaIcEEERKT_RKT0_
FNDA:0,_ZN7testing8internal14DefaultPrintToISt6vectorIiSaIiEEEEvNS0_15WrapPrinterTypeILNS0_18DefaultPrinterTypeE0EEERKT_PSo
FNDA:0,_ZN7testing8internal14DefaultPrintToISt6vectorIS2_IiSaIiEESaIS4_EEEEvNS0_15WrapPrinterTypeILNS0_18DefaultPrinterTypeE0EEERKT_PSo
FNDA:0,_ZN7testing8internal14DefaultPrintToIiEEvNS0_15WrapPrinterTypeILNS0_18DefaultPrinterTypeE3EEERKT_PSo
FNDA:0,_ZN7testing8internal7PrintToISt6vectorIiSaIiEEEEvRKT_PSo
FNDA:0,_ZN7testing8internal7PrintToIiEEvRKT_PSo
FNDA:0,_ZN7testing8internal7PrintToISt6vectorIS2_IiSaIiEESaIS4_EEEEvRKT_PSo
FNDA:0,_ZN7testing8internal16UniversalPrinterISt6vectorIiSaIiEEE5PrintERKS4_PSo
FNDA:0,_ZN7testing8internal16UniversalPrinterIiE5PrintERKiPSo
FNDA:0,_ZN7testing8internal16UniversalPrinterISt6vectorIS2_IiSaIiEESaIS4_EEE5PrintERKS6_PSo
FNDA:0,_ZN7testing8internal21UniversalTersePrinterIiE5PrintERKiPSo
FNDA:0,_ZN7testing8internal21UniversalTersePrinterISt6vectorIS2_IiSaIiEESaIS4_EEE5PrintERKS6_PSo
FNDA:0,_ZN7testing8internal14UniversalPrintISt6vectorIiSaIiEEEEvRKT_PSo
FNDA:0,_ZN7testing8internal14UniversalPrintIiEEvRKT_PSo
FNDA:0,_ZN7testing8internal14UniversalPrintISt6vectorIS2_IiSaIiEESaIS4_EEEEvRKT_PSo
FNDA:0,_ZN7testing13PrintToStringIiEENSt7__cxx1112basic_stringIcSt11char_traitsIcESaIcEEERKT_
FNDA:0,_ZN7testing13PrintToStringISt6vectorIS1_IiSaIiEESaIS3_EEEENSt7__cxx1112basic_stringIcSt11char_traitsIcESaIcEEERKT_
FNF:21
FNH:0
DA:260,0
DA:287,0
DA:288,0
DA:313,0
DA:314,0
DA:377,0
DA:379,0
DA:406,0
DA:408,0
DA:409,0
DA:410,0
DA:411,0
DA:412,0
DA:413,0
DA:414,0
DA:415,0
DA:416,0
DA:417,0
DA:420,0
DA:423,0
DA:426,0
DA:427,0
DA:429,0
DA:430,0
DA:466,0
DA:468,0
DA:469,0
DA:483,0
DA:503,0
DA:514,0
DA:670,0
DA:679,0
DA:680,0
DA:796,0
DA:797,0
DA:798,0
DA:865,0
DA:869,0
DA:870,0
DA:915,0
DA:916,0
DA:917,0
DA:918,0
LF:43
LH:0
end_of_record
SF:/home/fyulita/Desktop/tpi/algo1-TPI/lib/googletest-master/googletest/include/gtest/gtest.h
FN:275,_ZN7testing15AssertionResultD2Ev
FN:312,_ZNK7testing15AssertionResultcvbEv
FN:321,_ZNK7testing15AssertionResult7messageEv
FN:325,_ZNK7testing15AssertionResult15failure_messageEv
FN:417,_ZN7testing4Test14SetUpTestSuiteEv
FN:427,_ZN7testing4Test17TearDownTestSuiteEv
FN:431,_ZN7testing4Test16TearDownTestCaseEv
FN:432,_ZN7testing4Test13SetUpTestCaseEv
FN:513,_ZN7testing4Test5SetupEv
FN:1504,_ZN7testing8internal18CmpHelperEQFailureISt6vectorIS2_IiSaIiEESaIS4_EES6_EENS_15AssertionResultEPKcS9_RKT_RKT0_
FN:1504,_ZN7testing8internal18CmpHelperEQFailureIiiEENS_15AssertionResultEPKcS4_RKT_RKT0_
FN:1523,_ZN7testing8internal11CmpHelperEQIiiEENS_15AssertionResultEPKcS4_RKT_RKT0_
FN:1523,_ZN7testing8internal11CmpHelperEQISt6vectorIS2_IiSaIiEESaIS4_EES6_EENS_15AssertionResultEPKcS9_RKT_RKT0_
FN:1551,_ZN7testing8internal8EqHelper7CompareIiiLPv0EEENS_15AssertionResultEPKcS6_RKT_RKT0_
FN:1551,_ZN7testing8internal8EqHelper7CompareISt6vectorIS3_IiSaIiEESaIS5_EES7_LPv0EEENS_15AssertionResultEPKcSB_RKT_RKT0_
FNDA:0,_ZN7testing15AssertionResultD2Ev
FNDA:0,_ZNK7testing15AssertionResultcvbEv
FNDA:0,_ZNK7testing15AssertionResult7messageEv
FNDA:0,_ZNK7testing15AssertionResult15failure_messageEv
FNDA:0,_ZN7testing4Test14SetUpTestSuiteEv
FNDA:0,_ZN7testing4Test17TearDownTestSuiteEv
FNDA:0,_ZN7testing4Test16TearDownTestCaseEv
FNDA:0,_ZN7testing4Test13SetUpTestCaseEv
FNDA:0,_ZN7testing4Test5SetupEv
FNDA:0,_ZN7testing8internal18CmpHelperEQFailureIiiEENS_15AssertionResultEPKcS4_RKT_RKT0_
FNDA:0,_ZN7testing8internal18CmpHelperEQFailureISt6vectorIS2_IiSaIiEESaIS4_EES6_EENS_15AssertionResultEPKcS9_RKT_RKT0_
FNDA:10,_ZN7testing8internal11CmpHelperEQIiiEENS_15AssertionResultEPKcS4_RKT_RKT0_
FNDA:0,_ZN7testing8internal11CmpHelperEQISt6vectorIS2_IiSaIiEESaIS4_EES6_EENS_15AssertionResultEPKcS9_RKT_RKT0_
FNDA:10,_ZN7testing8internal8EqHelper7CompareIiiLPv0EEENS_15AssertionResultEPKcS6_RKT_RKT0_
FNDA:0,_ZN7testing8internal8EqHelper7CompareISt6vectorIS3_IiSaIiEESaIS5_EES7_LPv0EEENS_15AssertionResultEPKcSB_RKT_RKT0_
FNF:15
FNH:2
DA:275,0
DA:312,0
DA:321,0
DA:322,0
DA:325,0
DA:417,0
DA:427,0
DA:431,0
DA:432,0
DA:513,0
DA:1504,0
DA:1511,0
DA:1523,10
DA:1527,10
DA:1528,10
DA:1531,0
DA:1551,10
DA:1554,10
LF:18
LH:5
end_of_record
SF:/home/fyulita/Desktop/tpi/algo1-TPI/lib/googletest-master/googletest/include/gtest/internal/gtest-internal.h
FN:442,_ZN7testing8internal15TestFactoryBaseD2Ev
FN:442,_ZN7testing8internal15TestFactoryBaseD0Ev
FN:449,_ZN7testing8internal15TestFactoryBaseC2Ev
FN:458,_ZN7testing8internal15TestFactoryImplI63obtenerRegionConectadaTest_imagenEjemploPrueboQIteraciones_TestED0Ev
FN:458,_ZN7testing8internal15TestFactoryImplI63obtenerRegionConectadaTest_imagenEjemploPrueboQIteraciones_TestEC2Ev
FN:458,_ZN7testing8internal15TestFactoryImplI54obtenerRegionConectadaTest_imagenEjemploPrueboMat_TestED2Ev
FN:458,_ZN7testing8internal15TestFactoryImplI71obtenerRegionConectadaTest_imagenActivadaSoloSemillaPueboMatSalida_TestED2Ev
FN:458,_ZN7testing8internal15TestFactoryImplI74obtenerRegionConectadaTest_imagenActivadaSoloSemillaPueboQIteraciones_TestED0Ev
FN:458,_ZN7testing8internal15TestFactoryImplI54obtenerRegionConectadaTest_imagenEjemploPrueboMat_TestED0Ev
FN:458,_ZN7testing8internal15TestFactoryImplI54obtenerRegionConectadaTest_imagenEjemploPrueboMat_TestEC2Ev
FN:458,_ZN7testing8internal15TestFactoryImplI74obtenerRegionConectadaTest_imagenActivadaSoloSemillaPueboQIteraciones_TestEC2Ev
FN:458,_ZN7testing8internal15TestFactoryImplI63obtenerRegionConectadaTest_imagenEjemploPrueboQIteraciones_TestED2Ev
FN:458,_ZN7testing8internal15TestFactoryImplI74obtenerRegionConectadaTest_imagenActivadaSoloSemillaPueboQIteraciones_TestED2Ev
FN:458,_ZN7testing8internal15TestFactoryImplI71obtenerRegionConectadaTest_imagenActivadaSoloSemillaPueboMatSalida_TestED0Ev
FN:458,_ZN7testing8internal15TestFactoryImplI71obtenerRegionConectadaTest_imagenActivadaSoloSemillaPueboMatSalida_TestEC2Ev
FN:460,_ZN7testing8internal15TestFactoryImplI71obtenerRegionConectadaTest_imagenActivadaSoloSemillaPueboMatSalida_TestE10CreateTestEv
FN:460,_ZN7testing8internal15TestFactoryImplI63obtenerRegionConectadaTest_imagenEjemploPrueboQIteraciones_TestE10CreateTestEv
FN:460,_ZN7testing8internal15TestFactoryImplI54obtenerRegionConectadaTest_imagenEjemploPrueboMat_TestE10CreateTestEv
FN:460,_ZN7testing8internal15TestFactoryImplI74obtenerRegionConectadaTest_imagenActivadaSoloSemillaPueboQIteraciones_TestE10CreateTestEv
FN:480,_ZN7testing8internal12CodeLocationD2Ev
FN:481,_ZN7testing8internal12CodeLocationC2ERKNSt7__cxx1112basic_stringIcSt11char_traitsIcESaIcEEEi
FN:494,_ZN7testing8internal19GetNotDefaultOrNullEPFvvES2_
FN:509,_ZN7testing8internal16SuiteApiResolverINS_4TestEE19GetSetUpCaseOrSuiteEPKci
FN:524,_ZN7testing8internal16SuiteApiResolverINS_4TestEE22GetTearDownCaseOrSuiteEPKci
FNDA:0,_ZN7testing8internal15TestFactoryBaseD0Ev
FNDA:0,_ZN7testing8internal15TestFactoryBaseD2Ev
FNDA:0,_ZN7testing8internal15TestFactoryBaseC2Ev
FNDA:12,_ZN7testing8internal15TestFactoryImplI71obtenerRegionConectadaTest_imagenActivadaSoloSemillaPueboMatSalida_TestED0Ev
FNDA:12,_ZN7testing8internal15TestFactoryImplI71obtenerRegionConectadaTest_imagenActivadaSoloSemillaPueboMatSalida_TestED2Ev
FNDA:12,_ZN7testing8internal15TestFactoryImplI74obtenerRegionConectadaTest_imagenActivadaSoloSemillaPueboQIteraciones_TestED0Ev
FNDA:12,_ZN7testing8internal15TestFactoryImplI74obtenerRegionConectadaTest_imagenActivadaSoloSemillaPueboQIteraciones_TestED2Ev
FNDA:12,_ZN7testing8internal15TestFactoryImplI54obtenerRegionConectadaTest_imagenEjemploPrueboMat_TestED0Ev
FNDA:12,_ZN7testing8internal15TestFactoryImplI54obtenerRegionConectadaTest_imagenEjemploPrueboMat_TestED2Ev
FNDA:12,_ZN7testing8internal15TestFactoryImplI63obtenerRegionConectadaTest_imagenEjemploPrueboQIteraciones_TestED0Ev
FNDA:12,_ZN7testing8internal15TestFactoryImplI63obtenerRegionConectadaTest_imagenEjemploPrueboQIteraciones_TestED2Ev
FNDA:12,_ZN7testing8internal15TestFactoryImplI63obtenerRegionConectadaTest_imagenEjemploPrueboQIteraciones_TestEC2Ev
FNDA:12,_ZN7testing8internal15TestFactoryImplI54obtenerRegionConectadaTest_imagenEjemploPrueboMat_TestEC2Ev
FNDA:12,_ZN7testing8internal15TestFactoryImplI74obtenerRegionConectadaTest_imagenActivadaSoloSemillaPueboQIteraciones_TestEC2Ev
FNDA:12,_ZN7testing8internal15TestFactoryImplI71obtenerRegionConectadaTest_imagenActivadaSoloSemillaPueboMatSalida_TestEC2Ev
FNDA:6,_ZN7testing8internal15TestFactoryImplI71obtenerRegionConectadaTest_imagenActivadaSoloSemillaPueboMatSalida_TestE10CreateTestEv
FNDA:5,_ZN7testing8internal15TestFactoryImplI74obtenerRegionConectadaTest_imagenActivadaSoloSemillaPueboQIteraciones_TestE10CreateTestEv
FNDA:5,_ZN7testing8internal15TestFactoryImplI54obtenerRegionConectadaTest_imagenEjemploPrueboMat_TestE10CreateTestEv
FNDA:5,_ZN7testing8internal15TestFactoryImplI63obtenerRegionConectadaTest_imagenEjemploPrueboQIteraciones_TestE10CreateTestEv
FNDA:0,_ZN7testing8internal12CodeLocationD2Ev
FNDA:0,_ZN7testing8internal12CodeLocationC2ERKNSt7__cxx1112basic_stringIcSt11char_traitsIcESaIcEEEi
FNDA:0,_ZN7testing8internal19GetNotDefaultOrNullEPFvvES2_
FNDA:0,_ZN7testing8internal16SuiteApiResolverINS_4TestEE19GetSetUpCaseOrSuiteEPKci
FNDA:0,_ZN7testing8internal16SuiteApiResolverINS_4TestEE22GetTearDownCaseOrSuiteEPKci
FNF:24
FNH:16
DA:442,0
DA:449,0
DA:458,144
DA:460,21
DA:480,0
DA:481,0
DA:482,0
DA:494,0
DA:496,0
DA:509,0
DA:511,0
DA:513,0
DA:516,0
DA:519,0
DA:521,0
DA:524,0
DA:526,0
DA:528,0
DA:531,0
DA:534,0
DA:536,0
LF:21
LH:2
end_of_record
SF:/home/fyulita/Desktop/tpi/algo1-TPI/lib/googletest-master/googletest/include/gtest/internal/gtest-port.h
FN:942,_ZN7testing8internal8GTestLog9GetStreamEv
FNDA:0,_ZN7testing8internal8GTestLog9GetStreamEv
FNF:1
FNH:0
DA:942,0
LF:1
LH:0
end_of_record
SF:/home/fyulita/Desktop/tpi/algo1-TPI/tests/ej6TEST.cpp
FN:4,_ZN71obtenerRegionConectadaTest_imagenActivadaSoloSemillaPueboMatSalida_TestD0Ev
FN:4,_ZN71obtenerRegionConectadaTest_imagenActivadaSoloSemillaPueboMatSalida_Test8TestBodyEv
FN:4,_ZN71obtenerRegionConectadaTest_imagenActivadaSoloSemillaPueboMatSalida_TestC2Ev
FN:4,_ZN71obtenerRegionConectadaTest_imagenActivadaSoloSemillaPueboMatSalida_TestD2Ev
FN:24,_ZN74obtenerRegionConectadaTest_imagenActivadaSoloSemillaPueboQIteraciones_TestC2Ev
FN:24,_ZN74obtenerRegionConectadaTest_imagenActivadaSoloSemillaPueboQIteraciones_TestD2Ev
FN:24,_ZN74obtenerRegionConectadaTest_imagenActivadaSoloSemillaPueboQIteraciones_TestD0Ev
FN:24,_ZN74obtenerRegionConectadaTest_imagenActivadaSoloSemillaPueboQIteraciones_Test8TestBodyEv
FN:43,_ZN54obtenerRegionConectadaTest_imagenEjemploPrueboMat_TestC2Ev
FN:43,_ZN54obtenerRegionConectadaTest_imagenEjemploPrueboMat_TestD0Ev
FN:43,_ZN54obtenerRegionConectadaTest_imagenEjemploPrueboMat_Test8TestBodyEv
FN:43,_ZN54obtenerRegionConectadaTest_imagenEjemploPrueboMat_TestD2Ev
FN:76,_ZN63obtenerRegionConectadaTest_imagenEjemploPrueboQIteraciones_TestC2Ev
FN:76,_ZN63obtenerRegionConectadaTest_imagenEjemploPrueboQIteraciones_Test8TestBodyEv
FN:76,_ZN63obtenerRegionConectadaTest_imagenEjemploPrueboQIteraciones_TestD2Ev
FN:76,_ZN63obtenerRegionConectadaTest_imagenEjemploPrueboQIteraciones_TestD0Ev
FN:95,_GLOBAL__sub_I__ZN71obtenerRegionConectadaTest_imagenActivadaSoloSemillaPueboMatSalida_Test10test_info_E
FN:95,_Z41__static_initialization_and_destruction_0ii
FNDA:6,_ZN71obtenerRegionConectadaTest_imagenActivadaSoloSemillaPueboMatSalida_TestD0Ev
FNDA:6,_ZN71obtenerRegionConectadaTest_imagenActivadaSoloSemillaPueboMatSalida_TestD2Ev
FNDA:6,_ZN71obtenerRegionConectadaTest_imagenActivadaSoloSemillaPueboMatSalida_Test8TestBodyEv
FNDA:6,_ZN71obtenerRegionConectadaTest_imagenActivadaSoloSemillaPueboMatSalida_TestC2Ev
FNDA:5,_ZN74obtenerRegionConectadaTest_imagenActivadaSoloSemillaPueboQIteraciones_TestD0Ev
FNDA:5,_ZN74obtenerRegionConectadaTest_imagenActivadaSoloSemillaPueboQIteraciones_TestD2Ev
FNDA:5,_ZN74obtenerRegionConectadaTest_imagenActivadaSoloSemillaPueboQIteraciones_Test8TestBodyEv
FNDA:5,_ZN74obtenerRegionConectadaTest_imagenActivadaSoloSemillaPueboQIteraciones_TestC2Ev
FNDA:5,_ZN54obtenerRegionConectadaTest_imagenEjemploPrueboMat_TestD0Ev
FNDA:5,_ZN54obtenerRegionConectadaTest_imagenEjemploPrueboMat_TestD2Ev
FNDA:5,_ZN54obtenerRegionConectadaTest_imagenEjemploPrueboMat_Test8TestBodyEv
FNDA:5,_ZN54obtenerRegionConectadaTest_imagenEjemploPrueboMat_TestC2Ev
FNDA:5,_ZN63obtenerRegionConectadaTest_imagenEjemploPrueboQIteraciones_TestD0Ev
FNDA:5,_ZN63obtenerRegionConectadaTest_imagenEjemploPrueboQIteraciones_TestD2Ev
FNDA:5,_ZN63obtenerRegionConectadaTest_imagenEjemploPrueboQIteraciones_Test8TestBodyEv
FNDA:5,_ZN63obtenerRegionConectadaTest_imagenEjemploPrueboQIteraciones_TestC2Ev
FNDA:12,_GLOBAL__sub_I__ZN71obtenerRegionConectadaTest_imagenActivadaSoloSemillaPueboMatSalida_Test10test_info_E
FNDA:12,_Z41__static_initialization_and_destruction_0ii
FNF:18
FNH:18
DA:4,36
DA:5,6
DA:15,12
DA:16,12
DA:18,6
DA:20,6
DA:22,6
DA:24,32
DA:25,5
DA:35,10
DA:36,10
DA:38,5
DA:40,5
DA:41,5
DA:43,32
DA:44,5
DA:56,10
DA:57,10
DA:69,10
DA:71,5
DA:73,5
DA:74,5
DA:76,32
DA:77,5
DA:89,10
DA:90,10
DA:92,5
DA:94,5
DA:95,41
LF:29
LH:29
end_of_record
SF:/usr/include/c++/7/bits/alloc_traits.h
FN:435,_ZNSt16allocator_traitsISaISt6vectorIiSaIiEEEE8allocateERS3_m
FN:435,_ZNSt16allocator_traitsISaIiEE8allocateERS0_m
FN:461,_ZNSt16allocator_traitsISaIiEE10deallocateERS0_Pim
FN:461,_ZNSt16allocator_traitsISaISt6vectorIiSaIiEEEE10deallocateERS3_PS2_m
FN:504,_ZNSt16allocator_traitsISaIiEE37select_on_container_copy_constructionERKS0_
FNDA:0,_ZNSt16allocator_traitsISaISt6vectorIiSaIiEEEE8allocateERS3_m
FNDA:0,_ZNSt16allocator_traitsISaIiEE8allocateERS0_m
FNDA:0,_ZNSt16allocator_traitsISaISt6vectorIiSaIiEEEE10deallocateERS3_PS2_m
FNDA:0,_ZNSt16allocator_traitsISaIiEE10deallocateERS0_Pim
FNDA:0,_ZNSt16allocator_traitsISaIiEE37select_on_container_copy_constructionERKS0_
FNF:5
FNH:0
DA:435,0
DA:436,0
DA:461,0
DA:462,0
DA:504,0
DA:505,0
LF:6
LH:0
end_of_record
SF:/usr/include/c++/7/bits/allocator.h
FN:131,_ZNSaISt6vectorIiSaIiEEEC2Ev
FN:131,_ZNSaIiEC2Ev
FN:133,_ZNSaIiEC2ERKS_
FN:133,_ZNSaISt6vectorIiSaIiEEEC2ERKS2_
FN:139,_ZNSaIiED2Ev
FN:139,_ZNSaISt6vectorIiSaIiEEED2Ev
FNDA:0,_ZNSaISt6vectorIiSaIiEEEC2Ev
FNDA:0,_ZNSaIiEC2Ev
FNDA:0,_ZNSaISt6vectorIiSaIiEEEC2ERKS2_
FNDA:0,_ZNSaIiEC2ERKS_
FNDA:0,_ZNSaISt6vectorIiSaIiEEED2Ev
FNDA:0,_ZNSaIiED2Ev
FNF:6
FNH:0
DA:131,0
DA:133,0
DA:134,0
DA:139,0
LF:4
LH:0
end_of_record
SF:/usr/include/c++/7/bits/cpp_type_traits.h
FN:408,_ZSt12__miter_baseIPKiET_S2_
FN:408,_ZSt12__miter_baseIN9__gnu_cxx17__normal_iteratorIPKiSt6vectorIiSaIiEEEEET_S8_
FNDA:0,_ZSt12__miter_baseIN9__gnu_cxx17__normal_iteratorIPKiSt6vectorIiSaIiEEEEET_S8_
FNDA:0,_ZSt12__miter_baseIPKiET_S2_
FNF:2
FNH:0
DA:408,0
DA:409,0
LF:2
LH:0
end_of_record
SF:/usr/include/c++/7/bits/ios_base.h
FN:129,_ZStorSt13_Ios_OpenmodeS_
FNDA:0,_ZStorSt13_Ios_OpenmodeS_
FNF:1
FNH:0
DA:129,0
DA:130,0
LF:2
LH:0
end_of_record
SF:/usr/include/c++/7/bits/move.h
FN:47,_ZSt11__addressofISt6vectorIiSaIiEEEPT_RS3_
FN:73,_ZSt7forwardIRKSt6vectorIiSaIiEEEOT_RNSt16remove_referenceIS5_E4typeE
FNDA:0,_ZSt11__addressofISt6vectorIiSaIiEEEPT_RS3_
FNDA:0,_ZSt7forwardIRKSt6vectorIiSaIiEEEOT_RNSt16remove_referenceIS5_E4typeE
FNF:2
FNH:0
DA:47,0
DA:48,0
DA:73,0
DA:74,0
LF:4
LH:0
end_of_record
SF:/usr/include/c++/7/bits/stl_algobase.h
FN:277,_ZSt12__niter_baseIPiET_S1_
FN:277,_ZSt12__niter_baseIPKiET_S2_
FN:357,_ZNSt11__copy_moveILb0ELb1ESt26random_access_iterator_tagE8__copy_mIiEEPT_PKS3_S6_S4_
FN:375,_ZSt13__copy_move_aILb0EPKiPiET1_T0_S4_S3_
FN:420,_ZSt14__copy_move_a2ILb0EN9__gnu_cxx17__normal_iteratorIPKiSt6vectorIiSaIiEEEEPiET1_T0_SA_S9_
FN:420,_ZSt14__copy_move_a2ILb0EPKiPiET1_T0_S4_S3_
FN:446,_ZSt4copyIN9__gnu_cxx17__normal_iteratorIPKiSt6vectorIiSaIiEEEEPiET0_T_SA_S9_
FN:446,_ZSt4copyIPKiPiET0_T_S4_S3_
FN:797,_ZNSt7__equalILb0EE5equalIPKSt6vectorIiSaIiEES6_EEbT_S7_T0_
FN:811,_ZNSt7__equalILb1EE5equalIiEEbPKT_S4_S4_
FN:821,_ZSt11__equal_auxIPKSt6vectorIiSaIiEES4_EbT_S5_T0_
FN:821,_ZSt11__equal_auxIPKiS1_EbT_S2_T0_
FN:1041,_ZSt5equalIN9__gnu_cxx17__normal_iteratorIPKSt6vectorIiSaIiEES2_IS4_SaIS4_EEEES9_EbT_SA_T0_
FN:1041,_ZSt5equalIN9__gnu_cxx17__normal_iteratorIPKiSt6vectorIiSaIiEEEES7_EbT_S8_T0_
FNDA:0,_ZSt12__niter_baseIPiET_S1_
FNDA:0,_ZSt12__niter_baseIPKiET_S2_
FNDA:0,_ZNSt11__copy_moveILb0ELb1ESt26random_access_iterator_tagE8__copy_mIiEEPT_PKS3_S6_S4_
FNDA:0,_ZSt13__copy_move_aILb0EPKiPiET1_T0_S4_S3_
FNDA:0,_ZSt14__copy_move_a2ILb0EN9__gnu_cxx17__normal_iteratorIPKiSt6vectorIiSaIiEEEEPiET1_T0_SA_S9_
FNDA:0,_ZSt14__copy_move_a2ILb0EPKiPiET1_T0_S4_S3_
FNDA:0,_ZSt4copyIN9__gnu_cxx17__normal_iteratorIPKiSt6vectorIiSaIiEEEEPiET0_T_SA_S9_
FNDA:0,_ZSt4copyIPKiPiET0_T_S4_S3_
FNDA:0,_ZNSt7__equalILb0EE5equalIPKSt6vectorIiSaIiEES6_EEbT_S7_T0_
FNDA:0,_ZNSt7__equalILb1EE5equalIiEEbPKT_S4_S4_
FNDA:0,_ZSt11__equal_auxIPKiS1_EbT_S2_T0_
FNDA:0,_ZSt11__equal_auxIPKSt6vectorIiSaIiEES4_EbT_S5_T0_
FNDA:0,_ZSt5equalIN9__gnu_cxx17__normal_iteratorIPKiSt6vectorIiSaIiEEEES7_EbT_S8_T0_
FNDA:0,_ZSt5equalIN9__gnu_cxx17__normal_iteratorIPKSt6vectorIiSaIiEES2_IS4_SaIS4_EEEES9_EbT_SA_T0_
FNF:14
FNH:0
DA:277,0
DA:278,0
DA:357,0
DA:366,0
DA:367,0
DA:368,0
DA:369,0
DA:375,0
DA:380,0
DA:386,0
DA:420,0
DA:422,0
DA:424,0
DA:446,0
DA:455,0
DA:456,0
DA:797,0
DA:799,0
DA:800,0
DA:801,0
DA:802,0
DA:811,0
DA:813,0
DA:814,0
DA:815,0
DA:821,0
DA:825,0
DA:831,0
DA:1041,0
DA:1051,0
DA:1053,0
LF:31
LH:0
end_of_record
SF:/usr/include/c++/7/bits/stl_construct.h
FN:74,_ZSt10_ConstructISt6vectorIiSaIiEEJRKS2_EEvPT_DpOT0_
FN:97,_ZSt8_DestroyISt6vectorIiSaIiEEEvPT_
FN:105,_ZNSt12_Destroy_auxILb0EE9__destroyIPSt6vectorIiSaIiEEEEvT_S6_
FN:117,_ZNSt12_Destroy_auxILb1EE9__destroyIPiEEvT_S3_
FN:127,_ZSt8_DestroyIPiEvT_S1_
FN:127,_ZSt8_DestroyIPSt6vectorIiSaIiEEEvT_S4_
FN:203,_ZSt8_DestroyIPSt6vectorIiSaIiEES2_EvT_S4_RSaIT0_E
FN:203,_ZSt8_DestroyIPiiEvT_S1_RSaIT0_E
FNDA:0,_ZSt10_ConstructISt6vectorIiSaIiEEJRKS2_EEvPT_DpOT0_
FNDA:0,_ZSt8_DestroyISt6vectorIiSaIiEEEvPT_
FNDA:0,_ZNSt12_Destroy_auxILb0EE9__destroyIPSt6vectorIiSaIiEEEEvT_S6_
FNDA:0,_ZNSt12_Destroy_auxILb1EE9__destroyIPiEEvT_S3_
FNDA:0,_ZSt8_DestroyIPSt6vectorIiSaIiEEEvT_S4_
FNDA:0,_ZSt8_DestroyIPiEvT_S1_
FNDA:0,_ZSt8_DestroyIPSt6vectorIiSaIiEES2_EvT_S4_RSaIT0_E
FNDA:0,_ZSt8_DestroyIPiiEvT_S1_RSaIT0_E
FNF:8
FNH:0
DA:74,0
DA:75,0
DA:97,0
DA:98,0
DA:105,0
DA:107,0
DA:108,0
DA:109,0
DA:117,0
DA:127,0
DA:137,0
DA:138,0
DA:203,0
DA:206,0
DA:207,0
LF:15
LH:0
end_of_record
SF:/usr/include/c++/7/bits/stl_iterator.h
FN:782,_ZN9__gnu_cxx17__normal_iteratorIPKSt6vectorIiSaIiEES1_IS3_SaIS3_EEEC2ERKS5_
FN:782,_ZN9__gnu_cxx17__normal_iteratorIPKiSt6vectorIiSaIiEEEC2ERKS2_
FN:795,_ZNK9__gnu_cxx17__normal_iteratorIPKiSt6vectorIiSaIiEEEdeEv
FN:795,_ZNK9__gnu_cxx17__normal_iteratorIPKSt6vectorIiSaIiEES1_IS3_SaIS3_EEEdeEv
FN:803,_ZN9__gnu_cxx17__normal_iteratorIPKSt6vectorIiSaIiEES1_IS3_SaIS3_EEEppEv
FN:803,_ZN9__gnu_cxx17__normal_iteratorIPKiSt6vectorIiSaIiEEEppEv
FN:847,_ZNK9__gnu_cxx17__normal_iteratorIPKSt6vectorIiSaIiEES1_IS3_SaIS3_EEE4baseEv
FN:847,_ZNK9__gnu_cxx17__normal_iteratorIPKiSt6vectorIiSaIiEEE4baseEv
FN:883,_ZN9__gnu_cxxneIPKSt6vectorIiSaIiEES1_IS3_SaIS3_EEEEbRKNS_17__normal_iteratorIT_T0_EESD_
FN:883,_ZN9__gnu_cxxneIPKiSt6vectorIiSaIiEEEEbRKNS_17__normal_iteratorIT_T0_EESB_
FN:986,_ZSt12__niter_baseIPKSt6vectorIiSaIiEES0_IS2_SaIS2_EEET_N9__gnu_cxx17__normal_iteratorIS7_T0_EE
FN:986,_ZSt12__niter_baseIPKiSt6vectorIiSaIiEEET_N9__gnu_cxx17__normal_iteratorIS5_T0_EE
FNDA:0,_ZN9__gnu_cxx17__normal_iteratorIPKiSt6vectorIiSaIiEEEC2ERKS2_
FNDA:0,_ZN9__gnu_cxx17__normal_iteratorIPKSt6vectorIiSaIiEES1_IS3_SaIS3_EEEC2ERKS5_
FNDA:0,_ZNK9__gnu_cxx17__normal_iteratorIPKiSt6vectorIiSaIiEEEdeEv
FNDA:0,_ZNK9__gnu_cxx17__normal_iteratorIPKSt6vectorIiSaIiEES1_IS3_SaIS3_EEEdeEv
FNDA:0,_ZN9__gnu_cxx17__normal_iteratorIPKiSt6vectorIiSaIiEEEppEv
FNDA:0,_ZN9__gnu_cxx17__normal_iteratorIPKSt6vectorIiSaIiEES1_IS3_SaIS3_EEEppEv
FNDA:0,_ZNK9__gnu_cxx17__normal_iteratorIPKiSt6vectorIiSaIiEEE4baseEv
FNDA:0,_ZNK9__gnu_cxx17__normal_iteratorIPKSt6vectorIiSaIiEES1_IS3_SaIS3_EEE4baseEv
FNDA:0,_ZN9__gnu_cxxneIPKiSt6vectorIiSaIiEEEEbRKNS_17__normal_iteratorIT_T0_EESB_
FNDA:0,_ZN9__gnu_cxxneIPKSt6vectorIiSaIiEES1_IS3_SaIS3_EEEEbRKNS_17__normal_iteratorIT_T0_EESD_
FNDA:0,_ZSt12__niter_baseIPKiSt6vectorIiSaIiEEET_N9__gnu_cxx17__normal_iteratorIS5_T0_EE
FNDA:0,_ZSt12__niter_baseIPKSt6vectorIiSaIiEES0_IS2_SaIS2_EEET_N9__gnu_cxx17__normal_iteratorIS7_T0_EE
FNF:12
FNH:0
DA:782,0
DA:783,0
DA:795,0
DA:796,0
DA:803,0
DA:805,0
DA:806,0
DA:847,0
DA:848,0
DA:883,0
DA:886,0
DA:986,0
DA:987,0
LF:13
LH:0
end_of_record
SF:/usr/include/c++/7/bits/stl_iterator_base_funcs.h
FN:98,_ZSt10__distanceIPKiENSt15iterator_traitsIT_E15difference_typeES3_S3_St26random_access_iterator_tag
FN:98,_ZSt10__distanceIPKSt6vectorIiSaIiEEENSt15iterator_traitsIT_E15difference_typeES6_S6_St26random_access_iterator_tag
FN:138,_ZSt8distanceIPKiENSt15iterator_traitsIT_E15difference_typeES3_S3_
FN:138,_ZSt8distanceIPKSt6vectorIiSaIiEEENSt15iterator_traitsIT_E15difference_typeES6_S6_
FNDA:0,_ZSt10__distanceIPKSt6vectorIiSaIiEEENSt15iterator_traitsIT_E15difference_typeES6_S6_St26random_access_iterator_tag
FNDA:0,_ZSt10__distanceIPKiENSt15iterator_traitsIT_E15difference_typeES3_S3_St26random_access_iterator_tag
FNDA:0,_ZSt8distanceIPKSt6vectorIiSaIiEEENSt15iterator_traitsIT_E15difference_typeES6_S6_
FNDA:0,_ZSt8distanceIPKiENSt15iterator_traitsIT_E15difference_typeES3_S3_
FNF:4
FNH:0
DA:98,0
DA:104,0
DA:138,0
DA:141,0
DA:142,0
LF:5
LH:0
end_of_record
SF:/usr/include/c++/7/bits/stl_iterator_base_types.h
FN:205,_ZSt19__iterator_categoryIPKSt6vectorIiSaIiEEENSt15iterator_traitsIT_E17iterator_categoryERKS6_
FN:205,_ZSt19__iterator_categoryIPKiENSt15iterator_traitsIT_E17iterator_categoryERKS3_
FNDA:0,_ZSt19__iterator_categoryIPKSt6vectorIiSaIiEEENSt15iterator_traitsIT_E17iterator_categoryERKS6_
FNDA:0,_ZSt19__iterator_categoryIPKiENSt15iterator_traitsIT_E17iterator_categoryERKS3_
FNF:2
FNH:0
DA:205,0
DA:206,0
LF:2
LH:0
end_of_record
SF:/usr/include/c++/7/bits/stl_uninitialized.h
FN:76,_ZNSt20__uninitialized_copyILb0EE13__uninit_copyIPKSt6vectorIiSaIiEEPS4_EET0_T_S9_S8_
FN:99,_ZNSt20__uninitialized_copyILb1EE13__uninit_copyIN9__gnu_cxx17__normal_iteratorIPKiSt6vectorIiSaIiEEEEPiEET0_T_SC_SB_
FN:99,_ZNSt20__uninitialized_copyILb1EE13__uninit_copyIPKiPiEET0_T_S6_S5_
FN:115,_ZSt18uninitialized_copyIN9__gnu_cxx17__normal_iteratorIPKiSt6vectorIiSaIiEEEEPiET0_T_SA_S9_
FN:115,_ZSt18uninitialized_copyIPKiPiET0_T_S4_S3_
FN:115,_ZSt18uninitialized_copyIPKSt6vectorIiSaIiEEPS2_ET0_T_S7_S6_
FN:287,_ZSt22__uninitialized_copy_aIPKSt6vectorIiSaIiEEPS2_S2_ET0_T_S7_S6_RSaIT1_E
FN:287,_ZSt22__uninitialized_copy_aIN9__gnu_cxx17__normal_iteratorIPKiSt6vectorIiSaIiEEEEPiiET0_T_SA_S9_RSaIT1_E
FN:287,_ZSt22__uninitialized_copy_aIPKiPiiET0_T_S4_S3_RSaIT1_E
FNDA:0,_ZNSt20__uninitialized_copyILb0EE13__uninit_copyIPKSt6vectorIiSaIiEEPS4_EET0_T_S9_S8_
FNDA:0,_ZNSt20__uninitialized_copyILb1EE13__uninit_copyIN9__gnu_cxx17__normal_iteratorIPKiSt6vectorIiSaIiEEEEPiEET0_T_SC_SB_
FNDA:0,_ZNSt20__uninitialized_copyILb1EE13__uninit_copyIPKiPiEET0_T_S6_S5_
FNDA:0,_ZSt18uninitialized_copyIN9__gnu_cxx17__normal_iteratorIPKiSt6vectorIiSaIiEEEEPiET0_T_SA_S9_
FNDA:0,_ZSt18uninitialized_copyIPKSt6vectorIiSaIiEEPS2_ET0_T_S7_S6_
FNDA:0,_ZSt18uninitialized_copyIPKiPiET0_T_S4_S3_
FNDA:0,_ZSt22__uninitialized_copy_aIN9__gnu_cxx17__normal_iteratorIPKiSt6vectorIiSaIiEEEEPiiET0_T_SA_S9_RSaIT1_E
FNDA:0,_ZSt22__uninitialized_copy_aIPKSt6vectorIiSaIiEEPS2_S2_ET0_T_S7_S6_RSaIT1_E
FNDA:0,_ZSt22__uninitialized_copy_aIPKiPiiET0_T_S4_S3_RSaIT1_E
FNF:9
FNH:0
DA:76,0
DA:79,0
DA:82,0
DA:83,0
DA:84,0
DA:86,0
DA:88,0
DA:89,0
DA:99,0
DA:101,0
DA:115,0
DA:128,0
DA:134,0
DA:287,0
DA:289,0
LF:15
LH:0
end_of_record
SF:/usr/include/c++/7/bits/stl_vector.h
FN:81,_ZNSt12_Vector_baseISt6vectorIiSaIiEESaIS2_EE12_Vector_implD2Ev
FN:81,_ZNSt12_Vector_baseIiSaIiEE12_Vector_implD2Ev
FN:92,_ZNSt12_Vector_baseISt6vectorIiSaIiEESaIS2_EE12_Vector_implC2ERKS3_
FN:92,_ZNSt12_Vector_baseIiSaIiEE12_Vector_implC2ERKS0_
FN:115,_ZNSt12_Vector_baseIiSaIiEE19_M_get_Tp_allocatorEv
FN:115,_ZNSt12_Vector_baseISt6vectorIiSaIiEESaIS2_EE19_M_get_Tp_allocatorEv
FN:119,_ZNKSt12_Vector_baseIiSaIiEE19_M_get_Tp_allocatorEv
FN:129,_ZNSt12_Vector_baseIiSaIiEEC2ERKS0_
FN:129,_ZNSt12_Vector_baseISt6vectorIiSaIiEESaIS2_EEC2ERKS3_
FN:136,_ZNSt12_Vector_baseIiSaIiEEC2EmRKS0_
FN:161,_ZNSt12_Vector_baseIiSaIiEED2Ev
FN:161,_ZNSt12_Vector_baseISt6vectorIiSaIiEESaIS2_EED2Ev
FN:169,_ZNSt12_Vector_baseISt6vectorIiSaIiEESaIS2_EE11_M_allocateEm
FN:169,_ZNSt12_Vector_baseIiSaIiEE11_M_allocateEm
FN:176,_ZNSt12_Vector_baseISt6vectorIiSaIiEESaIS2_EE13_M_deallocateEPS2_m
FN:176,_ZNSt12_Vector_baseIiSaIiEE13_M_deallocateEPim
FN:185,_ZNSt12_Vector_baseIiSaIiEE17_M_create_storageEm
FN:326,_ZNSt6vectorIiSaIiEEC2ERKS1_
FN:383,_ZNSt6vectorIiSaIiEEC2ESt16initializer_listIiERKS0_
FN:383,_ZNSt6vectorIS_IiSaIiEESaIS1_EEC2ESt16initializer_listIS1_ERKS2_
FN:433,_ZNSt6vectorIS_IiSaIiEESaIS1_EED2Ev
FN:433,_ZNSt6vectorIiSaIiEED2Ev
FN:572,_ZNKSt6vectorIiSaIiEE5beginEv
FN:572,_ZNKSt6vectorIS_IiSaIiEESaIS1_EE5beginEv
FN:590,_ZNKSt6vectorIS_IiSaIiEESaIS1_EE3endEv
FN:590,_ZNKSt6vectorIiSaIiEE3endEv
FN:670,_ZNKSt6vectorIiSaIiEE4sizeEv
FN:670,_ZNKSt6vectorIS_IiSaIiEESaIS1_EE4sizeEv
FN:1324,_ZNSt6vectorIiSaIiEE19_M_range_initializeIPKiEEvT_S5_St20forward_iterator_tag
FN:1324,_ZNSt6vectorIS_IiSaIiEESaIS1_EE19_M_range_initializeIPKS1_EEvT_S7_St20forward_iterator_tag
FN:1601,_ZSteqIiSaIiEEbRKSt6vectorIT_T0_ES6_
FN:1601,_ZSteqISt6vectorIiSaIiEESaIS2_EEbRKS0_IT_T0_ES8_
FNDA:0,_ZNSt12_Vector_baseISt6vectorIiSaIiEESaIS2_EE12_Vector_implD2Ev
FNDA:0,_ZNSt12_Vector_baseIiSaIiEE12_Vector_implD2Ev
FNDA:0,_ZNSt12_Vector_baseISt6vectorIiSaIiEESaIS2_EE12_Vector_implC2ERKS3_
FNDA:0,_ZNSt12_Vector_baseIiSaIiEE12_Vector_implC2ERKS0_
FNDA:0,_ZNSt12_Vector_baseISt6vectorIiSaIiEESaIS2_EE19_M_get_Tp_allocatorEv
FNDA:0,_ZNSt12_Vector_baseIiSaIiEE19_M_get_Tp_allocatorEv
FNDA:0,_ZNKSt12_Vector_baseIiSaIiEE19_M_get_Tp_allocatorEv
FNDA:0,_ZNSt12_Vector_baseISt6vectorIiSaIiEESaIS2_EEC2ERKS3_
FNDA:0,_ZNSt12_Vector_baseIiSaIiEEC2ERKS0_
FNDA:0,_ZNSt12_Vector_baseIiSaIiEEC2EmRKS0_
FNDA:0,_ZNSt12_Vector_baseISt6vectorIiSaIiEESaIS2_EED2Ev
FNDA:0,_ZNSt12_Vector_baseIiSaIiEED2Ev
FNDA:0,_ZNSt12_Vector_baseISt6vectorIiSaIiEESaIS2_EE11_M_allocateEm
FNDA:0,_ZNSt12_Vector_baseIiSaIiEE11_M_allocateEm
FNDA:0,_ZNSt12_Vector_baseISt6vectorIiSaIiEESaIS2_EE13_M_deallocateEPS2_m
FNDA:0,_ZNSt12_Vector_baseIiSaIiEE13_M_deallocateEPim
FNDA:0,_ZNSt12_Vector_baseIiSaIiEE17_M_create_storageEm
FNDA:0,_ZNSt6vectorIiSaIiEEC2ERKS1_
FNDA:0,_ZNSt6vectorIS_IiSaIiEESaIS1_EEC2ESt16initializer_listIS1_ERKS2_
FNDA:0,_ZNSt6vectorIiSaIiEEC2ESt16initializer_listIiERKS0_
FNDA:0,_ZNSt6vectorIS_IiSaIiEESaIS1_EED2Ev
FNDA:0,_ZNSt6vectorIiSaIiEED2Ev
FNDA:0,_ZNKSt6vectorIiSaIiEE5beginEv
FNDA:0,_ZNKSt6vectorIS_IiSaIiEESaIS1_EE5beginEv
FNDA:0,_ZNKSt6vectorIiSaIiEE3endEv
FNDA:0,_ZNKSt6vectorIS_IiSaIiEESaIS1_EE3endEv
FNDA:0,_ZNKSt6vectorIiSaIiEE4sizeEv
FNDA:0,_ZNKSt6vectorIS_IiSaIiEESaIS1_EE4sizeEv
FNDA:0,_ZNSt6vectorIS_IiSaIiEESaIS1_EE19_M_range_initializeIPKS1_EEvT_S7_St20forward_iterator_tag
FNDA:0,_ZNSt6vectorIiSaIiEE19_M_range_initializeIPKiEEvT_S5_St20forward_iterator_tag
FNDA:0,_ZSteqIiSaIiEEbRKSt6vectorIT_T0_ES6_
FNDA:0,_ZSteqISt6vectorIiSaIiEESaIS2_EEbRKS0_IT_T0_ES8_
FNF:32
FNH:0
DA:81,0
DA:92,0
DA:93,0
DA:94,0
DA:115,0
DA:116,0
DA:119,0
DA:120,0
DA:129,0
DA:130,0
DA:136,0
DA:137,0
DA:138,0
DA:161,0
DA:162,0
DA:163,0
DA:169,0
DA:172,0
DA:176,0
DA:179,0
DA:180,0
DA:181,0
DA:185,0
DA:187,0
DA:188,0
DA:189,0
DA:190,0
DA:326,0
DA:328,0
DA:330,0
DA:331,0
DA:333,0
DA:334,0
DA:383,0
DA:385,0
DA:387,0
DA:389,0
DA:433,0
DA:434,0
DA:435,0
DA:572,0
DA:573,0
DA:590,0
DA:591,0
DA:670,0
DA:671,0
DA:1324,0
DA:1327,0
DA:1328,0
DA:1329,0
DA:1330,0
DA:1331,0
DA:1333,0
DA:1334,0
DA:1601,0
DA:1602,0
DA:1603,0
LF:57
LH:0
end_of_record
SF:/usr/include/c++/7/bits/unique_ptr.h
FN:72,_ZNKSt14default_deleteINSt7__cxx1112basic_stringIcSt11char_traitsIcESaIcEEEEclEPS5_
FN:72,_ZNKSt14default_deleteINSt7__cxx1118basic_stringstreamIcSt11char_traitsIcESaIcEEEEclEPS5_
FN:146,_ZNSt15__uniq_ptr_implINSt7__cxx1112basic_stringIcSt11char_traitsIcESaIcEEESt14default_deleteIS5_EE6_M_ptrEv
FN:146,_ZNSt15__uniq_ptr_implINSt7__cxx1118basic_stringstreamIcSt11char_traitsIcESaIcEEESt14default_deleteIS5_EE6_M_ptrEv
FN:147,_ZNKSt15__uniq_ptr_implINSt7__cxx1112basic_stringIcSt11char_traitsIcESaIcEEESt14default_deleteIS5_EE6_M_ptrEv
FN:148,_ZNSt15__uniq_ptr_implINSt7__cxx1112basic_stringIcSt11char_traitsIcESaIcEEESt14default_deleteIS5_EE10_M_deleterEv
FN:148,_ZNSt15__uniq_ptr_implINSt7__cxx1118basic_stringstreamIcSt11char_traitsIcESaIcEEESt14default_deleteIS5_EE10_M_deleterEv
FN:264,_ZNSt10unique_ptrINSt7__cxx1112basic_stringIcSt11char_traitsIcESaIcEEESt14default_deleteIS5_EED2Ev
FN:264,_ZNSt10unique_ptrINSt7__cxx1118basic_stringstreamIcSt11char_traitsIcESaIcEEESt14default_deleteIS5_EED2Ev
FN:328,_ZNKSt10unique_ptrINSt7__cxx1112basic_stringIcSt11char_traitsIcESaIcEEESt14default_deleteIS5_EEptEv
FN:336,_ZNKSt10unique_ptrINSt7__cxx1112basic_stringIcSt11char_traitsIcESaIcEEESt14default_deleteIS5_EE3getEv
FN:341,_ZNSt10unique_ptrINSt7__cxx1112basic_stringIcSt11char_traitsIcESaIcEEESt14default_deleteIS5_EE11get_deleterEv
FN:341,_ZNSt10unique_ptrINSt7__cxx1118basic_stringstreamIcSt11char_traitsIcESaIcEEESt14default_deleteIS5_EE11get_deleterEv
FNDA:0,_ZNKSt14default_deleteINSt7__cxx1112basic_stringIcSt11char_traitsIcESaIcEEEEclEPS5_
FNDA:0,_ZNKSt14default_deleteINSt7__cxx1118basic_stringstreamIcSt11char_traitsIcESaIcEEEEclEPS5_
FNDA:0,_ZNSt15__uniq_ptr_implINSt7__cxx1112basic_stringIcSt11char_traitsIcESaIcEEESt14default_deleteIS5_EE6_M_ptrEv
FNDA:0,_ZNSt15__uniq_ptr_implINSt7__cxx1118basic_stringstreamIcSt11char_traitsIcESaIcEEESt14default_deleteIS5_EE6_M_ptrEv
FNDA:0,_ZNKSt15__uniq_ptr_implINSt7__cxx1112basic_stringIcSt11char_traitsIcESaIcEEESt14default_deleteIS5_EE6_M_ptrEv
FNDA:0,_ZNSt15__uniq_ptr_implINSt7__cxx1112basic_stringIcSt11char_traitsIcESaIcEEESt14default_deleteIS5_EE10_M_deleterEv
FNDA:0,_ZNSt15__uniq_ptr_implINSt7__cxx1118basic_stringstreamIcSt11char_traitsIcESaIcEEESt14default_deleteIS5_EE10_M_deleterEv
FNDA:0,_ZNSt10unique_ptrINSt7__cxx1112basic_stringIcSt11char_traitsIcESaIcEEESt14default_deleteIS5_EED2Ev
FNDA:0,_ZNSt10unique_ptrINSt7__cxx1118basic_stringstreamIcSt11char_traitsIcESaIcEEESt14default_deleteIS5_EED2Ev
FNDA:0,_ZNKSt10unique_ptrINSt7__cxx1112basic_stringIcSt11char_traitsIcESaIcEEESt14default_deleteIS5_EEptEv
FNDA:0,_ZNKSt10unique_ptrINSt7__cxx1112basic_stringIcSt11char_traitsIcESaIcEEESt14default_deleteIS5_EE3getEv
FNDA:0,_ZNSt10unique_ptrINSt7__cxx1112basic_stringIcSt11char_traitsIcESaIcEEESt14default_deleteIS5_EE11get_deleterEv
FNDA:0,_ZNSt10unique_ptrINSt7__cxx1118basic_stringstreamIcSt11char_traitsIcESaIcEEESt14default_deleteIS5_EE11get_deleterEv
FNF:13
FNH:0
DA:72,0
DA:78,0
DA:79,0
DA:146,0
DA:147,0
DA:148,0
DA:264,0
DA:266,0
DA:267,0
DA:268,0
DA:269,0
DA:270,0
DA:328,0
DA:331,0
DA:336,0
DA:337,0
DA:341,0
DA:342,0
LF:18
LH:0
end_of_record
SF:/usr/include/c++/7/ext/alloc_traits.h
FN:94,_ZN9__gnu_cxx14__alloc_traitsISaIiEE17_S_select_on_copyERKS1_
FNDA:0,_ZN9__gnu_cxx14__alloc_traitsISaIiEE17_S_select_on_copyERKS1_
FNF:1
FNH:0
DA:94,0
DA:95,0
LF:2
LH:0
end_of_record
SF:/usr/include/c++/7/ext/new_allocator.h
FN:79,_ZN9__gnu_cxx13new_allocatorISt6vectorIiSaIiEEEC2Ev
FN:79,_ZN9__gnu_cxx13new_allocatorIiEC2Ev
FN:81,_ZN9__gnu_cxx13new_allocatorIiEC2ERKS1_
FN:81,_ZN9__gnu_cxx13new_allocatorISt6vectorIiSaIiEEEC2ERKS4_
FN:86,_ZN9__gnu_cxx13new_allocatorISt6vectorIiSaIiEEED2Ev
FN:86,_ZN9__gnu_cxx13new_allocatorIiED2Ev
FN:99,_ZN9__gnu_cxx13new_allocatorISt6vectorIiSaIiEEE8allocateEmPKv
FN:99,_ZN9__gnu_cxx13new_allocatorIiE8allocateEmPKv
FN:116,_ZN9__gnu_cxx13new_allocatorIiE10deallocateEPim
FN:116,_ZN9__gnu_cxx13new_allocatorISt6vectorIiSaIiEEE10deallocateEPS3_m
FN:129,_ZNK9__gnu_cxx13new_allocatorISt6vectorIiSaIiEEE8max_sizeEv
FN:129,_ZNK9__gnu_cxx13new_allocatorIiE8max_sizeEv
FNDA:0,_ZN9__gnu_cxx13new_allocatorISt6vectorIiSaIiEEEC2Ev
FNDA:0,_ZN9__gnu_cxx13new_allocatorIiEC2Ev
FNDA:0,_ZN9__gnu_cxx13new_allocatorISt6vectorIiSaIiEEEC2ERKS4_
FNDA:0,_ZN9__gnu_cxx13new_allocatorIiEC2ERKS1_
FNDA:0,_ZN9__gnu_cxx13new_allocatorISt6vectorIiSaIiEEED2Ev
FNDA:0,_ZN9__gnu_cxx13new_allocatorIiED2Ev
FNDA:0,_ZN9__gnu_cxx13new_allocatorISt6vectorIiSaIiEEE8allocateEmPKv
FNDA:0,_ZN9__gnu_cxx13new_allocatorIiE8allocateEmPKv
FNDA:0,_ZN9__gnu_cxx13new_allocatorISt6vectorIiSaIiEEE10deallocateEPS3_m
FNDA:0,_ZN9__gnu_cxx13new_allocatorIiE10deallocateEPim
FNDA:0,_ZNK9__gnu_cxx13new_allocatorISt6vectorIiSaIiEEE8max_sizeEv
FNDA:0,_ZNK9__gnu_cxx13new_allocatorIiE8max_sizeEv
FNF:12
FNH:0
DA:79,0
DA:81,0
DA:86,0
DA:99,0
DA:101,0
DA:102,0
DA:111,0
DA:116,0
DA:125,0
DA:126,0
DA:129,0
DA:130,0
LF:12
LH:0
end_of_record
SF:/usr/include/c++/7/initializer_list
FN:71,_ZNKSt16initializer_listIiE4sizeEv
FN:71,_ZNKSt16initializer_listISt6vectorIiSaIiEEE4sizeEv
FN:75,_ZNKSt16initializer_listIiE5beginEv
FN:75,_ZNKSt16initializer_listISt6vectorIiSaIiEEE5beginEv
FN:79,_ZNKSt16initializer_listIiE3endEv
FN:79,_ZNKSt16initializer_listISt6vectorIiSaIiEEE3endEv
FNDA:0,_ZNKSt16initializer_listISt6vectorIiSaIiEEE4sizeEv
FNDA:0,_ZNKSt16initializer_listIiE4sizeEv
FNDA:0,_ZNKSt16initializer_listISt6vectorIiSaIiEEE5beginEv
FNDA:0,_ZNKSt16initializer_listIiE5beginEv
FNDA:0,_ZNKSt16initializer_listISt6vectorIiSaIiEEE3endEv
FNDA:0,_ZNKSt16initializer_listIiE3endEv
FNF:6
FNH:0
DA:71,0
DA:75,0
DA:79,0
LF:3
LH:0
end_of_record
SF:/usr/include/c++/7/iostream
DA:74,12
LF:1
LH:1
end_of_record
SF:/usr/include/c++/7/new
FN:168,_ZnwmPv
FN:174,_ZdlPvS_
FNDA:0,_ZnwmPv
FNDA:0,_ZdlPvS_
FNF:2
FNH:0
DA:168,0
DA:169,0
DA:174,0
LF:3
LH:0
end_of_record
SF:/usr/include/c++/7/tuple
FN:113,_ZNSt10_Head_baseILm1ESt14default_deleteINSt7__cxx1112basic_stringIcSt11char_traitsIcESaIcEEEELb1EE7_M_headERS8_
FN:113,_ZNSt10_Head_baseILm1ESt14default_deleteINSt7__cxx1118basic_stringstreamIcSt11char_traitsIcESaIcEEEELb1EE7_M_headERS8_
FN:160,_ZNSt10_Head_baseILm0EPNSt7__cxx1118basic_stringstreamIcSt11char_traitsIcESaIcEEELb0EE7_M_headERS7_
FN:160,_ZNSt10_Head_baseILm0EPNSt7__cxx1112basic_stringIcSt11char_traitsIcESaIcEEELb0EE7_M_headERS7_
FN:163,_ZNSt10_Head_baseILm0EPNSt7__cxx1112basic_stringIcSt11char_traitsIcESaIcEEELb0EE7_M_headERKS7_
FN:195,_ZNSt11_Tuple_implILm0EJPNSt7__cxx1118basic_stringstreamIcSt11char_traitsIcESaIcEEESt14default_deleteIS5_EEE7_M_headERS9_
FN:195,_ZNSt11_Tuple_implILm0EJPNSt7__cxx1112basic_stringIcSt11char_traitsIcESaIcEEESt14default_deleteIS5_EEE7_M_headERS9_
FN:198,_ZNSt11_Tuple_implILm0EJPNSt7__cxx1112basic_stringIcSt11char_traitsIcESaIcEEESt14default_deleteIS5_EEE7_M_headERKS9_
FN:351,_ZNSt11_Tuple_implILm1EJSt14default_deleteINSt7__cxx1112basic_stringIcSt11char_traitsIcESaIcEEEEEE7_M_headERS8_
FN:351,_ZNSt11_Tuple_implILm1EJSt14default_deleteINSt7__cxx1118basic_stringstreamIcSt11char_traitsIcESaIcEEEEEE7_M_headERS8_
FN:1303,_ZSt12__get_helperILm1ESt14default_deleteINSt7__cxx1118basic_stringstreamIcSt11char_traitsIcESaIcEEEEJEERT0_RSt11_Tuple_implIXT_EJS8_DpT1_EE
FN:1303,_ZSt12__get_helperILm0EPNSt7__cxx1118basic_stringstreamIcSt11char_traitsIcESaIcEEEJSt14default_deleteIS5_EEERT0_RSt11_Tuple_implIXT_EJS9_DpT1_EE
FN:1303,_ZSt12__get_helperILm1ESt14default_deleteINSt7__cxx1112basic_stringIcSt11char_traitsIcESaIcEEEEJEERT0_RSt11_Tuple_implIXT_EJS8_DpT1_EE
FN:1303,_ZSt12__get_helperILm0EPNSt7__cxx1112basic_stringIcSt11char_traitsIcESaIcEEEJSt14default_deleteIS5_EEERT0_RSt11_Tuple_implIXT_EJS9_DpT1_EE
FN:1308,_ZSt12__get_helperILm0EPNSt7__cxx1112basic_stringIcSt11char_traitsIcESaIcEEEJSt14default_deleteIS5_EEERKT0_RKSt11_Tuple_implIXT_EJS9_DpT1_EE
FN:1314,_ZSt3getILm0EJPNSt7__cxx1118basic_stringstreamIcSt11char_traitsIcESaIcEEESt14default_deleteIS5_EEERNSt13tuple_elementIXT_ESt5tupleIJDpT0_EEE4typeERSD_
FN:1314,_ZSt3getILm1EJPNSt7__cxx1118basic_stringstreamIcSt11char_traitsIcESaIcEEESt14default_deleteIS5_EEERNSt13tuple_elementIXT_ESt5tupleIJDpT0_EEE4typeERSD_
FN:1314,_ZSt3getILm0EJPNSt7__cxx1112basic_stringIcSt11char_traitsIcESaIcEEESt14default_deleteIS5_EEERNSt13tuple_elementIXT_ESt5tupleIJDpT0_EEE4typeERSD_
FN:1314,_ZSt3getILm1EJPNSt7__cxx1112basic_stringIcSt11char_traitsIcESaIcEEESt14default_deleteIS5_EEERNSt13tuple_elementIXT_ESt5tupleIJDpT0_EEE4typeERSD_
FN:1320,_ZSt3getILm0EJPNSt7__cxx1112basic_stringIcSt11char_traitsIcESaIcEEESt14default_deleteIS5_EEERKNSt13tuple_elementIXT_ESt5tupleIJDpT0_EEE4typeERKSD_
FNDA:0,_ZNSt10_Head_baseILm1ESt14default_deleteINSt7__cxx1112basic_stringIcSt11char_traitsIcESaIcEEEELb1EE7_M_headERS8_
FNDA:0,_ZNSt10_Head_baseILm1ESt14default_deleteINSt7__cxx1118basic_stringstreamIcSt11char_traitsIcESaIcEEEELb1EE7_M_headERS8_
FNDA:0,_ZNSt10_Head_baseILm0EPNSt7__cxx1112basic_stringIcSt11char_traitsIcESaIcEEELb0EE7_M_headERS7_
FNDA:0,_ZNSt10_Head_baseILm0EPNSt7__cxx1118basic_stringstreamIcSt11char_traitsIcESaIcEEELb0EE7_M_headERS7_
FNDA:0,_ZNSt10_Head_baseILm0EPNSt7__cxx1112basic_stringIcSt11char_traitsIcESaIcEEELb0EE7_M_headERKS7_
FNDA:0,_ZNSt11_Tuple_implILm0EJPNSt7__cxx1112basic_stringIcSt11char_traitsIcESaIcEEESt14default_deleteIS5_EEE7_M_headERS9_
FNDA:0,_ZNSt11_Tuple_implILm0EJPNSt7__cxx1118basic_stringstreamIcSt11char_traitsIcESaIcEEESt14default_deleteIS5_EEE7_M_headERS9_
FNDA:0,_ZNSt11_Tuple_implILm0EJPNSt7__cxx1112basic_stringIcSt11char_traitsIcESaIcEEESt14default_deleteIS5_EEE7_M_headERKS9_
FNDA:0,_ZNSt11_Tuple_implILm1EJSt14default_deleteINSt7__cxx1112basic_stringIcSt11char_traitsIcESaIcEEEEEE7_M_headERS8_
FNDA:0,_ZNSt11_Tuple_implILm1EJSt14default_deleteINSt7__cxx1118basic_stringstreamIcSt11char_traitsIcESaIcEEEEEE7_M_headERS8_
FNDA:0,_ZSt12__get_helperILm1ESt14default_deleteINSt7__cxx1112basic_stringIcSt11char_traitsIcESaIcEEEEJEERT0_RSt11_Tuple_implIXT_EJS8_DpT1_EE
FNDA:0,_ZSt12__get_helperILm1ESt14default_deleteINSt7__cxx1118basic_stringstreamIcSt11char_traitsIcESaIcEEEEJEERT0_RSt11_Tuple_implIXT_EJS8_DpT1_EE
FNDA:0,_ZSt12__get_helperILm0EPNSt7__cxx1112basic_stringIcSt11char_traitsIcESaIcEEEJSt14default_deleteIS5_EEERT0_RSt11_Tuple_implIXT_EJS9_DpT1_EE
FNDA:0,_ZSt12__get_helperILm0EPNSt7__cxx1118basic_stringstreamIcSt11char_traitsIcESaIcEEEJSt14default_deleteIS5_EEERT0_RSt11_Tuple_implIXT_EJS9_DpT1_EE
FNDA:0,_ZSt12__get_helperILm0EPNSt7__cxx1112basic_stringIcSt11char_traitsIcESaIcEEEJSt14default_deleteIS5_EEERKT0_RKSt11_Tuple_implIXT_EJS9_DpT1_EE
FNDA:0,_ZSt3getILm1EJPNSt7__cxx1112basic_stringIcSt11char_traitsIcESaIcEEESt14default_deleteIS5_EEERNSt13tuple_elementIXT_ESt5tupleIJDpT0_EEE4typeERSD_
FNDA:0,_ZSt3getILm1EJPNSt7__cxx1118basic_stringstreamIcSt11char_traitsIcESaIcEEESt14default_deleteIS5_EEERNSt13tuple_elementIXT_ESt5tupleIJDpT0_EEE4typeERSD_
FNDA:0,_ZSt3getILm0EJPNSt7__cxx1112basic_stringIcSt11char_traitsIcESaIcEEESt14default_deleteIS5_EEERNSt13tuple_elementIXT_ESt5tupleIJDpT0_EEE4typeERSD_
FNDA:0,_ZSt3getILm0EJPNSt7__cxx1118basic_stringstreamIcSt11char_traitsIcESaIcEEESt14default_deleteIS5_EEERNSt13tuple_elementIXT_ESt5tupleIJDpT0_EEE4typeERSD_
FNDA:0,_ZSt3getILm0EJPNSt7__cxx1112basic_stringIcSt11char_traitsIcESaIcEEESt14default_deleteIS5_EEERKNSt13tuple_elementIXT_ESt5tupleIJDpT0_EEE4typeERKSD_
FNF:20
FNH:0
DA:113,0
DA:160,0
DA:163,0
DA:195,0
DA:198,0
DA:351,0
DA:1303,0
DA:1304,0
DA:1308,0
DA:1309,0
DA:1314,0
DA:1315,0
DA:1320,0
DA:1321,0
LF:14
LH:0
end_of_record
TN:
SF:/home/fyulita/Desktop/tpi/algo1-TPI/lib/googletest-master/googletest/include/gtest/gtest-message.h
FN:91,_ZN7testing7MessageD2Ev
FNDA:193,_ZN7testing7MessageD2Ev
FNF:1
FNH:1
DA:91,193
LF:1
LH:1
end_of_record
SF:/home/fyulita/Desktop/tpi/algo1-TPI/lib/googletest-master/googletest/include/gtest/gtest.h
FN:275,_ZN7testing15AssertionResultD2Ev
FN:293,_ZN7testing15AssertionResultC2IbEERKT_PNSt9enable_ifIXntsrSt14is_convertibleIS2_S0_E5valueEvE4typeE
FN:312,_ZNK7testing15AssertionResultcvbEv
FN:417,_ZN7testing4Test14SetUpTestSuiteEv
FN:427,_ZN7testing4Test17TearDownTestSuiteEv
FN:431,_ZN7testing4Test16TearDownTestCaseEv
FN:432,_ZN7testing4Test13SetUpTestCaseEv
FN:513,_ZN7testing4Test5SetupEv
FNDA:90,_ZN7testing15AssertionResultD2Ev
FNDA:90,_ZN7testing15AssertionResultC2IbEERKT_PNSt9enable_ifIXntsrSt14is_convertibleIS2_S0_E5valueEvE4typeE
FNDA:90,_ZNK7testing15AssertionResultcvbEv
FNDA:0,_ZN7testing4Test14SetUpTestSuiteEv
FNDA:0,_ZN7testing4Test17TearDownTestSuiteEv
FNDA:0,_ZN7testing4Test16TearDownTestCaseEv
FNDA:0,_ZN7testing4Test13SetUpTestCaseEv
FNDA:0,_ZN7testing4Test5SetupEv
FNF:8
FNH:3
DA:275,90
DA:293,90
DA:299,90
DA:312,90
DA:417,0
DA:427,0
DA:431,0
DA:432,0
DA:513,0
LF:9
LH:4
end_of_record
SF:/home/fyulita/Desktop/tpi/algo1-TPI/lib/googletest-master/googletest/include/gtest/internal/gtest-internal.h
FN:442,_ZN7testing8internal15TestFactoryBaseD2Ev
FN:442,_ZN7testing8internal15TestFactoryBaseD0Ev
FN:449,_ZN7testing8internal15TestFactoryBaseC2Ev
FN:458,_ZN7testing8internal15TestFactoryImplI50esImagenValidaTest_ImagenDeUnElementoEsValida_TestED0Ev
FN:458,_ZN7testing8internal15TestFactoryImplI50esImagenValidaTest_ImagenDeUnElementoEsValida_TestED2Ev
FN:458,_ZN7testing8internal15TestFactoryImplI50esImagenValidaTest_ImagenDeUnElementoEsValida_TestEC2Ev
FN:458,_ZN7testing8internal15TestFactoryImplI70esImagenValidaTest_ImagenConMuchosElementoDistintoDe0o1EsInvalida_TestEC2Ev
FN:458,_ZN7testing8internal15TestFactoryImplI68esImagenValidaTest_ImagenDeDosFilasDeDiferenteTamanioEsInvalida_TestEC2Ev
FN:458,_ZN7testing8internal15TestFactoryImplI68esImagenValidaTest_ImagenDeDosFilasDeDiferenteTamanioEsInvalida_TestED0Ev
FN:458,_ZN7testing8internal15TestFactoryImplI70esImagenValidaTest_ImagenConMuchosElementoDistintoDe0o1EsInvalida_TestED2Ev
FN:458,_ZN7testing8internal15TestFactoryImplI68esImagenValidaTest_ImagenDeDosFilasDeDiferenteTamanioEsInvalida_TestED2Ev
FN:458,_ZN7testing8internal15TestFactoryImplI48esImagenValidaTest_ImagenNoCuadradaEsValida_TestEC2Ev
FN:458,_ZN7testing8internal15TestFactoryImplI45esImagenValidaTest_ImagenVaciaNoEsValida_TestEC2Ev
FN:458,_ZN7testing8internal15TestFactoryImplI45esImagenValidaTest_ImagenVaciaNoEsValida_TestED0Ev
FN:458,_ZN7testing8internal15TestFactoryImplI48esImagenValidaTest_ImagenNoCuadradaEsValida_TestED0Ev
FN:458,_ZN7testing8internal15TestFactoryImplI45esImagenValidaTest_ImagenVaciaNoEsValida_TestED2Ev
FN:458,_ZN7testing8internal15TestFactoryImplI48esImagenValidaTest_ImagenNoCuadradaEsValida_TestED2Ev
FN:458,_ZN7testing8internal15TestFactoryImplI70esImagenValidaTest_ImagenConMuchosElementoDistintoDe0o1EsInvalida_TestED0Ev
FN:460,_ZN7testing8internal15TestFactoryImplI45esImagenValidaTest_ImagenVaciaNoEsValida_TestE10CreateTestEv
FN:460,_ZN7testing8internal15TestFactoryImplI48esImagenValidaTest_ImagenNoCuadradaEsValida_TestE10CreateTestEv
FN:460,_ZN7testing8internal15TestFactoryImplI70esImagenValidaTest_ImagenConMuchosElementoDistintoDe0o1EsInvalida_TestE10CreateTestEv
FN:460,_ZN7testing8internal15TestFactoryImplI68esImagenValidaTest_ImagenDeDosFilasDeDiferenteTamanioEsInvalida_TestE10CreateTestEv
FN:460,_ZN7testing8internal15TestFactoryImplI50esImagenValidaTest_ImagenDeUnElementoEsValida_TestE10CreateTestEv
FN:480,_ZN7testing8internal12CodeLocationD2Ev
FN:481,_ZN7testing8internal12CodeLocationC2ERKNSt7__cxx1112basic_stringIcSt11char_traitsIcESaIcEEEi
FN:494,_ZN7testing8internal19GetNotDefaultOrNullEPFvvES2_
FN:509,_ZN7testing8internal16SuiteApiResolverINS_4TestEE19GetSetUpCaseOrSuiteEPKci
FN:524,_ZN7testing8internal16SuiteApiResolverINS_4TestEE22GetTearDownCaseOrSuiteEPKci
FNDA:0,_ZN7testing8internal15TestFactoryBaseD0Ev
FNDA:90,_ZN7testing8internal15TestFactoryBaseD2Ev
FNDA:90,_ZN7testing8internal15TestFactoryBaseC2Ev
FNDA:1,_ZN7testing8internal15TestFactoryImplI45esImagenValidaTest_ImagenVaciaNoEsValida_TestED0Ev
FNDA:1,_ZN7testing8internal15TestFactoryImplI45esImagenValidaTest_ImagenVaciaNoEsValida_TestED2Ev
FNDA:1,_ZN7testing8internal15TestFactoryImplI50esImagenValidaTest_ImagenDeUnElementoEsValida_TestED0Ev
FNDA:1,_ZN7testing8internal15TestFactoryImplI50esImagenValidaTest_ImagenDeUnElementoEsValida_TestED2Ev
FNDA:1,_ZN7testing8internal15TestFactoryImplI68esImagenValidaTest_ImagenDeDosFilasDeDiferenteTamanioEsInvalida_TestED0Ev
FNDA:1,_ZN7testing8internal15TestFactoryImplI68esImagenValidaTest_ImagenDeDosFilasDeDiferenteTamanioEsInvalida_TestED2Ev
FNDA:1,_ZN7testing8internal15TestFactoryImplI70esImagenValidaTest_ImagenConMuchosElementoDistintoDe0o1EsInvalida_TestED0Ev
FNDA:1,_ZN7testing8internal15TestFactoryImplI70esImagenValidaTest_ImagenConMuchosElementoDistintoDe0o1EsInvalida_TestED2Ev
FNDA:1,_ZN7testing8internal15TestFactoryImplI48esImagenValidaTest_ImagenNoCuadradaEsValida_TestED0Ev
FNDA:1,_ZN7testing8internal15TestFactoryImplI48esImagenValidaTest_ImagenNoCuadradaEsValida_TestED2Ev
FNDA:1,_ZN7testing8internal15TestFactoryImplI48esImagenValidaTest_ImagenNoCuadradaEsValida_TestEC2Ev
FNDA:1,_ZN7testing8internal15TestFactoryImplI70esImagenValidaTest_ImagenConMuchosElementoDistintoDe0o1EsInvalida_TestEC2Ev
FNDA:1,_ZN7testing8internal15TestFactoryImplI68esImagenValidaTest_ImagenDeDosFilasDeDiferenteTamanioEsInvalida_TestEC2Ev
FNDA:1,_ZN7testing8internal15TestFactoryImplI50esImagenValidaTest_ImagenDeUnElementoEsValida_TestEC2Ev
FNDA:1,_ZN7testing8internal15TestFactoryImplI45esImagenValidaTest_ImagenVaciaNoEsValida_TestEC2Ev
FNDA:1,_ZN7testing8internal15TestFactoryImplI45esImagenValidaTest_ImagenVaciaNoEsValida_TestE10CreateTestEv
FNDA:1,_ZN7testing8internal15TestFactoryImplI50esImagenValidaTest_ImagenDeUnElementoEsValida_TestE10CreateTestEv
FNDA:1,_ZN7testing8internal15TestFactoryImplI68esImagenValidaTest_ImagenDeDosFilasDeDiferenteTamanioEsInvalida_TestE10CreateTestEv
FNDA:1,_ZN7testing8internal15TestFactoryImplI70esImagenValidaTest_ImagenConMuchosElementoDistintoDe0o1EsInvalida_TestE10CreateTestEv
FNDA:1,_ZN7testing8internal15TestFactoryImplI48esImagenValidaTest_ImagenNoCuadradaEsValida_TestE10CreateTestEv
FNDA:270,_ZN7testing8internal12CodeLocationD2Ev
FNDA:90,_ZN7testing8internal12CodeLocationC2ERKNSt7__cxx1112basic_stringIcSt11char_traitsIcESaIcEEEi
FNDA:360,_ZN7testing8internal19GetNotDefaultOrNullEPFvvES2_
FNDA:90,_ZN7testing8internal16SuiteApiResolverINS_4TestEE19GetSetUpCaseOrSuiteEPKci
FNDA:90,_ZN7testing8internal16SuiteApiResolverINS_4TestEE22GetTearDownCaseOrSuiteEPKci
FNF:28
FNH:27
DA:442,90
DA:449,90
DA:458,15
DA:460,5
DA:480,270
DA:481,90
DA:482,90
DA:494,360
DA:496,360
DA:509,90
DA:511,90
DA:513,90
DA:516,90
DA:519,0
DA:521,90
DA:524,90
DA:526,90
DA:528,90
DA:531,90
DA:534,0
DA:536,90
LF:21
LH:19
end_of_record
SF:/home/fyulita/Desktop/tpi/algo1-TPI/lib/googletest-master/googletest/include/gtest/internal/gtest-port.h
FN:942,_ZN7testing8internal8GTestLog9GetStreamEv
FNDA:0,_ZN7testing8internal8GTestLog9GetStreamEv
FNF:1
FNH:0
DA:942,0
LF:1
LH:0
end_of_record
SF:/home/fyulita/Desktop/tpi/algo1-TPI/tests/ej1TEST.cpp
FN:4,_ZN45esImagenValidaTest_ImagenVaciaNoEsValida_TestD0Ev
FN:4,_ZN45esImagenValidaTest_ImagenVaciaNoEsValida_TestC2Ev
FN:4,_ZN45esImagenValidaTest_ImagenVaciaNoEsValida_Test8TestBodyEv
FN:4,_ZN45esImagenValidaTest_ImagenVaciaNoEsValida_TestD2Ev
FN:9,_ZN50esImagenValidaTest_ImagenDeUnElementoEsValida_TestC2Ev
FN:9,_ZN50esImagenValidaTest_ImagenDeUnElementoEsValida_TestD0Ev
FN:9,_ZN50esImagenValidaTest_ImagenDeUnElementoEsValida_TestD2Ev
FN:9,_ZN50esImagenValidaTest_ImagenDeUnElementoEsValida_Test8TestBodyEv
FN:14,_ZN68esImagenValidaTest_ImagenDeDosFilasDeDiferenteTamanioEsInvalida_Test8TestBodyEv
FN:14,_ZN68esImagenValidaTest_ImagenDeDosFilasDeDiferenteTamanioEsInvalida_TestD0Ev
FN:14,_ZN68esImagenValidaTest_ImagenDeDosFilasDeDiferenteTamanioEsInvalida_TestD2Ev
FN:14,_ZN68esImagenValidaTest_ImagenDeDosFilasDeDiferenteTamanioEsInvalida_TestC2Ev
FN:19,_ZN70esImagenValidaTest_ImagenConMuchosElementoDistintoDe0o1EsInvalida_TestC2Ev
FN:19,_ZN70esImagenValidaTest_ImagenConMuchosElementoDistintoDe0o1EsInvalida_Test8TestBodyEv
FN:19,_ZN70esImagenValidaTest_ImagenConMuchosElementoDistintoDe0o1EsInvalida_TestD2Ev
FN:19,_ZN70esImagenValidaTest_ImagenConMuchosElementoDistintoDe0o1EsInvalida_TestD0Ev
FN:24,_ZN48esImagenValidaTest_ImagenNoCuadradaEsValida_TestD2Ev
FN:24,_ZN48esImagenValidaTest_ImagenNoCuadradaEsValida_TestD0Ev
FN:24,_ZN48esImagenValidaTest_ImagenNoCuadradaEsValida_TestC2Ev
FN:24,_ZN48esImagenValidaTest_ImagenNoCuadradaEsValida_Test8TestBodyEv
FN:34,_GLOBAL__sub_I__ZN45esImagenValidaTest_ImagenVaciaNoEsValida_Test10test_info_E
FN:34,_Z41__static_initialization_and_destruction_0ii
FNDA:1,_ZN45esImagenValidaTest_ImagenVaciaNoEsValida_TestD0Ev
FNDA:1,_ZN45esImagenValidaTest_ImagenVaciaNoEsValida_TestD2Ev
FNDA:1,_ZN45esImagenValidaTest_ImagenVaciaNoEsValida_Test8TestBodyEv
FNDA:1,_ZN45esImagenValidaTest_ImagenVaciaNoEsValida_TestC2Ev
FNDA:1,_ZN50esImagenValidaTest_ImagenDeUnElementoEsValida_TestD0Ev
FNDA:1,_ZN50esImagenValidaTest_ImagenDeUnElementoEsValida_TestD2Ev
FNDA:1,_ZN50esImagenValidaTest_ImagenDeUnElementoEsValida_Test8TestBodyEv
FNDA:1,_ZN50esImagenValidaTest_ImagenDeUnElementoEsValida_TestC2Ev
FNDA:1,_ZN68esImagenValidaTest_ImagenDeDosFilasDeDiferenteTamanioEsInvalida_TestD0Ev
FNDA:1,_ZN68esImagenValidaTest_ImagenDeDosFilasDeDiferenteTamanioEsInvalida_TestD2Ev
FNDA:1,_ZN68esImagenValidaTest_ImagenDeDosFilasDeDiferenteTamanioEsInvalida_Test8TestBodyEv
FNDA:1,_ZN68esImagenValidaTest_ImagenDeDosFilasDeDiferenteTamanioEsInvalida_TestC2Ev
FNDA:1,_ZN70esImagenValidaTest_ImagenConMuchosElementoDistintoDe0o1EsInvalida_TestD0Ev
FNDA:1,_ZN70esImagenValidaTest_ImagenConMuchosElementoDistintoDe0o1EsInvalida_TestD2Ev
FNDA:1,_ZN70esImagenValidaTest_ImagenConMuchosElementoDistintoDe0o1EsInvalida_Test8TestBodyEv
FNDA:1,_ZN70esImagenValidaTest_ImagenConMuchosElementoDistintoDe0o1EsInvalida_TestC2Ev
FNDA:1,_ZN48esImagenValidaTest_ImagenNoCuadradaEsValida_TestD0Ev
FNDA:1,_ZN48esImagenValidaTest_ImagenNoCuadradaEsValida_TestD2Ev
FNDA:1,_ZN48esImagenValidaTest_ImagenNoCuadradaEsValida_Test8TestBodyEv
FNDA:1,_ZN48esImagenValidaTest_ImagenNoCuadradaEsValida_TestC2Ev
FNDA:1,_GLOBAL__sub_I__ZN45esImagenValidaTest_ImagenVaciaNoEsValida_Test10test_info_E
FNDA:1,_Z41__static_initialization_and_destruction_0ii
FNF:22
FNH:22
DA:4,5
DA:5,2
DA:6,1
DA:7,1
DA:9,5
DA:10,2
DA:11,1
DA:12,1
DA:14,5
DA:15,2
DA:16,1
DA:17,1
DA:19,5
DA:20,2
DA:21,1
DA:22,1
DA:24,5
DA:32,2
DA:33,1
DA:34,4
LF:20
LH:20
end_of_record
SF:/usr/include/c++/7/bits/alloc_traits.h
FN:435,_ZNSt16allocator_traitsISaIiEE8allocateERS0_m
FN:435,_ZNSt16allocator_traitsISaISt6vectorIiSaIiEEEE8allocateERS3_m
FN:461,_ZNSt16allocator_traitsISaISt6vectorIiSaIiEEEE10deallocateERS3_PS2_m
FN:461,_ZNSt16allocator_traitsISaIiEE10deallocateERS0_Pim
FN:504,_ZNSt16allocator_traitsISaIiEE37select_on_container_copy_constructionERKS0_
FNDA:0,_ZNSt16allocator_traitsISaISt6vectorIiSaIiEEEE8allocateERS3_m
FNDA:0,_ZNSt16allocator_traitsISaIiEE8allocateERS0_m
FNDA:0,_ZNSt16allocator_traitsISaIiEE10deallocateERS0_Pim
FNDA:0,_ZNSt16allocator_traitsISaISt6vectorIiSaIiEEEE10deallocateERS3_PS2_m
FNDA:0,_ZNSt16allocator_traitsISaIiEE37select_on_container_copy_constructionERKS0_
FNF:5
FNH:0
DA:435,0
DA:436,0
DA:461,0
DA:462,0
DA:504,0
DA:505,0
LF:6
LH:0
end_of_record
SF:/usr/include/c++/7/bits/allocator.h
FN:131,_ZNSaIiEC2Ev
FN:131,_ZNSaISt6vectorIiSaIiEEEC2Ev
FN:133,_ZNSaISt6vectorIiSaIiEEEC2ERKS2_
FN:133,_ZNSaIiEC2ERKS_
FN:139,_ZNSaISt6vectorIiSaIiEEED2Ev
FN:139,_ZNSaIiED2Ev
FNDA:0,_ZNSaISt6vectorIiSaIiEEEC2Ev
FNDA:0,_ZNSaIiEC2Ev
FNDA:0,_ZNSaISt6vectorIiSaIiEEEC2ERKS2_
FNDA:0,_ZNSaIiEC2ERKS_
FNDA:0,_ZNSaISt6vectorIiSaIiEEED2Ev
FNDA:0,_ZNSaIiED2Ev
FNF:6
FNH:0
DA:131,0
DA:133,0
DA:134,0
DA:139,0
LF:4
LH:0
end_of_record
SF:/usr/include/c++/7/bits/cpp_type_traits.h
FN:408,_ZSt12__miter_baseIN9__gnu_cxx17__normal_iteratorIPKiSt6vectorIiSaIiEEEEET_S8_
FN:408,_ZSt12__miter_baseIPKiET_S2_
FNDA:0,_ZSt12__miter_baseIN9__gnu_cxx17__normal_iteratorIPKiSt6vectorIiSaIiEEEEET_S8_
FNDA:0,_ZSt12__miter_baseIPKiET_S2_
FNF:2
FNH:0
DA:408,0
DA:409,0
LF:2
LH:0
end_of_record
SF:/usr/include/c++/7/bits/move.h
FN:47,_ZSt11__addressofISt6vectorIiSaIiEEEPT_RS3_
FN:73,_ZSt7forwardIRKSt6vectorIiSaIiEEEOT_RNSt16remove_referenceIS5_E4typeE
FNDA:0,_ZSt11__addressofISt6vectorIiSaIiEEEPT_RS3_
FNDA:0,_ZSt7forwardIRKSt6vectorIiSaIiEEEOT_RNSt16remove_referenceIS5_E4typeE
FNF:2
FNH:0
DA:47,0
DA:48,0
DA:73,0
DA:74,0
LF:4
LH:0
end_of_record
SF:/usr/include/c++/7/bits/stl_algobase.h
FN:277,_ZSt12__niter_baseIPKiET_S2_
FN:277,_ZSt12__niter_baseIPiET_S1_
FN:357,_ZNSt11__copy_moveILb0ELb1ESt26random_access_iterator_tagE8__copy_mIiEEPT_PKS3_S6_S4_
FN:375,_ZSt13__copy_move_aILb0EPKiPiET1_T0_S4_S3_
FN:420,_ZSt14__copy_move_a2ILb0EN9__gnu_cxx17__normal_iteratorIPKiSt6vectorIiSaIiEEEEPiET1_T0_SA_S9_
FN:420,_ZSt14__copy_move_a2ILb0EPKiPiET1_T0_S4_S3_
FN:446,_ZSt4copyIPKiPiET0_T_S4_S3_
FN:446,_ZSt4copyIN9__gnu_cxx17__normal_iteratorIPKiSt6vectorIiSaIiEEEEPiET0_T_SA_S9_
FNDA:0,_ZSt12__niter_baseIPiET_S1_
FNDA:0,_ZSt12__niter_baseIPKiET_S2_
FNDA:0,_ZNSt11__copy_moveILb0ELb1ESt26random_access_iterator_tagE8__copy_mIiEEPT_PKS3_S6_S4_
FNDA:0,_ZSt13__copy_move_aILb0EPKiPiET1_T0_S4_S3_
FNDA:0,_ZSt14__copy_move_a2ILb0EN9__gnu_cxx17__normal_iteratorIPKiSt6vectorIiSaIiEEEEPiET1_T0_SA_S9_
FNDA:0,_ZSt14__copy_move_a2ILb0EPKiPiET1_T0_S4_S3_
FNDA:0,_ZSt4copyIN9__gnu_cxx17__normal_iteratorIPKiSt6vectorIiSaIiEEEEPiET0_T_SA_S9_
FNDA:0,_ZSt4copyIPKiPiET0_T_S4_S3_
FNF:8
FNH:0
DA:277,0
DA:278,0
DA:357,0
DA:366,0
DA:367,0
DA:368,0
DA:369,0
DA:375,0
DA:380,0
DA:386,0
DA:420,0
DA:422,0
DA:424,0
DA:446,0
DA:455,0
DA:456,0
LF:16
LH:0
end_of_record
SF:/usr/include/c++/7/bits/stl_construct.h
FN:74,_ZSt10_ConstructISt6vectorIiSaIiEEJRKS2_EEvPT_DpOT0_
FN:97,_ZSt8_DestroyISt6vectorIiSaIiEEEvPT_
FN:105,_ZNSt12_Destroy_auxILb0EE9__destroyIPSt6vectorIiSaIiEEEEvT_S6_
FN:117,_ZNSt12_Destroy_auxILb1EE9__destroyIPiEEvT_S3_
FN:127,_ZSt8_DestroyIPiEvT_S1_
FN:127,_ZSt8_DestroyIPSt6vectorIiSaIiEEEvT_S4_
FN:203,_ZSt8_DestroyIPiiEvT_S1_RSaIT0_E
FN:203,_ZSt8_DestroyIPSt6vectorIiSaIiEES2_EvT_S4_RSaIT0_E
FNDA:0,_ZSt10_ConstructISt6vectorIiSaIiEEJRKS2_EEvPT_DpOT0_
FNDA:0,_ZSt8_DestroyISt6vectorIiSaIiEEEvPT_
FNDA:0,_ZNSt12_Destroy_auxILb0EE9__destroyIPSt6vectorIiSaIiEEEEvT_S6_
FNDA:0,_ZNSt12_Destroy_auxILb1EE9__destroyIPiEEvT_S3_
FNDA:0,_ZSt8_DestroyIPiEvT_S1_
FNDA:0,_ZSt8_DestroyIPSt6vectorIiSaIiEEEvT_S4_
FNDA:0,_ZSt8_DestroyIPiiEvT_S1_RSaIT0_E
FNDA:0,_ZSt8_DestroyIPSt6vectorIiSaIiEES2_EvT_S4_RSaIT0_E
FNF:8
FNH:0
DA:74,0
DA:75,0
DA:97,0
DA:98,0
DA:105,0
DA:107,0
DA:108,0
DA:109,0
DA:117,0
DA:127,0
DA:137,0
DA:138,0
DA:203,0
DA:206,0
DA:207,0
LF:15
LH:0
end_of_record
SF:/usr/include/c++/7/bits/stl_iterator.h
FN:782,_ZN9__gnu_cxx17__normal_iteratorIPKiSt6vectorIiSaIiEEEC2ERKS2_
FN:847,_ZNK9__gnu_cxx17__normal_iteratorIPKiSt6vectorIiSaIiEEE4baseEv
FN:986,_ZSt12__niter_baseIPKiSt6vectorIiSaIiEEET_N9__gnu_cxx17__normal_iteratorIS5_T0_EE
FNDA:0,_ZN9__gnu_cxx17__normal_iteratorIPKiSt6vectorIiSaIiEEEC2ERKS2_
FNDA:0,_ZNK9__gnu_cxx17__normal_iteratorIPKiSt6vectorIiSaIiEEE4baseEv
FNDA:0,_ZSt12__niter_baseIPKiSt6vectorIiSaIiEEET_N9__gnu_cxx17__normal_iteratorIS5_T0_EE
FNF:3
FNH:0
DA:782,0
DA:783,0
DA:847,0
DA:848,0
DA:986,0
DA:987,0
LF:6
LH:0
end_of_record
SF:/usr/include/c++/7/bits/stl_iterator_base_funcs.h
FN:98,_ZSt10__distanceIPKSt6vectorIiSaIiEEENSt15iterator_traitsIT_E15difference_typeES6_S6_St26random_access_iterator_tag
FN:98,_ZSt10__distanceIPKiENSt15iterator_traitsIT_E15difference_typeES3_S3_St26random_access_iterator_tag
FN:138,_ZSt8distanceIPKSt6vectorIiSaIiEEENSt15iterator_traitsIT_E15difference_typeES6_S6_
FN:138,_ZSt8distanceIPKiENSt15iterator_traitsIT_E15difference_typeES3_S3_
FNDA:132,_ZSt10__distanceIPKSt6vectorIiSaIiEEENSt15iterator_traitsIT_E15difference_typeES6_S6_St26random_access_iterator_tag
FNDA:0,_ZSt10__distanceIPKiENSt15iterator_traitsIT_E15difference_typeES3_S3_St26random_access_iterator_tag
FNDA:132,_ZSt8distanceIPKSt6vectorIiSaIiEEENSt15iterator_traitsIT_E15difference_typeES6_S6_
FNDA:0,_ZSt8distanceIPKiENSt15iterator_traitsIT_E15difference_typeES3_S3_
FNF:4
FNH:2
DA:98,132
DA:104,132
DA:138,132
DA:141,132
DA:142,264
LF:5
LH:5
end_of_record
SF:/usr/include/c++/7/bits/stl_iterator_base_types.h
FN:205,_ZSt19__iterator_categoryIPKSt6vectorIiSaIiEEENSt15iterator_traitsIT_E17iterator_categoryERKS6_
FN:205,_ZSt19__iterator_categoryIPKiENSt15iterator_traitsIT_E17iterator_categoryERKS3_
FNDA:132,_ZSt19__iterator_categoryIPKSt6vectorIiSaIiEEENSt15iterator_traitsIT_E17iterator_categoryERKS6_
FNDA:0,_ZSt19__iterator_categoryIPKiENSt15iterator_traitsIT_E17iterator_categoryERKS3_
FNF:2
FNH:1
DA:205,132
DA:206,132
LF:2
LH:2
end_of_record
SF:/usr/include/c++/7/bits/stl_uninitialized.h
FN:76,_ZNSt20__uninitialized_copyILb0EE13__uninit_copyIPKSt6vectorIiSaIiEEPS4_EET0_T_S9_S8_
FN:99,_ZNSt20__uninitialized_copyILb1EE13__uninit_copyIN9__gnu_cxx17__normal_iteratorIPKiSt6vectorIiSaIiEEEEPiEET0_T_SC_SB_
FN:99,_ZNSt20__uninitialized_copyILb1EE13__uninit_copyIPKiPiEET0_T_S6_S5_
FN:115,_ZSt18uninitialized_copyIN9__gnu_cxx17__normal_iteratorIPKiSt6vectorIiSaIiEEEEPiET0_T_SA_S9_
FN:115,_ZSt18uninitialized_copyIPKiPiET0_T_S4_S3_
FN:115,_ZSt18uninitialized_copyIPKSt6vectorIiSaIiEEPS2_ET0_T_S7_S6_
FN:287,_ZSt22__uninitialized_copy_aIPKSt6vectorIiSaIiEEPS2_S2_ET0_T_S7_S6_RSaIT1_E
FN:287,_ZSt22__uninitialized_copy_aIN9__gnu_cxx17__normal_iteratorIPKiSt6vectorIiSaIiEEEEPiiET0_T_SA_S9_RSaIT1_E
FN:287,_ZSt22__uninitialized_copy_aIPKiPiiET0_T_S4_S3_RSaIT1_E
FNDA:132,_ZNSt20__uninitialized_copyILb0EE13__uninit_copyIPKSt6vectorIiSaIiEEPS4_EET0_T_S9_S8_
FNDA:0,_ZNSt20__uninitialized_copyILb1EE13__uninit_copyIN9__gnu_cxx17__normal_iteratorIPKiSt6vectorIiSaIiEEEEPiEET0_T_SC_SB_
FNDA:0,_ZNSt20__uninitialized_copyILb1EE13__uninit_copyIPKiPiEET0_T_S6_S5_
FNDA:0,_ZSt18uninitialized_copyIN9__gnu_cxx17__normal_iteratorIPKiSt6vectorIiSaIiEEEEPiET0_T_SA_S9_
FNDA:132,_ZSt18uninitialized_copyIPKSt6vectorIiSaIiEEPS2_ET0_T_S7_S6_
FNDA:0,_ZSt18uninitialized_copyIPKiPiET0_T_S4_S3_
FNDA:0,_ZSt22__uninitialized_copy_aIN9__gnu_cxx17__normal_iteratorIPKiSt6vectorIiSaIiEEEEPiiET0_T_SA_S9_RSaIT1_E
FNDA:132,_ZSt22__uninitialized_copy_aIPKSt6vectorIiSaIiEEPS2_S2_ET0_T_S7_S6_RSaIT1_E
FNDA:0,_ZSt22__uninitialized_copy_aIPKiPiiET0_T_S4_S3_RSaIT1_E
FNF:9
FNH:3
DA:76,132
DA:79,132
DA:82,1136
DA:83,502
DA:84,132
DA:86,0
DA:88,0
DA:89,0
DA:99,0
DA:101,0
DA:115,132
DA:128,132
DA:134,132
DA:287,132
DA:289,132
LF:15
LH:10
end_of_record
SF:/usr/include/c++/7/bits/stl_vector.h
FN:81,_ZNSt12_Vector_baseIiSaIiEE12_Vector_implD2Ev
FN:81,_ZNSt12_Vector_baseISt6vectorIiSaIiEESaIS2_EE12_Vector_implD2Ev
FN:88,_ZNSt12_Vector_baseISt6vectorIiSaIiEESaIS2_EE12_Vector_implC2Ev
FN:92,_ZNSt12_Vector_baseISt6vectorIiSaIiEESaIS2_EE12_Vector_implC2ERKS3_
FN:92,_ZNSt12_Vector_baseIiSaIiEE12_Vector_implC2ERKS0_
FN:115,_ZNSt12_Vector_baseIiSaIiEE19_M_get_Tp_allocatorEv
FN:115,_ZNSt12_Vector_baseISt6vectorIiSaIiEESaIS2_EE19_M_get_Tp_allocatorEv
FN:119,_ZNKSt12_Vector_baseIiSaIiEE19_M_get_Tp_allocatorEv
FN:126,_ZNSt12_Vector_baseISt6vectorIiSaIiEESaIS2_EEC2Ev
FN:129,_ZNSt12_Vector_baseIiSaIiEEC2ERKS0_
FN:129,_ZNSt12_Vector_baseISt6vectorIiSaIiEESaIS2_EEC2ERKS3_
FN:136,_ZNSt12_Vector_baseIiSaIiEEC2EmRKS0_
FN:161,_ZNSt12_Vector_baseISt6vectorIiSaIiEESaIS2_EED2Ev
FN:161,_ZNSt12_Vector_baseIiSaIiEED2Ev
FN:169,_ZNSt12_Vector_baseIiSaIiEE11_M_allocateEm
FN:169,_ZNSt12_Vector_baseISt6vectorIiSaIiEESaIS2_EE11_M_allocateEm
FN:176,_ZNSt12_Vector_baseISt6vectorIiSaIiEESaIS2_EE13_M_deallocateEPS2_m
FN:176,_ZNSt12_Vector_baseIiSaIiEE13_M_deallocateEPim
FN:185,_ZNSt12_Vector_baseIiSaIiEE17_M_create_storageEm
FN:259,_ZNSt6vectorIS_IiSaIiEESaIS1_EEC2Ev
FN:326,_ZNSt6vectorIiSaIiEEC2ERKS1_
FN:383,_ZNSt6vectorIiSaIiEEC2ESt16initializer_listIiERKS0_
FN:383,_ZNSt6vectorIS_IiSaIiEESaIS1_EEC2ESt16initializer_listIS1_ERKS2_
FN:433,_ZNSt6vectorIiSaIiEED2Ev
FN:433,_ZNSt6vectorIS_IiSaIiEESaIS1_EED2Ev
FN:572,_ZNKSt6vectorIiSaIiEE5beginEv
FN:590,_ZNKSt6vectorIiSaIiEE3endEv
FN:670,_ZNKSt6vectorIiSaIiEE4sizeEv
FN:1324,_ZNSt6vectorIS_IiSaIiEESaIS1_EE19_M_range_initializeIPKS1_EEvT_S7_St20forward_iterator_tag
FN:1324,_ZNSt6vectorIiSaIiEE19_M_range_initializeIPKiEEvT_S5_St20forward_iterator_tag
FNDA:0,_ZNSt12_Vector_baseIiSaIiEE12_Vector_implD2Ev
FNDA:0,_ZNSt12_Vector_baseISt6vectorIiSaIiEESaIS2_EE12_Vector_implD2Ev
FNDA:0,_ZNSt12_Vector_baseISt6vectorIiSaIiEESaIS2_EE12_Vector_implC2Ev
FNDA:0,_ZNSt12_Vector_baseISt6vectorIiSaIiEESaIS2_EE12_Vector_implC2ERKS3_
FNDA:0,_ZNSt12_Vector_baseIiSaIiEE12_Vector_implC2ERKS0_
FNDA:0,_ZNSt12_Vector_baseIiSaIiEE19_M_get_Tp_allocatorEv
FNDA:0,_ZNSt12_Vector_baseISt6vectorIiSaIiEESaIS2_EE19_M_get_Tp_allocatorEv
FNDA:0,_ZNKSt12_Vector_baseIiSaIiEE19_M_get_Tp_allocatorEv
FNDA:0,_ZNSt12_Vector_baseISt6vectorIiSaIiEESaIS2_EEC2Ev
FNDA:0,_ZNSt12_Vector_baseISt6vectorIiSaIiEESaIS2_EEC2ERKS3_
FNDA:0,_ZNSt12_Vector_baseIiSaIiEEC2ERKS0_
FNDA:0,_ZNSt12_Vector_baseIiSaIiEEC2EmRKS0_
FNDA:0,_ZNSt12_Vector_baseIiSaIiEED2Ev
FNDA:0,_ZNSt12_Vector_baseISt6vectorIiSaIiEESaIS2_EED2Ev
FNDA:0,_ZNSt12_Vector_baseISt6vectorIiSaIiEESaIS2_EE11_M_allocateEm
FNDA:0,_ZNSt12_Vector_baseIiSaIiEE11_M_allocateEm
FNDA:0,_ZNSt12_Vector_baseIiSaIiEE13_M_deallocateEPim
FNDA:0,_ZNSt12_Vector_baseISt6vectorIiSaIiEESaIS2_EE13_M_deallocateEPS2_m
FNDA:0,_ZNSt12_Vector_baseIiSaIiEE17_M_create_storageEm
FNDA:0,_ZNSt6vectorIS_IiSaIiEESaIS1_EEC2Ev
FNDA:0,_ZNSt6vectorIiSaIiEEC2ERKS1_
FNDA:132,_ZNSt6vectorIS_IiSaIiEESaIS1_EEC2ESt16initializer_listIS1_ERKS2_
FNDA:0,_ZNSt6vectorIiSaIiEEC2ESt16initializer_listIiERKS0_
FNDA:0,_ZNSt6vectorIiSaIiEED2Ev
FNDA:0,_ZNSt6vectorIS_IiSaIiEESaIS1_EED2Ev
FNDA:0,_ZNKSt6vectorIiSaIiEE5beginEv
FNDA:0,_ZNKSt6vectorIiSaIiEE3endEv
FNDA:0,_ZNKSt6vectorIiSaIiEE4sizeEv
FNDA:132,_ZNSt6vectorIS_IiSaIiEESaIS1_EE19_M_range_initializeIPKS1_EEvT_S7_St20forward_iterator_tag
FNDA:0,_ZNSt6vectorIiSaIiEE19_M_range_initializeIPKiEEvT_S5_St20forward_iterator_tag
FNF:30
FNH:2
DA:81,0
DA:88,0
DA:89,0
DA:90,0
DA:92,0
DA:93,0
DA:94,0
DA:115,0
DA:116,0
DA:119,0
DA:120,0
DA:126,0
DA:127,0
DA:129,0
DA:130,0
DA:136,0
DA:137,0
DA:138,0
DA:161,0
DA:162,0
DA:163,0
DA:169,0
DA:172,0
DA:176,0
DA:179,0
DA:180,0
DA:181,0
DA:185,0
DA:187,0
DA:188,0
DA:189,0
DA:190,0
DA:259,0
DA:263,0
DA:326,0
DA:328,0
DA:330,0
DA:331,0
DA:333,0
DA:334,0
DA:383,132
DA:385,132
DA:387,132
DA:389,132
DA:433,0
DA:434,0
DA:435,0
DA:572,0
DA:573,0
DA:590,0
DA:591,0
DA:670,0
DA:671,0
DA:1324,132
DA:1327,132
DA:1328,132
DA:1329,132
DA:1330,132
DA:1331,132
DA:1333,132
DA:1334,132
LF:61
LH:12
end_of_record
SF:/usr/include/c++/7/bits/unique_ptr.h
FN:72,_ZNKSt14default_deleteINSt7__cxx1112basic_stringIcSt11char_traitsIcESaIcEEEEclEPS5_
FN:72,_ZNKSt14default_deleteINSt7__cxx1118basic_stringstreamIcSt11char_traitsIcESaIcEEEEclEPS5_
FN:139,_ZNSt15__uniq_ptr_implINSt7__cxx1112basic_stringIcSt11char_traitsIcESaIcEEESt14default_deleteIS5_EEC2Ev
FN:146,_ZNSt15__uniq_ptr_implINSt7__cxx1112basic_stringIcSt11char_traitsIcESaIcEEESt14default_deleteIS5_EE6_M_ptrEv
FN:146,_ZNSt15__uniq_ptr_implINSt7__cxx1118basic_stringstreamIcSt11char_traitsIcESaIcEEESt14default_deleteIS5_EE6_M_ptrEv
FN:148,_ZNSt15__uniq_ptr_implINSt7__cxx1118basic_stringstreamIcSt11char_traitsIcESaIcEEESt14default_deleteIS5_EE10_M_deleterEv
FN:148,_ZNSt15__uniq_ptr_implINSt7__cxx1112basic_stringIcSt11char_traitsIcESaIcEEESt14default_deleteIS5_EE10_M_deleterEv
FN:188,_ZNSt10unique_ptrINSt7__cxx1112basic_stringIcSt11char_traitsIcESaIcEEESt14default_deleteIS5_EEC2IS7_vEEv
FN:264,_ZNSt10unique_ptrINSt7__cxx1118basic_stringstreamIcSt11char_traitsIcESaIcEEESt14default_deleteIS5_EED2Ev
FN:264,_ZNSt10unique_ptrINSt7__cxx1112basic_stringIcSt11char_traitsIcESaIcEEESt14default_deleteIS5_EED2Ev
FN:341,_ZNSt10unique_ptrINSt7__cxx1118basic_stringstreamIcSt11char_traitsIcESaIcEEESt14default_deleteIS5_EE11get_deleterEv
FN:341,_ZNSt10unique_ptrINSt7__cxx1112basic_stringIcSt11char_traitsIcESaIcEEESt14default_deleteIS5_EE11get_deleterEv
FNDA:0,_ZNKSt14default_deleteINSt7__cxx1112basic_stringIcSt11char_traitsIcESaIcEEEEclEPS5_
FNDA:193,_ZNKSt14default_deleteINSt7__cxx1118basic_stringstreamIcSt11char_traitsIcESaIcEEEEclEPS5_
FNDA:90,_ZNSt15__uniq_ptr_implINSt7__cxx1112basic_stringIcSt11char_traitsIcESaIcEEESt14default_deleteIS5_EEC2Ev
FNDA:90,_ZNSt15__uniq_ptr_implINSt7__cxx1112basic_stringIcSt11char_traitsIcESaIcEEESt14default_deleteIS5_EE6_M_ptrEv
FNDA:386,_ZNSt15__uniq_ptr_implINSt7__cxx1118basic_stringstreamIcSt11char_traitsIcESaIcEEESt14default_deleteIS5_EE6_M_ptrEv
FNDA:0,_ZNSt15__uniq_ptr_implINSt7__cxx1112basic_stringIcSt11char_traitsIcESaIcEEESt14default_deleteIS5_EE10_M_deleterEv
FNDA:193,_ZNSt15__uniq_ptr_implINSt7__cxx1118basic_stringstreamIcSt11char_traitsIcESaIcEEESt14default_deleteIS5_EE10_M_deleterEv
FNDA:90,_ZNSt10unique_ptrINSt7__cxx1112basic_stringIcSt11char_traitsIcESaIcEEESt14default_deleteIS5_EEC2IS7_vEEv
FNDA:90,_ZNSt10unique_ptrINSt7__cxx1112basic_stringIcSt11char_traitsIcESaIcEEESt14default_deleteIS5_EED2Ev
FNDA:193,_ZNSt10unique_ptrINSt7__cxx1118basic_stringstreamIcSt11char_traitsIcESaIcEEESt14default_deleteIS5_EED2Ev
FNDA:0,_ZNSt10unique_ptrINSt7__cxx1112basic_stringIcSt11char_traitsIcESaIcEEESt14default_deleteIS5_EE11get_deleterEv
FNDA:193,_ZNSt10unique_ptrINSt7__cxx1118basic_stringstreamIcSt11char_traitsIcESaIcEEESt14default_deleteIS5_EE11get_deleterEv
FNF:12
FNH:9
DA:72,193
DA:78,193
DA:79,193
DA:139,90
DA:146,476
DA:148,193
DA:188,90
DA:189,90
DA:190,90
DA:264,283
DA:266,283
DA:267,283
DA:268,193
DA:269,283
DA:270,283
DA:341,193
DA:342,193
LF:17
LH:17
end_of_record
SF:/usr/include/c++/7/ext/alloc_traits.h
FN:94,_ZN9__gnu_cxx14__alloc_traitsISaIiEE17_S_select_on_copyERKS1_
FNDA:0,_ZN9__gnu_cxx14__alloc_traitsISaIiEE17_S_select_on_copyERKS1_
FNF:1
FNH:0
DA:94,0
DA:95,0
LF:2
LH:0
end_of_record
SF:/usr/include/c++/7/ext/new_allocator.h
FN:79,_ZN9__gnu_cxx13new_allocatorISt6vectorIiSaIiEEEC2Ev
FN:79,_ZN9__gnu_cxx13new_allocatorIiEC2Ev
FN:81,_ZN9__gnu_cxx13new_allocatorISt6vectorIiSaIiEEEC2ERKS4_
FN:81,_ZN9__gnu_cxx13new_allocatorIiEC2ERKS1_
FN:86,_ZN9__gnu_cxx13new_allocatorISt6vectorIiSaIiEEED2Ev
FN:86,_ZN9__gnu_cxx13new_allocatorIiED2Ev
FN:99,_ZN9__gnu_cxx13new_allocatorISt6vectorIiSaIiEEE8allocateEmPKv
FN:99,_ZN9__gnu_cxx13new_allocatorIiE8allocateEmPKv
FN:116,_ZN9__gnu_cxx13new_allocatorISt6vectorIiSaIiEEE10deallocateEPS3_m
FN:116,_ZN9__gnu_cxx13new_allocatorIiE10deallocateEPim
FN:129,_ZNK9__gnu_cxx13new_allocatorIiE8max_sizeEv
FN:129,_ZNK9__gnu_cxx13new_allocatorISt6vectorIiSaIiEEE8max_sizeEv
FNDA:0,_ZN9__gnu_cxx13new_allocatorISt6vectorIiSaIiEEEC2Ev
FNDA:0,_ZN9__gnu_cxx13new_allocatorIiEC2Ev
FNDA:0,_ZN9__gnu_cxx13new_allocatorISt6vectorIiSaIiEEEC2ERKS4_
FNDA:0,_ZN9__gnu_cxx13new_allocatorIiEC2ERKS1_
FNDA:0,_ZN9__gnu_cxx13new_allocatorISt6vectorIiSaIiEEED2Ev
FNDA:0,_ZN9__gnu_cxx13new_allocatorIiED2Ev
FNDA:0,_ZN9__gnu_cxx13new_allocatorISt6vectorIiSaIiEEE8allocateEmPKv
FNDA:0,_ZN9__gnu_cxx13new_allocatorIiE8allocateEmPKv
FNDA:0,_ZN9__gnu_cxx13new_allocatorIiE10deallocateEPim
FNDA:0,_ZN9__gnu_cxx13new_allocatorISt6vectorIiSaIiEEE10deallocateEPS3_m
FNDA:0,_ZNK9__gnu_cxx13new_allocatorISt6vectorIiSaIiEEE8max_sizeEv
FNDA:0,_ZNK9__gnu_cxx13new_allocatorIiE8max_sizeEv
FNF:12
FNH:0
DA:79,0
DA:81,0
DA:86,0
DA:99,0
DA:101,0
DA:102,0
DA:111,0
DA:116,0
DA:125,0
DA:126,0
DA:129,0
DA:130,0
LF:12
LH:0
end_of_record
SF:/usr/include/c++/7/initializer_list
FN:71,_ZNKSt16initializer_listISt6vectorIiSaIiEEE4sizeEv
FN:71,_ZNKSt16initializer_listIiE4sizeEv
FN:75,_ZNKSt16initializer_listISt6vectorIiSaIiEEE5beginEv
FN:75,_ZNKSt16initializer_listIiE5beginEv
FN:79,_ZNKSt16initializer_listISt6vectorIiSaIiEEE3endEv
FN:79,_ZNKSt16initializer_listIiE3endEv
FNDA:132,_ZNKSt16initializer_listISt6vectorIiSaIiEEE4sizeEv
FNDA:0,_ZNKSt16initializer_listIiE4sizeEv
FNDA:264,_ZNKSt16initializer_listISt6vectorIiSaIiEEE5beginEv
FNDA:0,_ZNKSt16initializer_listIiE5beginEv
FNDA:132,_ZNKSt16initializer_listISt6vectorIiSaIiEEE3endEv
FNDA:0,_ZNKSt16initializer_listIiE3endEv
FNF:6
FNH:3
DA:71,132
DA:75,264
DA:79,132
LF:3
LH:3
end_of_record
SF:/usr/include/c++/7/iostream
DA:74,1
LF:1
LH:1
end_of_record
SF:/usr/include/c++/7/new
FN:168,_ZnwmPv
FN:174,_ZdlPvS_
FNDA:0,_ZnwmPv
FNDA:0,_ZdlPvS_
FNF:2
FNH:0
DA:168,0
DA:169,0
DA:174,0
LF:3
LH:0
end_of_record
SF:/usr/include/c++/7/tuple
FN:76,_ZNSt10_Head_baseILm1ESt14default_deleteINSt7__cxx1112basic_stringIcSt11char_traitsIcESaIcEEEELb1EEC2Ev
FN:113,_ZNSt10_Head_baseILm1ESt14default_deleteINSt7__cxx1118basic_stringstreamIcSt11char_traitsIcESaIcEEEELb1EE7_M_headERS8_
FN:113,_ZNSt10_Head_baseILm1ESt14default_deleteINSt7__cxx1112basic_stringIcSt11char_traitsIcESaIcEEEELb1EE7_M_headERS8_
FN:122,_ZNSt10_Head_baseILm0EPNSt7__cxx1112basic_stringIcSt11char_traitsIcESaIcEEELb0EEC2Ev
FN:160,_ZNSt10_Head_baseILm0EPNSt7__cxx1112basic_stringIcSt11char_traitsIcESaIcEEELb0EE7_M_headERS7_
FN:160,_ZNSt10_Head_baseILm0EPNSt7__cxx1118basic_stringstreamIcSt11char_traitsIcESaIcEEELb0EE7_M_headERS7_
FN:195,_ZNSt11_Tuple_implILm0EJPNSt7__cxx1118basic_stringstreamIcSt11char_traitsIcESaIcEEESt14default_deleteIS5_EEE7_M_headERS9_
FN:195,_ZNSt11_Tuple_implILm0EJPNSt7__cxx1112basic_stringIcSt11char_traitsIcESaIcEEESt14default_deleteIS5_EEE7_M_headERS9_
FN:206,_ZNSt11_Tuple_implILm0EJPNSt7__cxx1112basic_stringIcSt11char_traitsIcESaIcEEESt14default_deleteIS5_EEEC2Ev
FN:351,_ZNSt11_Tuple_implILm1EJSt14default_deleteINSt7__cxx1112basic_stringIcSt11char_traitsIcESaIcEEEEEE7_M_headERS8_
FN:351,_ZNSt11_Tuple_implILm1EJSt14default_deleteINSt7__cxx1118basic_stringstreamIcSt11char_traitsIcESaIcEEEEEE7_M_headERS8_
FN:356,_ZNSt11_Tuple_implILm1EJSt14default_deleteINSt7__cxx1112basic_stringIcSt11char_traitsIcESaIcEEEEEEC2Ev
FN:919,_ZNSt5tupleIJPNSt7__cxx1112basic_stringIcSt11char_traitsIcESaIcEEESt14default_deleteIS5_EEEC2IS6_S8_Lb1EEEv
FN:1303,_ZSt12__get_helperILm1ESt14default_deleteINSt7__cxx1112basic_stringIcSt11char_traitsIcESaIcEEEEJEERT0_RSt11_Tuple_implIXT_EJS8_DpT1_EE
FN:1303,_ZSt12__get_helperILm0EPNSt7__cxx1118basic_stringstreamIcSt11char_traitsIcESaIcEEEJSt14default_deleteIS5_EEERT0_RSt11_Tuple_implIXT_EJS9_DpT1_EE
FN:1303,_ZSt12__get_helperILm1ESt14default_deleteINSt7__cxx1118basic_stringstreamIcSt11char_traitsIcESaIcEEEEJEERT0_RSt11_Tuple_implIXT_EJS8_DpT1_EE
FN:1303,_ZSt12__get_helperILm0EPNSt7__cxx1112basic_stringIcSt11char_traitsIcESaIcEEEJSt14default_deleteIS5_EEERT0_RSt11_Tuple_implIXT_EJS9_DpT1_EE
FN:1314,_ZSt3getILm1EJPNSt7__cxx1112basic_stringIcSt11char_traitsIcESaIcEEESt14default_deleteIS5_EEERNSt13tuple_elementIXT_ESt5tupleIJDpT0_EEE4typeERSD_
FN:1314,_ZSt3getILm0EJPNSt7__cxx1112basic_stringIcSt11char_traitsIcESaIcEEESt14default_deleteIS5_EEERNSt13tuple_elementIXT_ESt5tupleIJDpT0_EEE4typeERSD_
FN:1314,_ZSt3getILm0EJPNSt7__cxx1118basic_stringstreamIcSt11char_traitsIcESaIcEEESt14default_deleteIS5_EEERNSt13tuple_elementIXT_ESt5tupleIJDpT0_EEE4typeERSD_
FN:1314,_ZSt3getILm1EJPNSt7__cxx1118basic_stringstreamIcSt11char_traitsIcESaIcEEESt14default_deleteIS5_EEERNSt13tuple_elementIXT_ESt5tupleIJDpT0_EEE4typeERSD_
FNDA:90,_ZNSt10_Head_baseILm1ESt14default_deleteINSt7__cxx1112basic_stringIcSt11char_traitsIcESaIcEEEELb1EEC2Ev
FNDA:0,_ZNSt10_Head_baseILm1ESt14default_deleteINSt7__cxx1112basic_stringIcSt11char_traitsIcESaIcEEEELb1EE7_M_headERS8_
FNDA:193,_ZNSt10_Head_baseILm1ESt14default_deleteINSt7__cxx1118basic_stringstreamIcSt11char_traitsIcESaIcEEEELb1EE7_M_headERS8_
FNDA:90,_ZNSt10_Head_baseILm0EPNSt7__cxx1112basic_stringIcSt11char_traitsIcESaIcEEELb0EEC2Ev
FNDA:90,_ZNSt10_Head_baseILm0EPNSt7__cxx1112basic_stringIcSt11char_traitsIcESaIcEEELb0EE7_M_headERS7_
FNDA:386,_ZNSt10_Head_baseILm0EPNSt7__cxx1118basic_stringstreamIcSt11char_traitsIcESaIcEEELb0EE7_M_headERS7_
FNDA:90,_ZNSt11_Tuple_implILm0EJPNSt7__cxx1112basic_stringIcSt11char_traitsIcESaIcEEESt14default_deleteIS5_EEE7_M_headERS9_
FNDA:386,_ZNSt11_Tuple_implILm0EJPNSt7__cxx1118basic_stringstreamIcSt11char_traitsIcESaIcEEESt14default_deleteIS5_EEE7_M_headERS9_
FNDA:90,_ZNSt11_Tuple_implILm0EJPNSt7__cxx1112basic_stringIcSt11char_traitsIcESaIcEEESt14default_deleteIS5_EEEC2Ev
FNDA:0,_ZNSt11_Tuple_implILm1EJSt14default_deleteINSt7__cxx1112basic_stringIcSt11char_traitsIcESaIcEEEEEE7_M_headERS8_
FNDA:193,_ZNSt11_Tuple_implILm1EJSt14default_deleteINSt7__cxx1118basic_stringstreamIcSt11char_traitsIcESaIcEEEEEE7_M_headERS8_
FNDA:90,_ZNSt11_Tuple_implILm1EJSt14default_deleteINSt7__cxx1112basic_stringIcSt11char_traitsIcESaIcEEEEEEC2Ev
FNDA:90,_ZNSt5tupleIJPNSt7__cxx1112basic_stringIcSt11char_traitsIcESaIcEEESt14default_deleteIS5_EEEC2IS6_S8_Lb1EEEv
FNDA:0,_ZSt12__get_helperILm1ESt14default_deleteINSt7__cxx1112basic_stringIcSt11char_traitsIcESaIcEEEEJEERT0_RSt11_Tuple_implIXT_EJS8_DpT1_EE
FNDA:193,_ZSt12__get_helperILm1ESt14default_deleteINSt7__cxx1118basic_stringstreamIcSt11char_traitsIcESaIcEEEEJEERT0_RSt11_Tuple_implIXT_EJS8_DpT1_EE
FNDA:90,_ZSt12__get_helperILm0EPNSt7__cxx1112basic_stringIcSt11char_traitsIcESaIcEEEJSt14default_deleteIS5_EEERT0_RSt11_Tuple_implIXT_EJS9_DpT1_EE
FNDA:386,_ZSt12__get_helperILm0EPNSt7__cxx1118basic_stringstreamIcSt11char_traitsIcESaIcEEEJSt14default_deleteIS5_EEERT0_RSt11_Tuple_implIXT_EJS9_DpT1_EE
FNDA:0,_ZSt3getILm1EJPNSt7__cxx1112basic_stringIcSt11char_traitsIcESaIcEEESt14default_deleteIS5_EEERNSt13tuple_elementIXT_ESt5tupleIJDpT0_EEE4typeERSD_
FNDA:193,_ZSt3getILm1EJPNSt7__cxx1118basic_stringstreamIcSt11char_traitsIcESaIcEEESt14default_deleteIS5_EEERNSt13tuple_elementIXT_ESt5tupleIJDpT0_EEE4typeERSD_
FNDA:90,_ZSt3getILm0EJPNSt7__cxx1112basic_stringIcSt11char_traitsIcESaIcEEESt14default_deleteIS5_EEERNSt13tuple_elementIXT_ESt5tupleIJDpT0_EEE4typeERSD_
FNDA:386,_ZSt3getILm0EJPNSt7__cxx1118basic_stringstreamIcSt11char_traitsIcESaIcEEESt14default_deleteIS5_EEERNSt13tuple_elementIXT_ESt5tupleIJDpT0_EEE4typeERSD_
FNF:21
FNH:17
DA:76,90
DA:77,90
DA:113,193
DA:122,90
DA:123,90
DA:160,476
DA:195,476
DA:206,90
DA:207,90
DA:351,193
DA:356,90
DA:357,90
DA:919,90
DA:920,90
DA:1303,669
DA:1304,669
DA:1314,669
DA:1315,669
LF:18
LH:18
end_of_record
TN:
SF:/home/fyulita/Desktop/tpi/algo1-TPI/lib/googletest-master/googletest/include/gtest/gtest-message.h
FN:91,_ZN7testing7MessageD2Ev
FNDA:0,_ZN7testing7MessageD2Ev
FNF:1
FNH:0
DA:91,0
LF:1
LH:0
end_of_record
SF:/home/fyulita/Desktop/tpi/algo1-TPI/lib/googletest-master/googletest/include/gtest/gtest-printers.h
FN:260,_ZN16testing_internal26DefaultPrintNonContainerToIiEEvRKT_PSo
FN:313,_ZN7testing8internal19FormatForComparisonISt6vectorIS2_IiSaIiEESaIS4_EES6_E6FormatB5cxx11ERKS6_
FN:377,_ZN7testing8internal33FormatForComparisonFailureMessageISt6vectorIS2_IiSaIiEESaIS4_EES6_EENSt7__cxx1112basic_stringIcSt11char_traitsIcESaIcEEERKT_RKT0_
FN:406,_ZN7testing8internal14DefaultPrintToISt6vectorIiSaIiEEEEvNS0_15WrapPrinterTypeILNS0_18DefaultPrinterTypeE0EEERKT_PSo
FN:406,_ZN7testing8internal14DefaultPrintToISt6vectorIS2_IiSaIiEESaIS4_EEEEvNS0_15WrapPrinterTypeILNS0_18DefaultPrinterTypeE0EEERKT_PSo
FN:466,_ZN7testing8internal14DefaultPrintToIiEEvNS0_15WrapPrinterTypeILNS0_18DefaultPrinterTypeE3EEERKT_PSo
FN:483,_ZN7testing8internal7PrintToIiEEvRKT_PSo
FN:483,_ZN7testing8internal7PrintToISt6vectorIiSaIiEEEEvRKT_PSo
FN:483,_ZN7testing8internal7PrintToISt6vectorIS2_IiSaIiEESaIS4_EEEEvRKT_PSo
FN:670,_ZN7testing8internal16UniversalPrinterIiE5PrintERKiPSo
FN:670,_ZN7testing8internal16UniversalPrinterISt6vectorIiSaIiEEE5PrintERKS4_PSo
FN:670,_ZN7testing8internal16UniversalPrinterISt6vectorIS2_IiSaIiEESaIS4_EEE5PrintERKS6_PSo
FN:796,_ZN7testing8internal21UniversalTersePrinterISt6vectorIS2_IiSaIiEESaIS4_EEE5PrintERKS6_PSo
FN:865,_ZN7testing8internal14UniversalPrintIiEEvRKT_PSo
FN:865,_ZN7testing8internal14UniversalPrintISt6vectorIiSaIiEEEEvRKT_PSo
FN:865,_ZN7testing8internal14UniversalPrintISt6vectorIS2_IiSaIiEESaIS4_EEEEvRKT_PSo
FN:915,_ZN7testing13PrintToStringISt6vectorIS1_IiSaIiEESaIS3_EEEENSt7__cxx1112basic_stringIcSt11char_traitsIcESaIcEEERKT_
FNDA:0,_ZN16testing_internal26DefaultPrintNonContainerToIiEEvRKT_PSo
FNDA:0,_ZN7testing8internal19FormatForComparisonISt6vectorIS2_IiSaIiEESaIS4_EES6_E6FormatB5cxx11ERKS6_
FNDA:0,_ZN7testing8internal33FormatForComparisonFailureMessageISt6vectorIS2_IiSaIiEESaIS4_EES6_EENSt7__cxx1112basic_stringIcSt11char_traitsIcESaIcEEERKT_RKT0_
FNDA:0,_ZN7testing8internal14DefaultPrintToISt6vectorIiSaIiEEEEvNS0_15WrapPrinterTypeILNS0_18DefaultPrinterTypeE0EEERKT_PSo
FNDA:0,_ZN7testing8internal14DefaultPrintToISt6vectorIS2_IiSaIiEESaIS4_EEEEvNS0_15WrapPrinterTypeILNS0_18DefaultPrinterTypeE0EEERKT_PSo
FNDA:0,_ZN7testing8internal14DefaultPrintToIiEEvNS0_15WrapPrinterTypeILNS0_18DefaultPrinterTypeE3EEERKT_PSo
FNDA:0,_ZN7testing8internal7PrintToIiEEvRKT_PSo
FNDA:0,_ZN7testing8internal7PrintToISt6vectorIiSaIiEEEEvRKT_PSo
FNDA:0,_ZN7testing8internal7PrintToISt6vectorIS2_IiSaIiEESaIS4_EEEEvRKT_PSo
FNDA:0,_ZN7testing8internal16UniversalPrinterIiE5PrintERKiPSo
FNDA:0,_ZN7testing8internal16UniversalPrinterISt6vectorIiSaIiEEE5PrintERKS4_PSo
FNDA:0,_ZN7testing8internal16UniversalPrinterISt6vectorIS2_IiSaIiEESaIS4_EEE5PrintERKS6_PSo
FNDA:0,_ZN7testing8internal21UniversalTersePrinterISt6vectorIS2_IiSaIiEESaIS4_EEE5PrintERKS6_PSo
FNDA:0,_ZN7testing8internal14UniversalPrintIiEEvRKT_PSo
FNDA:0,_ZN7testing8internal14UniversalPrintISt6vectorIiSaIiEEEEvRKT_PSo
FNDA:0,_ZN7testing8internal14UniversalPrintISt6vectorIS2_IiSaIiEESaIS4_EEEEvRKT_PSo
FNDA:0,_ZN7testing13PrintToStringISt6vectorIS1_IiSaIiEESaIS3_EEEENSt7__cxx1112basic_stringIcSt11char_traitsIcESaIcEEERKT_
FNF:17
FNH:0
DA:260,0
DA:287,0
DA:288,0
DA:313,0
DA:314,0
DA:377,0
DA:379,0
DA:406,0
DA:408,0
DA:409,0
DA:410,0
DA:411,0
DA:412,0
DA:413,0
DA:414,0
DA:415,0
DA:416,0
DA:417,0
DA:420,0
DA:423,0
DA:426,0
DA:427,0
DA:429,0
DA:430,0
DA:466,0
DA:468,0
DA:469,0
DA:483,0
DA:503,0
DA:514,0
DA:670,0
DA:679,0
DA:680,0
DA:796,0
DA:797,0
DA:798,0
DA:865,0
DA:869,0
DA:870,0
DA:915,0
DA:916,0
DA:917,0
DA:918,0
LF:43
LH:0
end_of_record
SF:/home/fyulita/Desktop/tpi/algo1-TPI/lib/googletest-master/googletest/include/gtest/gtest.h
FN:275,_ZN7testing15AssertionResultD2Ev
FN:312,_ZNK7testing15AssertionResultcvbEv
FN:321,_ZNK7testing15AssertionResult7messageEv
FN:325,_ZNK7testing15AssertionResult15failure_messageEv
FN:417,_ZN7testing4Test14SetUpTestSuiteEv
FN:427,_ZN7testing4Test17TearDownTestSuiteEv
FN:431,_ZN7testing4Test16TearDownTestCaseEv
FN:432,_ZN7testing4Test13SetUpTestCaseEv
FN:513,_ZN7testing4Test5SetupEv
FN:1504,_ZN7testing8internal18CmpHelperEQFailureISt6vectorIS2_IiSaIiEESaIS4_EES6_EENS_15AssertionResultEPKcS9_RKT_RKT0_
FN:1523,_ZN7testing8internal11CmpHelperEQISt6vectorIS2_IiSaIiEESaIS4_EES6_EENS_15AssertionResultEPKcS9_RKT_RKT0_
FN:1551,_ZN7testing8internal8EqHelper7CompareISt6vectorIS3_IiSaIiEESaIS5_EES7_LPv0EEENS_15AssertionResultEPKcSB_RKT_RKT0_
FNDA:0,_ZN7testing15AssertionResultD2Ev
FNDA:0,_ZNK7testing15AssertionResultcvbEv
FNDA:0,_ZNK7testing15AssertionResult7messageEv
FNDA:0,_ZNK7testing15AssertionResult15failure_messageEv
FNDA:0,_ZN7testing4Test14SetUpTestSuiteEv
FNDA:0,_ZN7testing4Test17TearDownTestSuiteEv
FNDA:0,_ZN7testing4Test16TearDownTestCaseEv
FNDA:0,_ZN7testing4Test13SetUpTestCaseEv
FNDA:0,_ZN7testing4Test5SetupEv
FNDA:0,_ZN7testing8internal18CmpHelperEQFailureISt6vectorIS2_IiSaIiEESaIS4_EES6_EENS_15AssertionResultEPKcS9_RKT_RKT0_
FNDA:40,_ZN7testing8internal11CmpHelperEQISt6vectorIS2_IiSaIiEESaIS4_EES6_EENS_15AssertionResultEPKcS9_RKT_RKT0_
FNDA:40,_ZN7testing8internal8EqHelper7CompareISt6vectorIS3_IiSaIiEESaIS5_EES7_LPv0EEENS_15AssertionResultEPKcSB_RKT_RKT0_
FNF:12
FNH:2
DA:275,0
DA:312,0
DA:321,0
DA:322,0
DA:325,0
DA:417,0
DA:427,0
DA:431,0
DA:432,0
DA:513,0
DA:1504,0
DA:1511,0
DA:1523,40
DA:1527,40
DA:1528,40
DA:1531,0
DA:1551,40
DA:1554,40
LF:18
LH:5
end_of_record
SF:/home/fyulita/Desktop/tpi/algo1-TPI/lib/googletest-master/googletest/include/gtest/internal/gtest-internal.h
FN:442,_ZN7testing8internal15TestFactoryBaseD2Ev
FN:442,_ZN7testing8internal15TestFactoryBaseD0Ev
FN:449,_ZN7testing8internal15TestFactoryBaseC2Ev
FN:458,_ZN7testing8internal15TestFactoryImplI34cerrarFormaTest_cierreConCruz_TestED0Ev
FN:458,_ZN7testing8internal15TestFactoryImplI44cerrarFormaTest_tapandooHuecosDeUnPixel_TestED0Ev
FN:458,_ZN7testing8internal15TestFactoryImplI34cerrarFormaTest_cierreConCruz_TestEC2Ev
FN:458,_ZN7testing8internal15TestFactoryImplI34cerrarFormaTest_cierreConCruz_TestED2Ev
FN:458,_ZN7testing8internal15TestFactoryImplI44cerrarFormaTest_tapandooHuecosDeUnPixel_TestEC2Ev
FN:458,_ZN7testing8internal15TestFactoryImplI44cerrarFormaTest_tapandooHuecosDeUnPixel_TestED2Ev
FN:460,_ZN7testing8internal15TestFactoryImplI34cerrarFormaTest_cierreConCruz_TestE10CreateTestEv
FN:460,_ZN7testing8internal15TestFactoryImplI44cerrarFormaTest_tapandooHuecosDeUnPixel_TestE10CreateTestEv
FN:480,_ZN7testing8internal12CodeLocationD2Ev
FN:481,_ZN7testing8internal12CodeLocationC2ERKNSt7__cxx1112basic_stringIcSt11char_traitsIcESaIcEEEi
FN:494,_ZN7testing8internal19GetNotDefaultOrNullEPFvvES2_
FN:509,_ZN7testing8internal16SuiteApiResolverINS_4TestEE19GetSetUpCaseOrSuiteEPKci
FN:524,_ZN7testing8internal16SuiteApiResolverINS_4TestEE22GetTearDownCaseOrSuiteEPKci
FNDA:0,_ZN7testing8internal15TestFactoryBaseD0Ev
FNDA:0,_ZN7testing8internal15TestFactoryBaseD2Ev
FNDA:0,_ZN7testing8internal15TestFactoryBaseC2Ev
FNDA:5,_ZN7testing8internal15TestFactoryImplI44cerrarFormaTest_tapandooHuecosDeUnPixel_TestED0Ev
FNDA:5,_ZN7testing8internal15TestFactoryImplI44cerrarFormaTest_tapandooHuecosDeUnPixel_TestED2Ev
FNDA:5,_ZN7testing8internal15TestFactoryImplI34cerrarFormaTest_cierreConCruz_TestED0Ev
FNDA:5,_ZN7testing8internal15TestFactoryImplI34cerrarFormaTest_cierreConCruz_TestED2Ev
FNDA:5,_ZN7testing8internal15TestFactoryImplI34cerrarFormaTest_cierreConCruz_TestEC2Ev
FNDA:5,_ZN7testing8internal15TestFactoryImplI44cerrarFormaTest_tapandooHuecosDeUnPixel_TestEC2Ev
FNDA:2,_ZN7testing8internal15TestFactoryImplI44cerrarFormaTest_tapandooHuecosDeUnPixel_TestE10CreateTestEv
FNDA:2,_ZN7testing8internal15TestFactoryImplI34cerrarFormaTest_cierreConCruz_TestE10CreateTestEv
FNDA:0,_ZN7testing8internal12CodeLocationD2Ev
FNDA:0,_ZN7testing8internal12CodeLocationC2ERKNSt7__cxx1112basic_stringIcSt11char_traitsIcESaIcEEEi
FNDA:0,_ZN7testing8internal19GetNotDefaultOrNullEPFvvES2_
FNDA:0,_ZN7testing8internal16SuiteApiResolverINS_4TestEE19GetSetUpCaseOrSuiteEPKci
FNDA:0,_ZN7testing8internal16SuiteApiResolverINS_4TestEE22GetTearDownCaseOrSuiteEPKci
FNF:16
FNH:8
DA:442,0
DA:449,0
DA:458,30
DA:460,4
DA:480,0
DA:481,0
DA:482,0
DA:494,0
DA:496,0
DA:509,0
DA:511,0
DA:513,0
DA:516,0
DA:519,0
DA:521,0
DA:524,0
DA:526,0
DA:528,0
DA:531,0
DA:534,0
DA:536,0
LF:21
LH:2
end_of_record
SF:/home/fyulita/Desktop/tpi/algo1-TPI/lib/googletest-master/googletest/include/gtest/internal/gtest-port.h
FN:942,_ZN7testing8internal8GTestLog9GetStreamEv
FNDA:0,_ZN7testing8internal8GTestLog9GetStreamEv
FNF:1
FNH:0
DA:942,0
LF:1
LH:0
end_of_record
SF:/home/fyulita/Desktop/tpi/algo1-TPI/tests/ej5TEST.cpp
FN:6,_ZN44cerrarFormaTest_tapandooHuecosDeUnPixel_TestD2Ev
FN:6,_ZN44cerrarFormaTest_tapandooHuecosDeUnPixel_TestD0Ev
FN:6,_ZN44cerrarFormaTest_tapandooHuecosDeUnPixel_Test8TestBodyEv
FN:6,_ZN44cerrarFormaTest_tapandooHuecosDeUnPixel_TestC2Ev
FN:37,_ZN34cerrarFormaTest_cierreConCruz_TestD2Ev
FN:37,_ZN34cerrarFormaTest_cierreConCruz_TestD0Ev
FN:37,_ZN34cerrarFormaTest_cierreConCruz_Test8TestBodyEv
FN:37,_ZN34cerrarFormaTest_cierreConCruz_TestC2Ev
FN:65,_GLOBAL__sub_I__ZN44cerrarFormaTest_tapandooHuecosDeUnPixel_Test10test_info_E
FN:65,_Z41__static_initialization_and_destruction_0ii
FNDA:2,_ZN44cerrarFormaTest_tapandooHuecosDeUnPixel_TestD0Ev
FNDA:2,_ZN44cerrarFormaTest_tapandooHuecosDeUnPixel_TestD2Ev
FNDA:2,_ZN44cerrarFormaTest_tapandooHuecosDeUnPixel_Test8TestBodyEv
FNDA:2,_ZN44cerrarFormaTest_tapandooHuecosDeUnPixel_TestC2Ev
FNDA:2,_ZN34cerrarFormaTest_cierreConCruz_TestD0Ev
FNDA:2,_ZN34cerrarFormaTest_cierreConCruz_TestD2Ev
FNDA:2,_ZN34cerrarFormaTest_cierreConCruz_Test8TestBodyEv
FNDA:2,_ZN34cerrarFormaTest_cierreConCruz_TestC2Ev
FNDA:5,_GLOBAL__sub_I__ZN44cerrarFormaTest_tapandooHuecosDeUnPixel_Test10test_info_E
FNDA:5,_Z41__static_initialization_and_destruction_0ii
FNF:10
FNH:10
DA:6,13
DA:15,4
DA:20,4
DA:29,4
DA:31,2
DA:33,2
DA:34,2
DA:37,13
DA:46,4
DA:51,4
DA:60,4
DA:62,2
DA:64,2
DA:65,17
LF:14
LH:14
end_of_record
SF:/usr/include/c++/7/bits/alloc_traits.h
FN:435,_ZNSt16allocator_traitsISaIiEE8allocateERS0_m
FN:435,_ZNSt16allocator_traitsISaISt6vectorIiSaIiEEEE8allocateERS3_m
FN:461,_ZNSt16allocator_traitsISaISt6vectorIiSaIiEEEE10deallocateERS3_PS2_m
FN:461,_ZNSt16allocator_traitsISaIiEE10deallocateERS0_Pim
FN:504,_ZNSt16allocator_traitsISaIiEE37select_on_container_copy_constructionERKS0_
FNDA:0,_ZNSt16allocator_traitsISaISt6vectorIiSaIiEEEE8allocateERS3_m
FNDA:0,_ZNSt16allocator_traitsISaIiEE8allocateERS0_m
FNDA:0,_ZNSt16allocator_traitsISaISt6vectorIiSaIiEEEE10deallocateERS3_PS2_m
FNDA:0,_ZNSt16allocator_traitsISaIiEE10deallocateERS0_Pim
FNDA:0,_ZNSt16allocator_traitsISaIiEE37select_on_container_copy_constructionERKS0_
FNF:5
FNH:0
DA:435,0
DA:436,0
DA:461,0
DA:462,0
DA:504,0
DA:505,0
LF:6
LH:0
end_of_record
SF:/usr/include/c++/7/bits/allocator.h
FN:131,_ZNSaIiEC2Ev
FN:131,_ZNSaISt6vectorIiSaIiEEEC2Ev
FN:133,_ZNSaISt6vectorIiSaIiEEEC2ERKS2_
FN:133,_ZNSaIiEC2ERKS_
FN:139,_ZNSaISt6vectorIiSaIiEEED2Ev
FN:139,_ZNSaIiED2Ev
FNDA:0,_ZNSaISt6vectorIiSaIiEEEC2Ev
FNDA:0,_ZNSaIiEC2Ev
FNDA:0,_ZNSaISt6vectorIiSaIiEEEC2ERKS2_
FNDA:0,_ZNSaIiEC2ERKS_
FNDA:0,_ZNSaISt6vectorIiSaIiEEED2Ev
FNDA:0,_ZNSaIiED2Ev
FNF:6
FNH:0
DA:131,0
DA:133,0
DA:134,0
DA:139,0
LF:4
LH:0
end_of_record
SF:/usr/include/c++/7/bits/cpp_type_traits.h
FN:408,_ZSt12__miter_baseIPKiET_S2_
FN:408,_ZSt12__miter_baseIN9__gnu_cxx17__normal_iteratorIPKiSt6vectorIiSaIiEEEEET_S8_
FNDA:0,_ZSt12__miter_baseIN9__gnu_cxx17__normal_iteratorIPKiSt6vectorIiSaIiEEEEET_S8_
FNDA:0,_ZSt12__miter_baseIPKiET_S2_
FNF:2
FNH:0
DA:408,0
DA:409,0
LF:2
LH:0
end_of_record
SF:/usr/include/c++/7/bits/ios_base.h
FN:129,_ZStorSt13_Ios_OpenmodeS_
FNDA:549,_ZStorSt13_Ios_OpenmodeS_
FNF:1
FNH:1
DA:129,549
DA:130,549
LF:2
LH:2
end_of_record
SF:/usr/include/c++/7/bits/move.h
FN:47,_ZSt11__addressofISt6vectorIiSaIiEEEPT_RS3_
FN:73,_ZSt7forwardIRKSt6vectorIiSaIiEEEOT_RNSt16remove_referenceIS5_E4typeE
FNDA:0,_ZSt11__addressofISt6vectorIiSaIiEEEPT_RS3_
FNDA:0,_ZSt7forwardIRKSt6vectorIiSaIiEEEOT_RNSt16remove_referenceIS5_E4typeE
FNF:2
FNH:0
DA:47,0
DA:48,0
DA:73,0
DA:74,0
LF:4
LH:0
end_of_record
SF:/usr/include/c++/7/bits/stl_algobase.h
FN:277,_ZSt12__niter_baseIPKiET_S2_
FN:277,_ZSt12__niter_baseIPiET_S1_
FN:357,_ZNSt11__copy_moveILb0ELb1ESt26random_access_iterator_tagE8__copy_mIiEEPT_PKS3_S6_S4_
FN:375,_ZSt13__copy_move_aILb0EPKiPiET1_T0_S4_S3_
FN:420,_ZSt14__copy_move_a2ILb0EN9__gnu_cxx17__normal_iteratorIPKiSt6vectorIiSaIiEEEEPiET1_T0_SA_S9_
FN:420,_ZSt14__copy_move_a2ILb0EPKiPiET1_T0_S4_S3_
FN:446,_ZSt4copyIPKiPiET0_T_S4_S3_
FN:446,_ZSt4copyIN9__gnu_cxx17__normal_iteratorIPKiSt6vectorIiSaIiEEEEPiET0_T_SA_S9_
FN:797,_ZNSt7__equalILb0EE5equalIPKSt6vectorIiSaIiEES6_EEbT_S7_T0_
FN:811,_ZNSt7__equalILb1EE5equalIiEEbPKT_S4_S4_
FN:821,_ZSt11__equal_auxIPKSt6vectorIiSaIiEES4_EbT_S5_T0_
FN:821,_ZSt11__equal_auxIPKiS1_EbT_S2_T0_
FN:1041,_ZSt5equalIN9__gnu_cxx17__normal_iteratorIPKiSt6vectorIiSaIiEEEES7_EbT_S8_T0_
FN:1041,_ZSt5equalIN9__gnu_cxx17__normal_iteratorIPKSt6vectorIiSaIiEES2_IS4_SaIS4_EEEES9_EbT_SA_T0_
FNDA:0,_ZSt12__niter_baseIPiET_S1_
FNDA:0,_ZSt12__niter_baseIPKiET_S2_
FNDA:0,_ZNSt11__copy_moveILb0ELb1ESt26random_access_iterator_tagE8__copy_mIiEEPT_PKS3_S6_S4_
FNDA:0,_ZSt13__copy_move_aILb0EPKiPiET1_T0_S4_S3_
FNDA:0,_ZSt14__copy_move_a2ILb0EN9__gnu_cxx17__normal_iteratorIPKiSt6vectorIiSaIiEEEEPiET1_T0_SA_S9_
FNDA:0,_ZSt14__copy_move_a2ILb0EPKiPiET1_T0_S4_S3_
FNDA:0,_ZSt4copyIN9__gnu_cxx17__normal_iteratorIPKiSt6vectorIiSaIiEEEEPiET0_T_SA_S9_
FNDA:0,_ZSt4copyIPKiPiET0_T_S4_S3_
FNDA:0,_ZNSt7__equalILb0EE5equalIPKSt6vectorIiSaIiEES6_EEbT_S7_T0_
FNDA:0,_ZNSt7__equalILb1EE5equalIiEEbPKT_S4_S4_
FNDA:0,_ZSt11__equal_auxIPKiS1_EbT_S2_T0_
FNDA:0,_ZSt11__equal_auxIPKSt6vectorIiSaIiEES4_EbT_S5_T0_
FNDA:0,_ZSt5equalIN9__gnu_cxx17__normal_iteratorIPKiSt6vectorIiSaIiEEEES7_EbT_S8_T0_
FNDA:0,_ZSt5equalIN9__gnu_cxx17__normal_iteratorIPKSt6vectorIiSaIiEES2_IS4_SaIS4_EEEES9_EbT_SA_T0_
FNF:14
FNH:0
DA:277,0
DA:278,0
DA:357,0
DA:366,0
DA:367,0
DA:368,0
DA:369,0
DA:375,0
DA:380,0
DA:386,0
DA:420,0
DA:422,0
DA:424,0
DA:446,0
DA:455,0
DA:456,0
DA:797,0
DA:799,0
DA:800,0
DA:801,0
DA:802,0
DA:811,0
DA:813,0
DA:814,0
DA:815,0
DA:821,0
DA:825,0
DA:831,0
DA:1041,0
DA:1051,0
DA:1053,0
LF:31
LH:0
end_of_record
SF:/usr/include/c++/7/bits/stl_construct.h
FN:74,_ZSt10_ConstructISt6vectorIiSaIiEEJRKS2_EEvPT_DpOT0_
FN:97,_ZSt8_DestroyISt6vectorIiSaIiEEEvPT_
FN:105,_ZNSt12_Destroy_auxILb0EE9__destroyIPSt6vectorIiSaIiEEEEvT_S6_
FN:117,_ZNSt12_Destroy_auxILb1EE9__destroyIPiEEvT_S3_
FN:127,_ZSt8_DestroyIPSt6vectorIiSaIiEEEvT_S4_
FN:127,_ZSt8_DestroyIPiEvT_S1_
FN:203,_ZSt8_DestroyIPiiEvT_S1_RSaIT0_E
FN:203,_ZSt8_DestroyIPSt6vectorIiSaIiEES2_EvT_S4_RSaIT0_E
FNDA:0,_ZSt10_ConstructISt6vectorIiSaIiEEJRKS2_EEvPT_DpOT0_
FNDA:0,_ZSt8_DestroyISt6vectorIiSaIiEEEvPT_
FNDA:0,_ZNSt12_Destroy_auxILb0EE9__destroyIPSt6vectorIiSaIiEEEEvT_S6_
FNDA:0,_ZNSt12_Destroy_auxILb1EE9__destroyIPiEEvT_S3_
FNDA:0,_ZSt8_DestroyIPSt6vectorIiSaIiEEEvT_S4_
FNDA:0,_ZSt8_DestroyIPiEvT_S1_
FNDA:0,_ZSt8_DestroyIPSt6vectorIiSaIiEES2_EvT_S4_RSaIT0_E
FNDA:0,_ZSt8_DestroyIPiiEvT_S1_RSaIT0_E
FNF:8
FNH:0
DA:74,0
DA:75,0
DA:97,0
DA:98,0
DA:105,0
DA:107,0
DA:108,0
DA:109,0
DA:117,0
DA:127,0
DA:137,0
DA:138,0
DA:203,0
DA:206,0
DA:207,0
LF:15
LH:0
end_of_record
SF:/usr/include/c++/7/bits/stl_iterator.h
FN:782,_ZN9__gnu_cxx17__normal_iteratorIPKiSt6vectorIiSaIiEEEC2ERKS2_
FN:782,_ZN9__gnu_cxx17__normal_iteratorIPKSt6vectorIiSaIiEES1_IS3_SaIS3_EEEC2ERKS5_
FN:795,_ZNK9__gnu_cxx17__normal_iteratorIPKSt6vectorIiSaIiEES1_IS3_SaIS3_EEEdeEv
FN:795,_ZNK9__gnu_cxx17__normal_iteratorIPKiSt6vectorIiSaIiEEEdeEv
FN:803,_ZN9__gnu_cxx17__normal_iteratorIPKiSt6vectorIiSaIiEEEppEv
FN:803,_ZN9__gnu_cxx17__normal_iteratorIPKSt6vectorIiSaIiEES1_IS3_SaIS3_EEEppEv
FN:847,_ZNK9__gnu_cxx17__normal_iteratorIPKiSt6vectorIiSaIiEEE4baseEv
FN:847,_ZNK9__gnu_cxx17__normal_iteratorIPKSt6vectorIiSaIiEES1_IS3_SaIS3_EEE4baseEv
FN:883,_ZN9__gnu_cxxneIPKiSt6vectorIiSaIiEEEEbRKNS_17__normal_iteratorIT_T0_EESB_
FN:883,_ZN9__gnu_cxxneIPKSt6vectorIiSaIiEES1_IS3_SaIS3_EEEEbRKNS_17__normal_iteratorIT_T0_EESD_
FN:986,_ZSt12__niter_baseIPKiSt6vectorIiSaIiEEET_N9__gnu_cxx17__normal_iteratorIS5_T0_EE
FN:986,_ZSt12__niter_baseIPKSt6vectorIiSaIiEES0_IS2_SaIS2_EEET_N9__gnu_cxx17__normal_iteratorIS7_T0_EE
FNDA:0,_ZN9__gnu_cxx17__normal_iteratorIPKiSt6vectorIiSaIiEEEC2ERKS2_
FNDA:0,_ZN9__gnu_cxx17__normal_iteratorIPKSt6vectorIiSaIiEES1_IS3_SaIS3_EEEC2ERKS5_
FNDA:0,_ZNK9__gnu_cxx17__normal_iteratorIPKiSt6vectorIiSaIiEEEdeEv
FNDA:0,_ZNK9__gnu_cxx17__normal_iteratorIPKSt6vectorIiSaIiEES1_IS3_SaIS3_EEEdeEv
FNDA:0,_ZN9__gnu_cxx17__normal_iteratorIPKiSt6vectorIiSaIiEEEppEv
FNDA:0,_ZN9__gnu_cxx17__normal_iteratorIPKSt6vectorIiSaIiEES1_IS3_SaIS3_EEEppEv
FNDA:0,_ZNK9__gnu_cxx17__normal_iteratorIPKiSt6vectorIiSaIiEEE4baseEv
FNDA:0,_ZNK9__gnu_cxx17__normal_iteratorIPKSt6vectorIiSaIiEES1_IS3_SaIS3_EEE4baseEv
FNDA:0,_ZN9__gnu_cxxneIPKiSt6vectorIiSaIiEEEEbRKNS_17__normal_iteratorIT_T0_EESB_
FNDA:0,_ZN9__gnu_cxxneIPKSt6vectorIiSaIiEES1_IS3_SaIS3_EEEEbRKNS_17__normal_iteratorIT_T0_EESD_
FNDA:0,_ZSt12__niter_baseIPKiSt6vectorIiSaIiEEET_N9__gnu_cxx17__normal_iteratorIS5_T0_EE
FNDA:0,_ZSt12__niter_baseIPKSt6vectorIiSaIiEES0_IS2_SaIS2_EEET_N9__gnu_cxx17__normal_iteratorIS7_T0_EE
FNF:12
FNH:0
DA:782,0
DA:783,0
DA:795,0
DA:796,0
DA:803,0
DA:805,0
DA:806,0
DA:847,0
DA:848,0
DA:883,0
DA:886,0
DA:986,0
DA:987,0
LF:13
LH:0
end_of_record
SF:/usr/include/c++/7/bits/stl_iterator_base_funcs.h
FN:98,_ZSt10__distanceIPKiENSt15iterator_traitsIT_E15difference_typeES3_S3_St26random_access_iterator_tag
FN:98,_ZSt10__distanceIPKSt6vectorIiSaIiEEENSt15iterator_traitsIT_E15difference_typeES6_S6_St26random_access_iterator_tag
FN:138,_ZSt8distanceIPKSt6vectorIiSaIiEEENSt15iterator_traitsIT_E15difference_typeES6_S6_
FN:138,_ZSt8distanceIPKiENSt15iterator_traitsIT_E15difference_typeES3_S3_
FNDA:0,_ZSt10__distanceIPKSt6vectorIiSaIiEEENSt15iterator_traitsIT_E15difference_typeES6_S6_St26random_access_iterator_tag
FNDA:0,_ZSt10__distanceIPKiENSt15iterator_traitsIT_E15difference_typeES3_S3_St26random_access_iterator_tag
FNDA:0,_ZSt8distanceIPKSt6vectorIiSaIiEEENSt15iterator_traitsIT_E15difference_typeES6_S6_
FNDA:0,_ZSt8distanceIPKiENSt15iterator_traitsIT_E15difference_typeES3_S3_
FNF:4
FNH:0
DA:98,0
DA:104,0
DA:138,0
DA:141,0
DA:142,0
LF:5
LH:0
end_of_record
SF:/usr/include/c++/7/bits/stl_iterator_base_types.h
FN:205,_ZSt19__iterator_categoryIPKSt6vectorIiSaIiEEENSt15iterator_traitsIT_E17iterator_categoryERKS6_
FN:205,_ZSt19__iterator_categoryIPKiENSt15iterator_traitsIT_E17iterator_categoryERKS3_
FNDA:0,_ZSt19__iterator_categoryIPKSt6vectorIiSaIiEEENSt15iterator_traitsIT_E17iterator_categoryERKS6_
FNDA:0,_ZSt19__iterator_categoryIPKiENSt15iterator_traitsIT_E17iterator_categoryERKS3_
FNF:2
FNH:0
DA:205,0
DA:206,0
LF:2
LH:0
end_of_record
SF:/usr/include/c++/7/bits/stl_uninitialized.h
FN:76,_ZNSt20__uninitialized_copyILb0EE13__uninit_copyIPKSt6vectorIiSaIiEEPS4_EET0_T_S9_S8_
FN:99,_ZNSt20__uninitialized_copyILb1EE13__uninit_copyIPKiPiEET0_T_S6_S5_
FN:99,_ZNSt20__uninitialized_copyILb1EE13__uninit_copyIN9__gnu_cxx17__normal_iteratorIPKiSt6vectorIiSaIiEEEEPiEET0_T_SC_SB_
FN:115,_ZSt18uninitialized_copyIPKSt6vectorIiSaIiEEPS2_ET0_T_S7_S6_
FN:115,_ZSt18uninitialized_copyIPKiPiET0_T_S4_S3_
FN:115,_ZSt18uninitialized_copyIN9__gnu_cxx17__normal_iteratorIPKiSt6vectorIiSaIiEEEEPiET0_T_SA_S9_
FN:287,_ZSt22__uninitialized_copy_aIPKiPiiET0_T_S4_S3_RSaIT1_E
FN:287,_ZSt22__uninitialized_copy_aIPKSt6vectorIiSaIiEEPS2_S2_ET0_T_S7_S6_RSaIT1_E
FN:287,_ZSt22__uninitialized_copy_aIN9__gnu_cxx17__normal_iteratorIPKiSt6vectorIiSaIiEEEEPiiET0_T_SA_S9_RSaIT1_E
FNDA:0,_ZNSt20__uninitialized_copyILb0EE13__uninit_copyIPKSt6vectorIiSaIiEEPS4_EET0_T_S9_S8_
FNDA:0,_ZNSt20__uninitialized_copyILb1EE13__uninit_copyIN9__gnu_cxx17__normal_iteratorIPKiSt6vectorIiSaIiEEEEPiEET0_T_SC_SB_
FNDA:0,_ZNSt20__uninitialized_copyILb1EE13__uninit_copyIPKiPiEET0_T_S6_S5_
FNDA:0,_ZSt18uninitialized_copyIN9__gnu_cxx17__normal_iteratorIPKiSt6vectorIiSaIiEEEEPiET0_T_SA_S9_
FNDA:0,_ZSt18uninitialized_copyIPKSt6vectorIiSaIiEEPS2_ET0_T_S7_S6_
FNDA:0,_ZSt18uninitialized_copyIPKiPiET0_T_S4_S3_
FNDA:0,_ZSt22__uninitialized_copy_aIN9__gnu_cxx17__normal_iteratorIPKiSt6vectorIiSaIiEEEEPiiET0_T_SA_S9_RSaIT1_E
FNDA:0,_ZSt22__uninitialized_copy_aIPKSt6vectorIiSaIiEEPS2_S2_ET0_T_S7_S6_RSaIT1_E
FNDA:0,_ZSt22__uninitialized_copy_aIPKiPiiET0_T_S4_S3_RSaIT1_E
FNF:9
FNH:0
DA:76,0
DA:79,0
DA:82,0
DA:83,0
DA:84,0
DA:86,0
DA:88,0
DA:89,0
DA:99,0
DA:101,0
DA:115,0
DA:128,0
DA:134,0
DA:287,0
DA:289,0
LF:15
LH:0
end_of_record
SF:/usr/include/c++/7/bits/stl_vector.h
FN:81,_ZNSt12_Vector_baseISt6vectorIiSaIiEESaIS2_EE12_Vector_implD2Ev
FN:81,_ZNSt12_Vector_baseIiSaIiEE12_Vector_implD2Ev
FN:92,_ZNSt12_Vector_baseIiSaIiEE12_Vector_implC2ERKS0_
FN:92,_ZNSt12_Vector_baseISt6vectorIiSaIiEESaIS2_EE12_Vector_implC2ERKS3_
FN:115,_ZNSt12_Vector_baseISt6vectorIiSaIiEESaIS2_EE19_M_get_Tp_allocatorEv
FN:115,_ZNSt12_Vector_baseIiSaIiEE19_M_get_Tp_allocatorEv
FN:119,_ZNKSt12_Vector_baseIiSaIiEE19_M_get_Tp_allocatorEv
FN:129,_ZNSt12_Vector_baseIiSaIiEEC2ERKS0_
FN:129,_ZNSt12_Vector_baseISt6vectorIiSaIiEESaIS2_EEC2ERKS3_
FN:136,_ZNSt12_Vector_baseIiSaIiEEC2EmRKS0_
FN:161,_ZNSt12_Vector_baseIiSaIiEED2Ev
FN:161,_ZNSt12_Vector_baseISt6vectorIiSaIiEESaIS2_EED2Ev
FN:169,_ZNSt12_Vector_baseISt6vectorIiSaIiEESaIS2_EE11_M_allocateEm
FN:169,_ZNSt12_Vector_baseIiSaIiEE11_M_allocateEm
FN:176,_ZNSt12_Vector_baseIiSaIiEE13_M_deallocateEPim
FN:176,_ZNSt12_Vector_baseISt6vectorIiSaIiEESaIS2_EE13_M_deallocateEPS2_m
FN:185,_ZNSt12_Vector_baseIiSaIiEE17_M_create_storageEm
FN:326,_ZNSt6vectorIiSaIiEEC2ERKS1_
FN:383,_ZNSt6vectorIS_IiSaIiEESaIS1_EEC2ESt16initializer_listIS1_ERKS2_
FN:383,_ZNSt6vectorIiSaIiEEC2ESt16initializer_listIiERKS0_
FN:433,_ZNSt6vectorIS_IiSaIiEESaIS1_EED2Ev
FN:433,_ZNSt6vectorIiSaIiEED2Ev
FN:572,_ZNKSt6vectorIiSaIiEE5beginEv
FN:572,_ZNKSt6vectorIS_IiSaIiEESaIS1_EE5beginEv
FN:590,_ZNKSt6vectorIS_IiSaIiEESaIS1_EE3endEv
FN:590,_ZNKSt6vectorIiSaIiEE3endEv
FN:670,_ZNKSt6vectorIiSaIiEE4sizeEv
FN:670,_ZNKSt6vectorIS_IiSaIiEESaIS1_EE4sizeEv
FN:1324,_ZNSt6vectorIiSaIiEE19_M_range_initializeIPKiEEvT_S5_St20forward_iterator_tag
FN:1324,_ZNSt6vectorIS_IiSaIiEESaIS1_EE19_M_range_initializeIPKS1_EEvT_S7_St20forward_iterator_tag
FN:1601,_ZSteqISt6vectorIiSaIiEESaIS2_EEbRKS0_IT_T0_ES8_
FN:1601,_ZSteqIiSaIiEEbRKSt6vectorIT_T0_ES6_
FNDA:0,_ZNSt12_Vector_baseISt6vectorIiSaIiEESaIS2_EE12_Vector_implD2Ev
FNDA:0,_ZNSt12_Vector_baseIiSaIiEE12_Vector_implD2Ev
FNDA:0,_ZNSt12_Vector_baseISt6vectorIiSaIiEESaIS2_EE12_Vector_implC2ERKS3_
FNDA:0,_ZNSt12_Vector_baseIiSaIiEE12_Vector_implC2ERKS0_
FNDA:0,_ZNSt12_Vector_baseISt6vectorIiSaIiEESaIS2_EE19_M_get_Tp_allocatorEv
FNDA:0,_ZNSt12_Vector_baseIiSaIiEE19_M_get_Tp_allocatorEv
FNDA:0,_ZNKSt12_Vector_baseIiSaIiEE19_M_get_Tp_allocatorEv
FNDA:0,_ZNSt12_Vector_baseISt6vectorIiSaIiEESaIS2_EEC2ERKS3_
FNDA:0,_ZNSt12_Vector_baseIiSaIiEEC2ERKS0_
FNDA:0,_ZNSt12_Vector_baseIiSaIiEEC2EmRKS0_
FNDA:0,_ZNSt12_Vector_baseISt6vectorIiSaIiEESaIS2_EED2Ev
FNDA:0,_ZNSt12_Vector_baseIiSaIiEED2Ev
FNDA:0,_ZNSt12_Vector_baseISt6vectorIiSaIiEESaIS2_EE11_M_allocateEm
FNDA:0,_ZNSt12_Vector_baseIiSaIiEE11_M_allocateEm
FNDA:0,_ZNSt12_Vector_baseISt6vectorIiSaIiEESaIS2_EE13_M_deallocateEPS2_m
FNDA:0,_ZNSt12_Vector_baseIiSaIiEE13_M_deallocateEPim
FNDA:0,_ZNSt12_Vector_baseIiSaIiEE17_M_create_storageEm
FNDA:0,_ZNSt6vectorIiSaIiEEC2ERKS1_
FNDA:0,_ZNSt6vectorIS_IiSaIiEESaIS1_EEC2ESt16initializer_listIS1_ERKS2_
FNDA:0,_ZNSt6vectorIiSaIiEEC2ESt16initializer_listIiERKS0_
FNDA:0,_ZNSt6vectorIS_IiSaIiEESaIS1_EED2Ev
FNDA:0,_ZNSt6vectorIiSaIiEED2Ev
FNDA:0,_ZNKSt6vectorIiSaIiEE5beginEv
FNDA:0,_ZNKSt6vectorIS_IiSaIiEESaIS1_EE5beginEv
FNDA:0,_ZNKSt6vectorIiSaIiEE3endEv
FNDA:0,_ZNKSt6vectorIS_IiSaIiEESaIS1_EE3endEv
FNDA:0,_ZNKSt6vectorIiSaIiEE4sizeEv
FNDA:0,_ZNKSt6vectorIS_IiSaIiEESaIS1_EE4sizeEv
FNDA:0,_ZNSt6vectorIS_IiSaIiEESaIS1_EE19_M_range_initializeIPKS1_EEvT_S7_St20forward_iterator_tag
FNDA:0,_ZNSt6vectorIiSaIiEE19_M_range_initializeIPKiEEvT_S5_St20forward_iterator_tag
FNDA:0,_ZSteqIiSaIiEEbRKSt6vectorIT_T0_ES6_
FNDA:0,_ZSteqISt6vectorIiSaIiEESaIS2_EEbRKS0_IT_T0_ES8_
FNF:32
FNH:0
DA:81,0
DA:92,0
DA:93,0
DA:94,0
DA:115,0
DA:116,0
DA:119,0
DA:120,0
DA:129,0
DA:130,0
DA:136,0
DA:137,0
DA:138,0
DA:161,0
DA:162,0
DA:163,0
DA:169,0
DA:172,0
DA:176,0
DA:179,0
DA:180,0
DA:181,0
DA:185,0
DA:187,0
DA:188,0
DA:189,0
DA:190,0
DA:326,0
DA:328,0
DA:330,0
DA:331,0
DA:333,0
DA:334,0
DA:383,0
DA:385,0
DA:387,0
DA:389,0
DA:433,0
DA:434,0
DA:435,0
DA:572,0
DA:573,0
DA:590,0
DA:591,0
DA:670,0
DA:671,0
DA:1324,0
DA:1327,0
DA:1328,0
DA:1329,0
DA:1330,0
DA:1331,0
DA:1333,0
DA:1334,0
DA:1601,0
DA:1602,0
DA:1603,0
LF:57
LH:0
end_of_record
SF:/usr/include/c++/7/bits/unique_ptr.h
FN:72,_ZNKSt14default_deleteINSt7__cxx1112basic_stringIcSt11char_traitsIcESaIcEEEEclEPS5_
FN:72,_ZNKSt14default_deleteINSt7__cxx1118basic_stringstreamIcSt11char_traitsIcESaIcEEEEclEPS5_
FN:146,_ZNSt15__uniq_ptr_implINSt7__cxx1112basic_stringIcSt11char_traitsIcESaIcEEESt14default_deleteIS5_EE6_M_ptrEv
FN:146,_ZNSt15__uniq_ptr_implINSt7__cxx1118basic_stringstreamIcSt11char_traitsIcESaIcEEESt14default_deleteIS5_EE6_M_ptrEv
FN:147,_ZNKSt15__uniq_ptr_implINSt7__cxx1112basic_stringIcSt11char_traitsIcESaIcEEESt14default_deleteIS5_EE6_M_ptrEv
FN:148,_ZNSt15__uniq_ptr_implINSt7__cxx1112basic_stringIcSt11char_traitsIcESaIcEEESt14default_deleteIS5_EE10_M_deleterEv
FN:148,_ZNSt15__uniq_ptr_implINSt7__cxx1118basic_stringstreamIcSt11char_traitsIcESaIcEEESt14default_deleteIS5_EE10_M_deleterEv
FN:264,_ZNSt10unique_ptrINSt7__cxx1112basic_stringIcSt11char_traitsIcESaIcEEESt14default_deleteIS5_EED2Ev
FN:264,_ZNSt10unique_ptrINSt7__cxx1118basic_stringstreamIcSt11char_traitsIcESaIcEEESt14default_deleteIS5_EED2Ev
FN:328,_ZNKSt10unique_ptrINSt7__cxx1112basic_stringIcSt11char_traitsIcESaIcEEESt14default_deleteIS5_EEptEv
FN:336,_ZNKSt10unique_ptrINSt7__cxx1112basic_stringIcSt11char_traitsIcESaIcEEESt14default_deleteIS5_EE3getEv
FN:341,_ZNSt10unique_ptrINSt7__cxx1112basic_stringIcSt11char_traitsIcESaIcEEESt14default_deleteIS5_EE11get_deleterEv
FN:341,_ZNSt10unique_ptrINSt7__cxx1118basic_stringstreamIcSt11char_traitsIcESaIcEEESt14default_deleteIS5_EE11get_deleterEv
FNDA:0,_ZNKSt14default_deleteINSt7__cxx1112basic_stringIcSt11char_traitsIcESaIcEEEEclEPS5_
FNDA:0,_ZNKSt14default_deleteINSt7__cxx1118basic_stringstreamIcSt11char_traitsIcESaIcEEEEclEPS5_
FNDA:0,_ZNSt15__uniq_ptr_implINSt7__cxx1112basic_stringIcSt11char_traitsIcESaIcEEESt14default_deleteIS5_EE6_M_ptrEv
FNDA:0,_ZNSt15__uniq_ptr_implINSt7__cxx1118basic_stringstreamIcSt11char_traitsIcESaIcEEESt14default_deleteIS5_EE6_M_ptrEv
FNDA:0,_ZNKSt15__uniq_ptr_implINSt7__cxx1112basic_stringIcSt11char_traitsIcESaIcEEESt14default_deleteIS5_EE6_M_ptrEv
FNDA:0,_ZNSt15__uniq_ptr_implINSt7__cxx1112basic_stringIcSt11char_traitsIcESaIcEEESt14default_deleteIS5_EE10_M_deleterEv
FNDA:0,_ZNSt15__uniq_ptr_implINSt7__cxx1118basic_stringstreamIcSt11char_traitsIcESaIcEEESt14default_deleteIS5_EE10_M_deleterEv
FNDA:0,_ZNSt10unique_ptrINSt7__cxx1112basic_stringIcSt11char_traitsIcESaIcEEESt14default_deleteIS5_EED2Ev
FNDA:0,_ZNSt10unique_ptrINSt7__cxx1118basic_stringstreamIcSt11char_traitsIcESaIcEEESt14default_deleteIS5_EED2Ev
FNDA:0,_ZNKSt10unique_ptrINSt7__cxx1112basic_stringIcSt11char_traitsIcESaIcEEESt14default_deleteIS5_EEptEv
FNDA:0,_ZNKSt10unique_ptrINSt7__cxx1112basic_stringIcSt11char_traitsIcESaIcEEESt14default_deleteIS5_EE3getEv
FNDA:0,_ZNSt10unique_ptrINSt7__cxx1112basic_stringIcSt11char_traitsIcESaIcEEESt14default_deleteIS5_EE11get_deleterEv
FNDA:0,_ZNSt10unique_ptrINSt7__cxx1118basic_stringstreamIcSt11char_traitsIcESaIcEEESt14default_deleteIS5_EE11get_deleterEv
FNF:13
FNH:0
DA:72,0
DA:78,0
DA:79,0
DA:146,0
DA:147,0
DA:148,0
DA:264,0
DA:266,0
DA:267,0
DA:268,0
DA:269,0
DA:270,0
DA:328,0
DA:331,0
DA:336,0
DA:337,0
DA:341,0
DA:342,0
LF:18
LH:0
end_of_record
SF:/usr/include/c++/7/ext/alloc_traits.h
FN:94,_ZN9__gnu_cxx14__alloc_traitsISaIiEE17_S_select_on_copyERKS1_
FNDA:0,_ZN9__gnu_cxx14__alloc_traitsISaIiEE17_S_select_on_copyERKS1_
FNF:1
FNH:0
DA:94,0
DA:95,0
LF:2
LH:0
end_of_record
SF:/usr/include/c++/7/ext/new_allocator.h
FN:79,_ZN9__gnu_cxx13new_allocatorIiEC2Ev
FN:79,_ZN9__gnu_cxx13new_allocatorISt6vectorIiSaIiEEEC2Ev
FN:81,_ZN9__gnu_cxx13new_allocatorISt6vectorIiSaIiEEEC2ERKS4_
FN:81,_ZN9__gnu_cxx13new_allocatorIiEC2ERKS1_
FN:86,_ZN9__gnu_cxx13new_allocatorIiED2Ev
FN:86,_ZN9__gnu_cxx13new_allocatorISt6vectorIiSaIiEEED2Ev
FN:99,_ZN9__gnu_cxx13new_allocatorIiE8allocateEmPKv
FN:99,_ZN9__gnu_cxx13new_allocatorISt6vectorIiSaIiEEE8allocateEmPKv
FN:116,_ZN9__gnu_cxx13new_allocatorISt6vectorIiSaIiEEE10deallocateEPS3_m
FN:116,_ZN9__gnu_cxx13new_allocatorIiE10deallocateEPim
FN:129,_ZNK9__gnu_cxx13new_allocatorIiE8max_sizeEv
FN:129,_ZNK9__gnu_cxx13new_allocatorISt6vectorIiSaIiEEE8max_sizeEv
FNDA:0,_ZN9__gnu_cxx13new_allocatorISt6vectorIiSaIiEEEC2Ev
FNDA:0,_ZN9__gnu_cxx13new_allocatorIiEC2Ev
FNDA:0,_ZN9__gnu_cxx13new_allocatorISt6vectorIiSaIiEEEC2ERKS4_
FNDA:0,_ZN9__gnu_cxx13new_allocatorIiEC2ERKS1_
FNDA:0,_ZN9__gnu_cxx13new_allocatorISt6vectorIiSaIiEEED2Ev
FNDA:0,_ZN9__gnu_cxx13new_allocatorIiED2Ev
FNDA:0,_ZN9__gnu_cxx13new_allocatorISt6vectorIiSaIiEEE8allocateEmPKv
FNDA:0,_ZN9__gnu_cxx13new_allocatorIiE8allocateEmPKv
FNDA:0,_ZN9__gnu_cxx13new_allocatorISt6vectorIiSaIiEEE10deallocateEPS3_m
FNDA:0,_ZN9__gnu_cxx13new_allocatorIiE10deallocateEPim
FNDA:0,_ZNK9__gnu_cxx13new_allocatorISt6vectorIiSaIiEEE8max_sizeEv
FNDA:0,_ZNK9__gnu_cxx13new_allocatorIiE8max_sizeEv
FNF:12
FNH:0
DA:79,0
DA:81,0
DA:86,0
DA:99,0
DA:101,0
DA:102,0
DA:111,0
DA:116,0
DA:125,0
DA:126,0
DA:129,0
DA:130,0
LF:12
LH:0
end_of_record
SF:/usr/include/c++/7/initializer_list
FN:71,_ZNKSt16initializer_listIiE4sizeEv
FN:71,_ZNKSt16initializer_listISt6vectorIiSaIiEEE4sizeEv
FN:75,_ZNKSt16initializer_listIiE5beginEv
FN:75,_ZNKSt16initializer_listISt6vectorIiSaIiEEE5beginEv
FN:79,_ZNKSt16initializer_listIiE3endEv
FN:79,_ZNKSt16initializer_listISt6vectorIiSaIiEEE3endEv
FNDA:0,_ZNKSt16initializer_listISt6vectorIiSaIiEEE4sizeEv
FNDA:0,_ZNKSt16initializer_listIiE4sizeEv
FNDA:0,_ZNKSt16initializer_listISt6vectorIiSaIiEEE5beginEv
FNDA:0,_ZNKSt16initializer_listIiE5beginEv
FNDA:0,_ZNKSt16initializer_listISt6vectorIiSaIiEEE3endEv
FNDA:0,_ZNKSt16initializer_listIiE3endEv
FNF:6
FNH:0
DA:71,0
DA:75,0
DA:79,0
LF:3
LH:0
end_of_record
SF:/usr/include/c++/7/iostream
DA:74,5
LF:1
LH:1
end_of_record
SF:/usr/include/c++/7/new
FN:168,_ZnwmPv
FN:174,_ZdlPvS_
FNDA:0,_ZnwmPv
FNDA:0,_ZdlPvS_
FNF:2
FNH:0
DA:168,0
DA:169,0
DA:174,0
LF:3
LH:0
end_of_record
SF:/usr/include/c++/7/tuple
FN:113,_ZNSt10_Head_baseILm1ESt14default_deleteINSt7__cxx1112basic_stringIcSt11char_traitsIcESaIcEEEELb1EE7_M_headERS8_
FN:113,_ZNSt10_Head_baseILm1ESt14default_deleteINSt7__cxx1118basic_stringstreamIcSt11char_traitsIcESaIcEEEELb1EE7_M_headERS8_
FN:160,_ZNSt10_Head_baseILm0EPNSt7__cxx1112basic_stringIcSt11char_traitsIcESaIcEEELb0EE7_M_headERS7_
FN:160,_ZNSt10_Head_baseILm0EPNSt7__cxx1118basic_stringstreamIcSt11char_traitsIcESaIcEEELb0EE7_M_headERS7_
FN:163,_ZNSt10_Head_baseILm0EPNSt7__cxx1112basic_stringIcSt11char_traitsIcESaIcEEELb0EE7_M_headERKS7_
FN:195,_ZNSt11_Tuple_implILm0EJPNSt7__cxx1112basic_stringIcSt11char_traitsIcESaIcEEESt14default_deleteIS5_EEE7_M_headERS9_
FN:195,_ZNSt11_Tuple_implILm0EJPNSt7__cxx1118basic_stringstreamIcSt11char_traitsIcESaIcEEESt14default_deleteIS5_EEE7_M_headERS9_
FN:198,_ZNSt11_Tuple_implILm0EJPNSt7__cxx1112basic_stringIcSt11char_traitsIcESaIcEEESt14default_deleteIS5_EEE7_M_headERKS9_
FN:351,_ZNSt11_Tuple_implILm1EJSt14default_deleteINSt7__cxx1118basic_stringstreamIcSt11char_traitsIcESaIcEEEEEE7_M_headERS8_
FN:351,_ZNSt11_Tuple_implILm1EJSt14default_deleteINSt7__cxx1112basic_stringIcSt11char_traitsIcESaIcEEEEEE7_M_headERS8_
FN:1303,_ZSt12__get_helperILm0EPNSt7__cxx1112basic_stringIcSt11char_traitsIcESaIcEEEJSt14default_deleteIS5_EEERT0_RSt11_Tuple_implIXT_EJS9_DpT1_EE
FN:1303,_ZSt12__get_helperILm0EPNSt7__cxx1118basic_stringstreamIcSt11char_traitsIcESaIcEEEJSt14default_deleteIS5_EEERT0_RSt11_Tuple_implIXT_EJS9_DpT1_EE
FN:1303,_ZSt12__get_helperILm1ESt14default_deleteINSt7__cxx1112basic_stringIcSt11char_traitsIcESaIcEEEEJEERT0_RSt11_Tuple_implIXT_EJS8_DpT1_EE
FN:1303,_ZSt12__get_helperILm1ESt14default_deleteINSt7__cxx1118basic_stringstreamIcSt11char_traitsIcESaIcEEEEJEERT0_RSt11_Tuple_implIXT_EJS8_DpT1_EE
FN:1308,_ZSt12__get_helperILm0EPNSt7__cxx1112basic_stringIcSt11char_traitsIcESaIcEEEJSt14default_deleteIS5_EEERKT0_RKSt11_Tuple_implIXT_EJS9_DpT1_EE
FN:1314,_ZSt3getILm1EJPNSt7__cxx1112basic_stringIcSt11char_traitsIcESaIcEEESt14default_deleteIS5_EEERNSt13tuple_elementIXT_ESt5tupleIJDpT0_EEE4typeERSD_
FN:1314,_ZSt3getILm0EJPNSt7__cxx1118basic_stringstreamIcSt11char_traitsIcESaIcEEESt14default_deleteIS5_EEERNSt13tuple_elementIXT_ESt5tupleIJDpT0_EEE4typeERSD_
FN:1314,_ZSt3getILm1EJPNSt7__cxx1118basic_stringstreamIcSt11char_traitsIcESaIcEEESt14default_deleteIS5_EEERNSt13tuple_elementIXT_ESt5tupleIJDpT0_EEE4typeERSD_
FN:1314,_ZSt3getILm0EJPNSt7__cxx1112basic_stringIcSt11char_traitsIcESaIcEEESt14default_deleteIS5_EEERNSt13tuple_elementIXT_ESt5tupleIJDpT0_EEE4typeERSD_
FN:1320,_ZSt3getILm0EJPNSt7__cxx1112basic_stringIcSt11char_traitsIcESaIcEEESt14default_deleteIS5_EEERKNSt13tuple_elementIXT_ESt5tupleIJDpT0_EEE4typeERKSD_
FNDA:0,_ZNSt10_Head_baseILm1ESt14default_deleteINSt7__cxx1112basic_stringIcSt11char_traitsIcESaIcEEEELb1EE7_M_headERS8_
FNDA:0,_ZNSt10_Head_baseILm1ESt14default_deleteINSt7__cxx1118basic_stringstreamIcSt11char_traitsIcESaIcEEEELb1EE7_M_headERS8_
FNDA:0,_ZNSt10_Head_baseILm0EPNSt7__cxx1112basic_stringIcSt11char_traitsIcESaIcEEELb0EE7_M_headERS7_
FNDA:0,_ZNSt10_Head_baseILm0EPNSt7__cxx1118basic_stringstreamIcSt11char_traitsIcESaIcEEELb0EE7_M_headERS7_
FNDA:0,_ZNSt10_Head_baseILm0EPNSt7__cxx1112basic_stringIcSt11char_traitsIcESaIcEEELb0EE7_M_headERKS7_
FNDA:0,_ZNSt11_Tuple_implILm0EJPNSt7__cxx1112basic_stringIcSt11char_traitsIcESaIcEEESt14default_deleteIS5_EEE7_M_headERS9_
FNDA:0,_ZNSt11_Tuple_implILm0EJPNSt7__cxx1118basic_stringstreamIcSt11char_traitsIcESaIcEEESt14default_deleteIS5_EEE7_M_headERS9_
FNDA:0,_ZNSt11_Tuple_implILm0EJPNSt7__cxx1112basic_stringIcSt11char_traitsIcESaIcEEESt14default_deleteIS5_EEE7_M_headERKS9_
FNDA:0,_ZNSt11_Tuple_implILm1EJSt14default_deleteINSt7__cxx1112basic_stringIcSt11char_traitsIcESaIcEEEEEE7_M_headERS8_
FNDA:0,_ZNSt11_Tuple_implILm1EJSt14default_deleteINSt7__cxx1118basic_stringstreamIcSt11char_traitsIcESaIcEEEEEE7_M_headERS8_
FNDA:0,_ZSt12__get_helperILm1ESt14default_deleteINSt7__cxx1112basic_stringIcSt11char_traitsIcESaIcEEEEJEERT0_RSt11_Tuple_implIXT_EJS8_DpT1_EE
FNDA:0,_ZSt12__get_helperILm1ESt14default_deleteINSt7__cxx1118basic_stringstreamIcSt11char_traitsIcESaIcEEEEJEERT0_RSt11_Tuple_implIXT_EJS8_DpT1_EE
FNDA:0,_ZSt12__get_helperILm0EPNSt7__cxx1112basic_stringIcSt11char_traitsIcESaIcEEEJSt14default_deleteIS5_EEERT0_RSt11_Tuple_implIXT_EJS9_DpT1_EE
FNDA:0,_ZSt12__get_helperILm0EPNSt7__cxx1118basic_stringstreamIcSt11char_traitsIcESaIcEEEJSt14default_deleteIS5_EEERT0_RSt11_Tuple_implIXT_EJS9_DpT1_EE
FNDA:0,_ZSt12__get_helperILm0EPNSt7__cxx1112basic_stringIcSt11char_traitsIcESaIcEEEJSt14default_deleteIS5_EEERKT0_RKSt11_Tuple_implIXT_EJS9_DpT1_EE
FNDA:0,_ZSt3getILm1EJPNSt7__cxx1112basic_stringIcSt11char_traitsIcESaIcEEESt14default_deleteIS5_EEERNSt13tuple_elementIXT_ESt5tupleIJDpT0_EEE4typeERSD_
FNDA:0,_ZSt3getILm1EJPNSt7__cxx1118basic_stringstreamIcSt11char_traitsIcESaIcEEESt14default_deleteIS5_EEERNSt13tuple_elementIXT_ESt5tupleIJDpT0_EEE4typeERSD_
FNDA:0,_ZSt3getILm0EJPNSt7__cxx1112basic_stringIcSt11char_traitsIcESaIcEEESt14default_deleteIS5_EEERNSt13tuple_elementIXT_ESt5tupleIJDpT0_EEE4typeERSD_
FNDA:0,_ZSt3getILm0EJPNSt7__cxx1118basic_stringstreamIcSt11char_traitsIcESaIcEEESt14default_deleteIS5_EEERNSt13tuple_elementIXT_ESt5tupleIJDpT0_EEE4typeERSD_
FNDA:0,_ZSt3getILm0EJPNSt7__cxx1112basic_stringIcSt11char_traitsIcESaIcEEESt14default_deleteIS5_EEERKNSt13tuple_elementIXT_ESt5tupleIJDpT0_EEE4typeERKSD_
FNF:20
FNH:0
DA:113,0
DA:160,0
DA:163,0
DA:195,0
DA:198,0
DA:351,0
DA:1303,0
DA:1304,0
DA:1308,0
DA:1309,0
DA:1314,0
DA:1315,0
DA:1320,0
DA:1321,0
LF:14
LH:0
end_of_record
TN:
SF:/home/fyulita/Desktop/tpi/algo1-TPI/lib/googletest-master/googletest/include/gtest/gtest-message.h
FN:91,_ZN7testing7MessageD2Ev
FNDA:0,_ZN7testing7MessageD2Ev
FNF:1
FNH:0
DA:91,0
LF:1
LH:0
end_of_record
SF:/home/fyulita/Desktop/tpi/algo1-TPI/lib/googletest-master/googletest/include/gtest/gtest.h
FN:275,_ZN7testing15AssertionResultD2Ev
FN:293,_ZN7testing15AssertionResultC2IbEERKT_PNSt9enable_ifIXntsrSt14is_convertibleIS2_S0_E5valueEvE4typeE
FN:312,_ZNK7testing15AssertionResultcvbEv
FN:417,_ZN7testing4Test14SetUpTestSuiteEv
FN:427,_ZN7testing4Test17TearDownTestSuiteEv
FN:431,_ZN7testing4Test16TearDownTestCaseEv
FN:432,_ZN7testing4Test13SetUpTestCaseEv
FN:513,_ZN7testing4Test5SetupEv
FNDA:0,_ZN7testing15AssertionResultD2Ev
FNDA:0,_ZN7testing15AssertionResultC2IbEERKT_PNSt9enable_ifIXntsrSt14is_convertibleIS2_S0_E5valueEvE4typeE
FNDA:0,_ZNK7testing15AssertionResultcvbEv
FNDA:0,_ZN7testing4Test14SetUpTestSuiteEv
FNDA:0,_ZN7testing4Test17TearDownTestSuiteEv
FNDA:0,_ZN7testing4Test16TearDownTestCaseEv
FNDA:0,_ZN7testing4Test13SetUpTestCaseEv
FNDA:0,_ZN7testing4Test5SetupEv
FNF:8
FNH:0
DA:275,0
DA:293,0
DA:299,0
DA:312,0
DA:417,0
DA:427,0
DA:431,0
DA:432,0
DA:513,0
LF:9
LH:0
end_of_record
SF:/home/fyulita/Desktop/tpi/algo1-TPI/lib/googletest-master/googletest/include/gtest/internal/gtest-internal.h
FN:442,_ZN7testing8internal15TestFactoryBaseD0Ev
FN:442,_ZN7testing8internal15TestFactoryBaseD2Ev
FN:449,_ZN7testing8internal15TestFactoryBaseC2Ev
FN:458,_ZN7testing8internal15TestFactoryImplI84sonPixelesConectadosTest_PixelesEnVerticalAlRevesSeparadosNoEstanConectadosAdy4_TestEC2Ev
FN:458,_ZN7testing8internal15TestFactoryImplI68sonPixelesConectadosTest_PixelesEnCaminoAdy4EstanConectadosAdy8_TestED2Ev
FN:458,_ZN7testing8internal15TestFactoryImplI81sonPixelesConectadosTest_PixelesConectadosPorMuchosPixelesParaTodosLadosAdy4_TestED2Ev
FN:458,_ZN7testing8internal15TestFactoryImplI66sonPixelesConectadosTest_PixelesEnDiagonalEstanConectadosAdy8_TestEC2Ev
FN:458,_ZN7testing8internal15TestFactoryImplI79sonPixelesConectadosTest_PixelesEnHorizontalSeparadosNoEstanConectadosAdy4_TestEC2Ev
FN:458,_ZN7testing8internal15TestFactoryImplI77sonPixelesConectadosTest_PixelesConectadosPorMuchosPixelesVerticalesAdy4_TestED0Ev
FN:458,_ZN7testing8internal15TestFactoryImplI67sonPixelesConectadosTest_PixelesSeparadosNoEstanConectadosAdy8_TestED2Ev
FN:458,_ZN7testing8internal15TestFactoryImplI73sonPixelesConectadosTest_PixelesEnCaminoLargoAdy4EstanConectadosAdy4_TestEC2Ev
FN:458,_ZN7testing8internal15TestFactoryImplI68sonPixelesConectadosTest_PixelesEnHorizontalEstanConectadosAdy4_TestEC2Ev
FN:458,_ZN7testing8internal15TestFactoryImplI73sonPixelesConectadosTest_PixelesEnCaminoLargoAdy4EstanConectadosAdy4_TestED2Ev
FN:458,_ZN7testing8internal15TestFactoryImplI67sonPixelesConectadosTest_PixelesSeparadosNoEstanConectadosAdy8_TestED0Ev
FN:458,_ZN7testing8internal15TestFactoryImplI77sonPixelesConectadosTest_PixelesConectadosPorMuchosPixelesVerticalesAdy4_TestED2Ev
FN:458,_ZN7testing8internal15TestFactoryImplI86sonPixelesConectadosTest_PixelesEnHorizontalAlRevesSeparadosNoEstanConectadosAdy4_TestEC2Ev
FN:458,_ZN7testing8internal15TestFactoryImplI79sonPixelesConectadosTest_PixelesEnHorizontalSeparadosNoEstanConectadosAdy4_TestED0Ev
FN:458,_ZN7testing8internal15TestFactoryImplI66sonPixelesConectadosTest_PixelesEnDiagonalEstanConectadosAdy8_TestED0Ev
FN:458,_ZN7testing8internal15TestFactoryImplI73sonPixelesConectadosTest_PixelesEnCaminoLargoAdy8EstanConectadosAdy8_TestEC2Ev
FN:458,_ZN7testing8internal15TestFactoryImplI86sonPixelesConectadosTest_PixelesEnHorizontalAlRevesSeparadosNoEstanConectadosAdy4_TestED0Ev
FN:458,_ZN7testing8internal15TestFactoryImplI84sonPixelesConectadosTest_PixelesEnVerticalAlRevesSeparadosNoEstanConectadosAdy4_TestED0Ev
FN:458,_ZN7testing8internal15TestFactoryImplI77sonPixelesConectadosTest_PixelesConectadosPorMuchosPixelesVerticalesAdy4_TestEC2Ev
FN:458,_ZN7testing8internal15TestFactoryImplI77sonPixelesConectadosTest_PixelesEnVerticalSeparadosNoEstanConectadosAdy4_TestED0Ev
FN:458,_ZN7testing8internal15TestFactoryImplI66sonPixelesConectadosTest_PixelesEnDiagonalEstanConectadosAdy8_TestED2Ev
FN:458,_ZN7testing8internal15TestFactoryImplI73sonPixelesConectadosTest_PixelesEnCaminoLargoAdy8EstanConectadosAdy8_TestED0Ev
FN:458,_ZN7testing8internal15TestFactoryImplI69sonPixelesConectadosTest_PixelesConectadosPorUnPixelVerticalAdy4_TestED0Ev
FN:458,_ZN7testing8internal15TestFactoryImplI68sonPixelesConectadosTest_PixelesEnHorizontalEstanConectadosAdy4_TestED0Ev
FN:458,_ZN7testing8internal15TestFactoryImplI62sonPixelesConectadosTest_PixelesEnAdy4EstanConectadosAdy8_TestED2Ev
FN:458,_ZN7testing8internal15TestFactoryImplI68sonPixelesConectadosTest_PixelesEnCaminoAdy8EstanConectadosAdy8_TestED2Ev
FN:458,_ZN7testing8internal15TestFactoryImplI86sonPixelesConectadosTest_PixelesEnHorizontalAlRevesSeparadosNoEstanConectadosAdy4_TestED2Ev
FN:458,_ZN7testing8internal15TestFactoryImplI73sonPixelesConectadosTest_PixelesEnCaminoLargoAdy8EstanConectadosAdy8_TestED2Ev
FN:458,_ZN7testing8internal15TestFactoryImplI68sonPixelesConectadosTest_PixelesEnCaminoAdy8EstanConectadosAdy8_TestED0Ev
FN:458,_ZN7testing8internal15TestFactoryImplI68sonPixelesConectadosTest_PixelesEnHorizontalEstanConectadosAdy4_TestED2Ev
FN:458,_ZN7testing8internal15TestFactoryImplI68sonPixelesConectadosTest_PixelesEnCaminoAdy8EstanConectadosAdy8_TestEC2Ev
FN:458,_ZN7testing8internal15TestFactoryImplI62sonPixelesConectadosTest_PixelesEnAdy4EstanConectadosAdy8_TestED0Ev
FN:458,_ZN7testing8internal15TestFactoryImplI81sonPixelesConectadosTest_PixelesConectadosPorMuchosPixelesParaTodosLadosAdy4_TestED0Ev
FN:458,_ZN7testing8internal15TestFactoryImplI69sonPixelesConectadosTest_PixelesConectadosPorUnPixelVerticalAdy4_TestED2Ev
FN:458,_ZN7testing8internal15TestFactoryImplI62sonPixelesConectadosTest_PixelesEnAdy4EstanConectadosAdy8_TestEC2Ev
FN:458,_ZN7testing8internal15TestFactoryImplI79sonPixelesConectadosTest_PixelesEnHorizontalSeparadosNoEstanConectadosAdy4_TestED2Ev
FN:458,_ZN7testing8internal15TestFactoryImplI75sonPixelesConectadosTest_PixelesEnCaminoLargoAdy8NoEstanConectadosAdy4_TestEC2Ev
FN:458,_ZN7testing8internal15TestFactoryImplI67sonPixelesConectadosTest_PixelesSeparadosNoEstanConectadosAdy8_TestEC2Ev
FN:458,_ZN7testing8internal15TestFactoryImplI77sonPixelesConectadosTest_PixelesEnVerticalSeparadosNoEstanConectadosAdy4_TestED2Ev
FN:458,_ZN7testing8internal15TestFactoryImplI68sonPixelesConectadosTest_PixelesEnDiagonalNoEstanConectadosAdy4_TestEC2Ev
FN:458,_ZN7testing8internal15TestFactoryImplI75sonPixelesConectadosTest_PixelesEnCaminoLargoAdy8NoEstanConectadosAdy4_TestED0Ev
FN:458,_ZN7testing8internal15TestFactoryImplI77sonPixelesConectadosTest_PixelesEnVerticalSeparadosNoEstanConectadosAdy4_TestEC2Ev
FN:458,_ZN7testing8internal15TestFactoryImplI73sonPixelesConectadosTest_PixelesEnCaminoLargoAdy4EstanConectadosAdy4_TestED0Ev
FN:458,_ZN7testing8internal15TestFactoryImplI84sonPixelesConectadosTest_PixelesEnVerticalAlRevesSeparadosNoEstanConectadosAdy4_TestED2Ev
FN:458,_ZN7testing8internal15TestFactoryImplI68sonPixelesConectadosTest_PixelesEnCaminoAdy4EstanConectadosAdy8_TestED0Ev
FN:458,_ZN7testing8internal15TestFactoryImplI81sonPixelesConectadosTest_PixelesConectadosPorMuchosPixelesParaTodosLadosAdy4_TestEC2Ev
FN:458,_ZN7testing8internal15TestFactoryImplI69sonPixelesConectadosTest_PixelesConectadosPorUnPixelVerticalAdy4_TestEC2Ev
FN:458,_ZN7testing8internal15TestFactoryImplI68sonPixelesConectadosTest_PixelesEnCaminoAdy4EstanConectadosAdy8_TestEC2Ev
FN:458,_ZN7testing8internal15TestFactoryImplI68sonPixelesConectadosTest_PixelesEnDiagonalNoEstanConectadosAdy4_TestED0Ev
FN:458,_ZN7testing8internal15TestFactoryImplI68sonPixelesConectadosTest_PixelesEnDiagonalNoEstanConectadosAdy4_TestED2Ev
FN:458,_ZN7testing8internal15TestFactoryImplI75sonPixelesConectadosTest_PixelesEnCaminoLargoAdy8NoEstanConectadosAdy4_TestED2Ev
FN:460,_ZN7testing8internal15TestFactoryImplI68sonPixelesConectadosTest_PixelesEnCaminoAdy8EstanConectadosAdy8_TestE10CreateTestEv
FN:460,_ZN7testing8internal15TestFactoryImplI81sonPixelesConectadosTest_PixelesConectadosPorMuchosPixelesParaTodosLadosAdy4_TestE10CreateTestEv
FN:460,_ZN7testing8internal15TestFactoryImplI67sonPixelesConectadosTest_PixelesSeparadosNoEstanConectadosAdy8_TestE10CreateTestEv
FN:460,_ZN7testing8internal15TestFactoryImplI68sonPixelesConectadosTest_PixelesEnCaminoAdy4EstanConectadosAdy8_TestE10CreateTestEv
FN:460,_ZN7testing8internal15TestFactoryImplI77sonPixelesConectadosTest_PixelesConectadosPorMuchosPixelesVerticalesAdy4_TestE10CreateTestEv
FN:460,_ZN7testing8internal15TestFactoryImplI68sonPixelesConectadosTest_PixelesEnDiagonalNoEstanConectadosAdy4_TestE10CreateTestEv
FN:460,_ZN7testing8internal15TestFactoryImplI77sonPixelesConectadosTest_PixelesEnVerticalSeparadosNoEstanConectadosAdy4_TestE10CreateTestEv
FN:460,_ZN7testing8internal15TestFactoryImplI73sonPixelesConectadosTest_PixelesEnCaminoLargoAdy8EstanConectadosAdy8_TestE10CreateTestEv
FN:460,_ZN7testing8internal15TestFactoryImplI69sonPixelesConectadosTest_PixelesConectadosPorUnPixelVerticalAdy4_TestE10CreateTestEv
FN:460,_ZN7testing8internal15TestFactoryImplI73sonPixelesConectadosTest_PixelesEnCaminoLargoAdy4EstanConectadosAdy4_TestE10CreateTestEv
FN:460,_ZN7testing8internal15TestFactoryImplI84sonPixelesConectadosTest_PixelesEnVerticalAlRevesSeparadosNoEstanConectadosAdy4_TestE10CreateTestEv
FN:460,_ZN7testing8internal15TestFactoryImplI62sonPixelesConectadosTest_PixelesEnAdy4EstanConectadosAdy8_TestE10CreateTestEv
FN:460,_ZN7testing8internal15TestFactoryImplI79sonPixelesConectadosTest_PixelesEnHorizontalSeparadosNoEstanConectadosAdy4_TestE10CreateTestEv
FN:460,_ZN7testing8internal15TestFactoryImplI66sonPixelesConectadosTest_PixelesEnDiagonalEstanConectadosAdy8_TestE10CreateTestEv
FN:460,_ZN7testing8internal15TestFactoryImplI86sonPixelesConectadosTest_PixelesEnHorizontalAlRevesSeparadosNoEstanConectadosAdy4_TestE10CreateTestEv
FN:460,_ZN7testing8internal15TestFactoryImplI75sonPixelesConectadosTest_PixelesEnCaminoLargoAdy8NoEstanConectadosAdy4_TestE10CreateTestEv
FN:460,_ZN7testing8internal15TestFactoryImplI68sonPixelesConectadosTest_PixelesEnHorizontalEstanConectadosAdy4_TestE10CreateTestEv
FN:480,_ZN7testing8internal12CodeLocationD2Ev
FN:481,_ZN7testing8internal12CodeLocationC2ERKNSt7__cxx1112basic_stringIcSt11char_traitsIcESaIcEEEi
FN:494,_ZN7testing8internal19GetNotDefaultOrNullEPFvvES2_
FN:509,_ZN7testing8internal16SuiteApiResolverINS_4TestEE19GetSetUpCaseOrSuiteEPKci
FN:524,_ZN7testing8internal16SuiteApiResolverINS_4TestEE22GetTearDownCaseOrSuiteEPKci
FNDA:0,_ZN7testing8internal15TestFactoryBaseD0Ev
FNDA:0,_ZN7testing8internal15TestFactoryBaseD2Ev
FNDA:0,_ZN7testing8internal15TestFactoryBaseC2Ev
FNDA:12,_ZN7testing8internal15TestFactoryImplI68sonPixelesConectadosTest_PixelesEnDiagonalNoEstanConectadosAdy4_TestED0Ev
FNDA:12,_ZN7testing8internal15TestFactoryImplI68sonPixelesConectadosTest_PixelesEnDiagonalNoEstanConectadosAdy4_TestED2Ev
FNDA:12,_ZN7testing8internal15TestFactoryImplI68sonPixelesConectadosTest_PixelesEnHorizontalEstanConectadosAdy4_TestED0Ev
FNDA:12,_ZN7testing8internal15TestFactoryImplI68sonPixelesConectadosTest_PixelesEnHorizontalEstanConectadosAdy4_TestED2Ev
FNDA:12,_ZN7testing8internal15TestFactoryImplI79sonPixelesConectadosTest_PixelesEnHorizontalSeparadosNoEstanConectadosAdy4_TestED0Ev
FNDA:12,_ZN7testing8internal15TestFactoryImplI79sonPixelesConectadosTest_PixelesEnHorizontalSeparadosNoEstanConectadosAdy4_TestED2Ev
FNDA:12,_ZN7testing8internal15TestFactoryImplI77sonPixelesConectadosTest_PixelesEnVerticalSeparadosNoEstanConectadosAdy4_TestED0Ev
FNDA:12,_ZN7testing8internal15TestFactoryImplI77sonPixelesConectadosTest_PixelesEnVerticalSeparadosNoEstanConectadosAdy4_TestED2Ev
FNDA:12,_ZN7testing8internal15TestFactoryImplI86sonPixelesConectadosTest_PixelesEnHorizontalAlRevesSeparadosNoEstanConectadosAdy4_TestED0Ev
FNDA:12,_ZN7testing8internal15TestFactoryImplI86sonPixelesConectadosTest_PixelesEnHorizontalAlRevesSeparadosNoEstanConectadosAdy4_TestED2Ev
FNDA:12,_ZN7testing8internal15TestFactoryImplI84sonPixelesConectadosTest_PixelesEnVerticalAlRevesSeparadosNoEstanConectadosAdy4_TestED0Ev
FNDA:12,_ZN7testing8internal15TestFactoryImplI84sonPixelesConectadosTest_PixelesEnVerticalAlRevesSeparadosNoEstanConectadosAdy4_TestED2Ev
FNDA:12,_ZN7testing8internal15TestFactoryImplI69sonPixelesConectadosTest_PixelesConectadosPorUnPixelVerticalAdy4_TestED0Ev
FNDA:12,_ZN7testing8internal15TestFactoryImplI69sonPixelesConectadosTest_PixelesConectadosPorUnPixelVerticalAdy4_TestED2Ev
FNDA:12,_ZN7testing8internal15TestFactoryImplI77sonPixelesConectadosTest_PixelesConectadosPorMuchosPixelesVerticalesAdy4_TestED0Ev
FNDA:12,_ZN7testing8internal15TestFactoryImplI77sonPixelesConectadosTest_PixelesConectadosPorMuchosPixelesVerticalesAdy4_TestED2Ev
FNDA:12,_ZN7testing8internal15TestFactoryImplI81sonPixelesConectadosTest_PixelesConectadosPorMuchosPixelesParaTodosLadosAdy4_TestED0Ev
FNDA:12,_ZN7testing8internal15TestFactoryImplI81sonPixelesConectadosTest_PixelesConectadosPorMuchosPixelesParaTodosLadosAdy4_TestED2Ev
FNDA:12,_ZN7testing8internal15TestFactoryImplI66sonPixelesConectadosTest_PixelesEnDiagonalEstanConectadosAdy8_TestED0Ev
FNDA:12,_ZN7testing8internal15TestFactoryImplI66sonPixelesConectadosTest_PixelesEnDiagonalEstanConectadosAdy8_TestED2Ev
FNDA:12,_ZN7testing8internal15TestFactoryImplI67sonPixelesConectadosTest_PixelesSeparadosNoEstanConectadosAdy8_TestED0Ev
FNDA:12,_ZN7testing8internal15TestFactoryImplI67sonPixelesConectadosTest_PixelesSeparadosNoEstanConectadosAdy8_TestED2Ev
FNDA:12,_ZN7testing8internal15TestFactoryImplI62sonPixelesConectadosTest_PixelesEnAdy4EstanConectadosAdy8_TestED0Ev
FNDA:12,_ZN7testing8internal15TestFactoryImplI62sonPixelesConectadosTest_PixelesEnAdy4EstanConectadosAdy8_TestED2Ev
FNDA:12,_ZN7testing8internal15TestFactoryImplI68sonPixelesConectadosTest_PixelesEnCaminoAdy4EstanConectadosAdy8_TestED0Ev
FNDA:12,_ZN7testing8internal15TestFactoryImplI68sonPixelesConectadosTest_PixelesEnCaminoAdy4EstanConectadosAdy8_TestED2Ev
FNDA:12,_ZN7testing8internal15TestFactoryImplI68sonPixelesConectadosTest_PixelesEnCaminoAdy8EstanConectadosAdy8_TestED0Ev
FNDA:12,_ZN7testing8internal15TestFactoryImplI68sonPixelesConectadosTest_PixelesEnCaminoAdy8EstanConectadosAdy8_TestED2Ev
FNDA:12,_ZN7testing8internal15TestFactoryImplI73sonPixelesConectadosTest_PixelesEnCaminoLargoAdy8EstanConectadosAdy8_TestED0Ev
FNDA:12,_ZN7testing8internal15TestFactoryImplI73sonPixelesConectadosTest_PixelesEnCaminoLargoAdy8EstanConectadosAdy8_TestED2Ev
FNDA:12,_ZN7testing8internal15TestFactoryImplI75sonPixelesConectadosTest_PixelesEnCaminoLargoAdy8NoEstanConectadosAdy4_TestED0Ev
FNDA:12,_ZN7testing8internal15TestFactoryImplI75sonPixelesConectadosTest_PixelesEnCaminoLargoAdy8NoEstanConectadosAdy4_TestED2Ev
FNDA:12,_ZN7testing8internal15TestFactoryImplI73sonPixelesConectadosTest_PixelesEnCaminoLargoAdy4EstanConectadosAdy4_TestED0Ev
FNDA:12,_ZN7testing8internal15TestFactoryImplI73sonPixelesConectadosTest_PixelesEnCaminoLargoAdy4EstanConectadosAdy4_TestED2Ev
FNDA:12,_ZN7testing8internal15TestFactoryImplI73sonPixelesConectadosTest_PixelesEnCaminoLargoAdy4EstanConectadosAdy4_TestEC2Ev
FNDA:12,_ZN7testing8internal15TestFactoryImplI75sonPixelesConectadosTest_PixelesEnCaminoLargoAdy8NoEstanConectadosAdy4_TestEC2Ev
FNDA:12,_ZN7testing8internal15TestFactoryImplI73sonPixelesConectadosTest_PixelesEnCaminoLargoAdy8EstanConectadosAdy8_TestEC2Ev
FNDA:12,_ZN7testing8internal15TestFactoryImplI68sonPixelesConectadosTest_PixelesEnCaminoAdy8EstanConectadosAdy8_TestEC2Ev
FNDA:12,_ZN7testing8internal15TestFactoryImplI68sonPixelesConectadosTest_PixelesEnCaminoAdy4EstanConectadosAdy8_TestEC2Ev
FNDA:12,_ZN7testing8internal15TestFactoryImplI62sonPixelesConectadosTest_PixelesEnAdy4EstanConectadosAdy8_TestEC2Ev
FNDA:12,_ZN7testing8internal15TestFactoryImplI67sonPixelesConectadosTest_PixelesSeparadosNoEstanConectadosAdy8_TestEC2Ev
FNDA:12,_ZN7testing8internal15TestFactoryImplI66sonPixelesConectadosTest_PixelesEnDiagonalEstanConectadosAdy8_TestEC2Ev
FNDA:12,_ZN7testing8internal15TestFactoryImplI81sonPixelesConectadosTest_PixelesConectadosPorMuchosPixelesParaTodosLadosAdy4_TestEC2Ev
FNDA:12,_ZN7testing8internal15TestFactoryImplI77sonPixelesConectadosTest_PixelesConectadosPorMuchosPixelesVerticalesAdy4_TestEC2Ev
FNDA:12,_ZN7testing8internal15TestFactoryImplI69sonPixelesConectadosTest_PixelesConectadosPorUnPixelVerticalAdy4_TestEC2Ev
FNDA:12,_ZN7testing8internal15TestFactoryImplI84sonPixelesConectadosTest_PixelesEnVerticalAlRevesSeparadosNoEstanConectadosAdy4_TestEC2Ev
FNDA:12,_ZN7testing8internal15TestFactoryImplI86sonPixelesConectadosTest_PixelesEnHorizontalAlRevesSeparadosNoEstanConectadosAdy4_TestEC2Ev
FNDA:12,_ZN7testing8internal15TestFactoryImplI77sonPixelesConectadosTest_PixelesEnVerticalSeparadosNoEstanConectadosAdy4_TestEC2Ev
FNDA:12,_ZN7testing8internal15TestFactoryImplI79sonPixelesConectadosTest_PixelesEnHorizontalSeparadosNoEstanConectadosAdy4_TestEC2Ev
FNDA:12,_ZN7testing8internal15TestFactoryImplI68sonPixelesConectadosTest_PixelesEnHorizontalEstanConectadosAdy4_TestEC2Ev
FNDA:12,_ZN7testing8internal15TestFactoryImplI68sonPixelesConectadosTest_PixelesEnDiagonalNoEstanConectadosAdy4_TestEC2Ev
FNDA:4,_ZN7testing8internal15TestFactoryImplI68sonPixelesConectadosTest_PixelesEnDiagonalNoEstanConectadosAdy4_TestE10CreateTestEv
FNDA:4,_ZN7testing8internal15TestFactoryImplI68sonPixelesConectadosTest_PixelesEnHorizontalEstanConectadosAdy4_TestE10CreateTestEv
FNDA:4,_ZN7testing8internal15TestFactoryImplI79sonPixelesConectadosTest_PixelesEnHorizontalSeparadosNoEstanConectadosAdy4_TestE10CreateTestEv
FNDA:4,_ZN7testing8internal15TestFactoryImplI77sonPixelesConectadosTest_PixelesEnVerticalSeparadosNoEstanConectadosAdy4_TestE10CreateTestEv
FNDA:4,_ZN7testing8internal15TestFactoryImplI86sonPixelesConectadosTest_PixelesEnHorizontalAlRevesSeparadosNoEstanConectadosAdy4_TestE10CreateTestEv
FNDA:4,_ZN7testing8internal15TestFactoryImplI84sonPixelesConectadosTest_PixelesEnVerticalAlRevesSeparadosNoEstanConectadosAdy4_TestE10CreateTestEv
FNDA:4,_ZN7testing8internal15TestFactoryImplI69sonPixelesConectadosTest_PixelesConectadosPorUnPixelVerticalAdy4_TestE10CreateTestEv
FNDA:4,_ZN7testing8internal15TestFactoryImplI77sonPixelesConectadosTest_PixelesConectadosPorMuchosPixelesVerticalesAdy4_TestE10CreateTestEv
FNDA:4,_ZN7testing8internal15TestFactoryImplI81sonPixelesConectadosTest_PixelesConectadosPorMuchosPixelesParaTodosLadosAdy4_TestE10CreateTestEv
FNDA:4,_ZN7testing8internal15TestFactoryImplI66sonPixelesConectadosTest_PixelesEnDiagonalEstanConectadosAdy8_TestE10CreateTestEv
FNDA:4,_ZN7testing8internal15TestFactoryImplI67sonPixelesConectadosTest_PixelesSeparadosNoEstanConectadosAdy8_TestE10CreateTestEv
FNDA:4,_ZN7testing8internal15TestFactoryImplI62sonPixelesConectadosTest_PixelesEnAdy4EstanConectadosAdy8_TestE10CreateTestEv
FNDA:4,_ZN7testing8internal15TestFactoryImplI68sonPixelesConectadosTest_PixelesEnCaminoAdy4EstanConectadosAdy8_TestE10CreateTestEv
FNDA:4,_ZN7testing8internal15TestFactoryImplI68sonPixelesConectadosTest_PixelesEnCaminoAdy8EstanConectadosAdy8_TestE10CreateTestEv
FNDA:4,_ZN7testing8internal15TestFactoryImplI73sonPixelesConectadosTest_PixelesEnCaminoLargoAdy8EstanConectadosAdy8_TestE10CreateTestEv
FNDA:4,_ZN7testing8internal15TestFactoryImplI75sonPixelesConectadosTest_PixelesEnCaminoLargoAdy8NoEstanConectadosAdy4_TestE10CreateTestEv
FNDA:4,_ZN7testing8internal15TestFactoryImplI73sonPixelesConectadosTest_PixelesEnCaminoLargoAdy4EstanConectadosAdy4_TestE10CreateTestEv
FNDA:0,_ZN7testing8internal12CodeLocationD2Ev
FNDA:0,_ZN7testing8internal12CodeLocationC2ERKNSt7__cxx1112basic_stringIcSt11char_traitsIcESaIcEEEi
FNDA:0,_ZN7testing8internal19GetNotDefaultOrNullEPFvvES2_
FNDA:0,_ZN7testing8internal16SuiteApiResolverINS_4TestEE19GetSetUpCaseOrSuiteEPKci
FNDA:0,_ZN7testing8internal16SuiteApiResolverINS_4TestEE22GetTearDownCaseOrSuiteEPKci
FNF:76
FNH:68
DA:442,0
DA:449,0
DA:458,612
DA:460,68
DA:480,0
DA:481,0
DA:482,0
DA:494,0
DA:496,0
DA:509,0
DA:511,0
DA:513,0
DA:516,0
DA:519,0
DA:521,0
DA:524,0
DA:526,0
DA:528,0
DA:531,0
DA:534,0
DA:536,0
LF:21
LH:2
end_of_record
SF:/home/fyulita/Desktop/tpi/algo1-TPI/lib/googletest-master/googletest/include/gtest/internal/gtest-port.h
FN:942,_ZN7testing8internal8GTestLog9GetStreamEv
FNDA:0,_ZN7testing8internal8GTestLog9GetStreamEv
FNF:1
FNH:0
DA:942,0
LF:1
LH:0
end_of_record
SF:/home/fyulita/Desktop/tpi/algo1-TPI/tests/ej2TEST.cpp
FN:4,_ZN68sonPixelesConectadosTest_PixelesEnDiagonalNoEstanConectadosAdy4_TestD2Ev
FN:4,_ZN68sonPixelesConectadosTest_PixelesEnDiagonalNoEstanConectadosAdy4_Test8TestBodyEv
FN:4,_ZN68sonPixelesConectadosTest_PixelesEnDiagonalNoEstanConectadosAdy4_TestC2Ev
FN:4,_ZN68sonPixelesConectadosTest_PixelesEnDiagonalNoEstanConectadosAdy4_TestD0Ev
FN:14,_ZN68sonPixelesConectadosTest_PixelesEnHorizontalEstanConectadosAdy4_Test8TestBodyEv
FN:14,_ZN68sonPixelesConectadosTest_PixelesEnHorizontalEstanConectadosAdy4_TestC2Ev
FN:14,_ZN68sonPixelesConectadosTest_PixelesEnHorizontalEstanConectadosAdy4_TestD2Ev
FN:14,_ZN68sonPixelesConectadosTest_PixelesEnHorizontalEstanConectadosAdy4_TestD0Ev
FN:21,_ZN79sonPixelesConectadosTest_PixelesEnHorizontalSeparadosNoEstanConectadosAdy4_TestD2Ev
FN:21,_ZN79sonPixelesConectadosTest_PixelesEnHorizontalSeparadosNoEstanConectadosAdy4_Test8TestBodyEv
FN:21,_ZN79sonPixelesConectadosTest_PixelesEnHorizontalSeparadosNoEstanConectadosAdy4_TestD0Ev
FN:21,_ZN79sonPixelesConectadosTest_PixelesEnHorizontalSeparadosNoEstanConectadosAdy4_TestC2Ev
FN:28,_ZN77sonPixelesConectadosTest_PixelesEnVerticalSeparadosNoEstanConectadosAdy4_TestC2Ev
FN:28,_ZN77sonPixelesConectadosTest_PixelesEnVerticalSeparadosNoEstanConectadosAdy4_TestD0Ev
FN:28,_ZN77sonPixelesConectadosTest_PixelesEnVerticalSeparadosNoEstanConectadosAdy4_Test8TestBodyEv
FN:28,_ZN77sonPixelesConectadosTest_PixelesEnVerticalSeparadosNoEstanConectadosAdy4_TestD2Ev
FN:35,_ZN86sonPixelesConectadosTest_PixelesEnHorizontalAlRevesSeparadosNoEstanConectadosAdy4_TestD2Ev
FN:35,_ZN86sonPixelesConectadosTest_PixelesEnHorizontalAlRevesSeparadosNoEstanConectadosAdy4_Test8TestBodyEv
FN:35,_ZN86sonPixelesConectadosTest_PixelesEnHorizontalAlRevesSeparadosNoEstanConectadosAdy4_TestD0Ev
FN:35,_ZN86sonPixelesConectadosTest_PixelesEnHorizontalAlRevesSeparadosNoEstanConectadosAdy4_TestC2Ev
FN:42,_ZN84sonPixelesConectadosTest_PixelesEnVerticalAlRevesSeparadosNoEstanConectadosAdy4_TestD0Ev
FN:42,_ZN84sonPixelesConectadosTest_PixelesEnVerticalAlRevesSeparadosNoEstanConectadosAdy4_Test8TestBodyEv
FN:42,_ZN84sonPixelesConectadosTest_PixelesEnVerticalAlRevesSeparadosNoEstanConectadosAdy4_TestD2Ev
FN:42,_ZN84sonPixelesConectadosTest_PixelesEnVerticalAlRevesSeparadosNoEstanConectadosAdy4_TestC2Ev
FN:49,_ZN69sonPixelesConectadosTest_PixelesConectadosPorUnPixelVerticalAdy4_TestD0Ev
FN:49,_ZN69sonPixelesConectadosTest_PixelesConectadosPorUnPixelVerticalAdy4_TestD2Ev
FN:49,_ZN69sonPixelesConectadosTest_PixelesConectadosPorUnPixelVerticalAdy4_Test8TestBodyEv
FN:49,_ZN69sonPixelesConectadosTest_PixelesConectadosPorUnPixelVerticalAdy4_TestC2Ev
FN:56,_ZN77sonPixelesConectadosTest_PixelesConectadosPorMuchosPixelesVerticalesAdy4_TestC2Ev
FN:56,_ZN77sonPixelesConectadosTest_PixelesConectadosPorMuchosPixelesVerticalesAdy4_Test8TestBodyEv
FN:56,_ZN77sonPixelesConectadosTest_PixelesConectadosPorMuchosPixelesVerticalesAdy4_TestD2Ev
FN:56,_ZN77sonPixelesConectadosTest_PixelesConectadosPorMuchosPixelesVerticalesAdy4_TestD0Ev
FN:63,_ZN81sonPixelesConectadosTest_PixelesConectadosPorMuchosPixelesParaTodosLadosAdy4_TestD0Ev
FN:63,_ZN81sonPixelesConectadosTest_PixelesConectadosPorMuchosPixelesParaTodosLadosAdy4_Test8TestBodyEv
FN:63,_ZN81sonPixelesConectadosTest_PixelesConectadosPorMuchosPixelesParaTodosLadosAdy4_TestD2Ev
FN:63,_ZN81sonPixelesConectadosTest_PixelesConectadosPorMuchosPixelesParaTodosLadosAdy4_TestC2Ev
FN:76,_ZN66sonPixelesConectadosTest_PixelesEnDiagonalEstanConectadosAdy8_TestC2Ev
FN:76,_ZN66sonPixelesConectadosTest_PixelesEnDiagonalEstanConectadosAdy8_Test8TestBodyEv
FN:76,_ZN66sonPixelesConectadosTest_PixelesEnDiagonalEstanConectadosAdy8_TestD0Ev
FN:76,_ZN66sonPixelesConectadosTest_PixelesEnDiagonalEstanConectadosAdy8_TestD2Ev
FN:86,_ZN67sonPixelesConectadosTest_PixelesSeparadosNoEstanConectadosAdy8_TestD2Ev
FN:86,_ZN67sonPixelesConectadosTest_PixelesSeparadosNoEstanConectadosAdy8_Test8TestBodyEv
FN:86,_ZN67sonPixelesConectadosTest_PixelesSeparadosNoEstanConectadosAdy8_TestD0Ev
FN:86,_ZN67sonPixelesConectadosTest_PixelesSeparadosNoEstanConectadosAdy8_TestC2Ev
FN:97,_ZN62sonPixelesConectadosTest_PixelesEnAdy4EstanConectadosAdy8_TestC2Ev
FN:97,_ZN62sonPixelesConectadosTest_PixelesEnAdy4EstanConectadosAdy8_TestD2Ev
FN:97,_ZN62sonPixelesConectadosTest_PixelesEnAdy4EstanConectadosAdy8_Test8TestBodyEv
FN:97,_ZN62sonPixelesConectadosTest_PixelesEnAdy4EstanConectadosAdy8_TestD0Ev
FN:106,_ZN68sonPixelesConectadosTest_PixelesEnCaminoAdy4EstanConectadosAdy8_TestC2Ev
FN:106,_ZN68sonPixelesConectadosTest_PixelesEnCaminoAdy4EstanConectadosAdy8_TestD0Ev
FN:106,_ZN68sonPixelesConectadosTest_PixelesEnCaminoAdy4EstanConectadosAdy8_TestD2Ev
FN:106,_ZN68sonPixelesConectadosTest_PixelesEnCaminoAdy4EstanConectadosAdy8_Test8TestBodyEv
FN:117,_ZN68sonPixelesConectadosTest_PixelesEnCaminoAdy8EstanConectadosAdy8_TestD0Ev
FN:117,_ZN68sonPixelesConectadosTest_PixelesEnCaminoAdy8EstanConectadosAdy8_Test8TestBodyEv
FN:117,_ZN68sonPixelesConectadosTest_PixelesEnCaminoAdy8EstanConectadosAdy8_TestC2Ev
FN:117,_ZN68sonPixelesConectadosTest_PixelesEnCaminoAdy8EstanConectadosAdy8_TestD2Ev
FN:128,_ZN73sonPixelesConectadosTest_PixelesEnCaminoLargoAdy8EstanConectadosAdy8_TestC2Ev
FN:128,_ZN73sonPixelesConectadosTest_PixelesEnCaminoLargoAdy8EstanConectadosAdy8_Test8TestBodyEv
FN:128,_ZN73sonPixelesConectadosTest_PixelesEnCaminoLargoAdy8EstanConectadosAdy8_TestD2Ev
FN:128,_ZN73sonPixelesConectadosTest_PixelesEnCaminoLargoAdy8EstanConectadosAdy8_TestD0Ev
FN:141,_ZN75sonPixelesConectadosTest_PixelesEnCaminoLargoAdy8NoEstanConectadosAdy4_TestD0Ev
FN:141,_ZN75sonPixelesConectadosTest_PixelesEnCaminoLargoAdy8NoEstanConectadosAdy4_TestC2Ev
FN:141,_ZN75sonPixelesConectadosTest_PixelesEnCaminoLargoAdy8NoEstanConectadosAdy4_Test8TestBodyEv
FN:141,_ZN75sonPixelesConectadosTest_PixelesEnCaminoLargoAdy8NoEstanConectadosAdy4_TestD2Ev
FN:154,_ZN73sonPixelesConectadosTest_PixelesEnCaminoLargoAdy4EstanConectadosAdy4_TestC2Ev
FN:154,_ZN73sonPixelesConectadosTest_PixelesEnCaminoLargoAdy4EstanConectadosAdy4_TestD0Ev
FN:154,_ZN73sonPixelesConectadosTest_PixelesEnCaminoLargoAdy4EstanConectadosAdy4_TestD2Ev
FN:154,_ZN73sonPixelesConectadosTest_PixelesEnCaminoLargoAdy4EstanConectadosAdy4_Test8TestBodyEv
FN:165,_GLOBAL__sub_I__ZN68sonPixelesConectadosTest_PixelesEnDiagonalNoEstanConectadosAdy4_Test10test_info_E
FN:165,_Z41__static_initialization_and_destruction_0ii
FNDA:4,_ZN68sonPixelesConectadosTest_PixelesEnDiagonalNoEstanConectadosAdy4_TestD0Ev
FNDA:4,_ZN68sonPixelesConectadosTest_PixelesEnDiagonalNoEstanConectadosAdy4_TestD2Ev
FNDA:4,_ZN68sonPixelesConectadosTest_PixelesEnDiagonalNoEstanConectadosAdy4_Test8TestBodyEv
FNDA:4,_ZN68sonPixelesConectadosTest_PixelesEnDiagonalNoEstanConectadosAdy4_TestC2Ev
FNDA:4,_ZN68sonPixelesConectadosTest_PixelesEnHorizontalEstanConectadosAdy4_TestD0Ev
FNDA:4,_ZN68sonPixelesConectadosTest_PixelesEnHorizontalEstanConectadosAdy4_TestD2Ev
FNDA:4,_ZN68sonPixelesConectadosTest_PixelesEnHorizontalEstanConectadosAdy4_Test8TestBodyEv
FNDA:4,_ZN68sonPixelesConectadosTest_PixelesEnHorizontalEstanConectadosAdy4_TestC2Ev
FNDA:4,_ZN79sonPixelesConectadosTest_PixelesEnHorizontalSeparadosNoEstanConectadosAdy4_TestD0Ev
FNDA:4,_ZN79sonPixelesConectadosTest_PixelesEnHorizontalSeparadosNoEstanConectadosAdy4_TestD2Ev
FNDA:4,_ZN79sonPixelesConectadosTest_PixelesEnHorizontalSeparadosNoEstanConectadosAdy4_Test8TestBodyEv
FNDA:4,_ZN79sonPixelesConectadosTest_PixelesEnHorizontalSeparadosNoEstanConectadosAdy4_TestC2Ev
FNDA:4,_ZN77sonPixelesConectadosTest_PixelesEnVerticalSeparadosNoEstanConectadosAdy4_TestD0Ev
FNDA:4,_ZN77sonPixelesConectadosTest_PixelesEnVerticalSeparadosNoEstanConectadosAdy4_TestD2Ev
FNDA:4,_ZN77sonPixelesConectadosTest_PixelesEnVerticalSeparadosNoEstanConectadosAdy4_Test8TestBodyEv
FNDA:4,_ZN77sonPixelesConectadosTest_PixelesEnVerticalSeparadosNoEstanConectadosAdy4_TestC2Ev
FNDA:4,_ZN86sonPixelesConectadosTest_PixelesEnHorizontalAlRevesSeparadosNoEstanConectadosAdy4_TestD0Ev
FNDA:4,_ZN86sonPixelesConectadosTest_PixelesEnHorizontalAlRevesSeparadosNoEstanConectadosAdy4_TestD2Ev
FNDA:4,_ZN86sonPixelesConectadosTest_PixelesEnHorizontalAlRevesSeparadosNoEstanConectadosAdy4_Test8TestBodyEv
FNDA:4,_ZN86sonPixelesConectadosTest_PixelesEnHorizontalAlRevesSeparadosNoEstanConectadosAdy4_TestC2Ev
FNDA:4,_ZN84sonPixelesConectadosTest_PixelesEnVerticalAlRevesSeparadosNoEstanConectadosAdy4_TestD0Ev
FNDA:4,_ZN84sonPixelesConectadosTest_PixelesEnVerticalAlRevesSeparadosNoEstanConectadosAdy4_TestD2Ev
FNDA:4,_ZN84sonPixelesConectadosTest_PixelesEnVerticalAlRevesSeparadosNoEstanConectadosAdy4_Test8TestBodyEv
FNDA:4,_ZN84sonPixelesConectadosTest_PixelesEnVerticalAlRevesSeparadosNoEstanConectadosAdy4_TestC2Ev
FNDA:4,_ZN69sonPixelesConectadosTest_PixelesConectadosPorUnPixelVerticalAdy4_TestD0Ev
FNDA:4,_ZN69sonPixelesConectadosTest_PixelesConectadosPorUnPixelVerticalAdy4_TestD2Ev
FNDA:4,_ZN69sonPixelesConectadosTest_PixelesConectadosPorUnPixelVerticalAdy4_Test8TestBodyEv
FNDA:4,_ZN69sonPixelesConectadosTest_PixelesConectadosPorUnPixelVerticalAdy4_TestC2Ev
FNDA:4,_ZN77sonPixelesConectadosTest_PixelesConectadosPorMuchosPixelesVerticalesAdy4_TestD0Ev
FNDA:4,_ZN77sonPixelesConectadosTest_PixelesConectadosPorMuchosPixelesVerticalesAdy4_TestD2Ev
FNDA:4,_ZN77sonPixelesConectadosTest_PixelesConectadosPorMuchosPixelesVerticalesAdy4_Test8TestBodyEv
FNDA:4,_ZN77sonPixelesConectadosTest_PixelesConectadosPorMuchosPixelesVerticalesAdy4_TestC2Ev
FNDA:4,_ZN81sonPixelesConectadosTest_PixelesConectadosPorMuchosPixelesParaTodosLadosAdy4_TestD0Ev
FNDA:4,_ZN81sonPixelesConectadosTest_PixelesConectadosPorMuchosPixelesParaTodosLadosAdy4_TestD2Ev
FNDA:4,_ZN81sonPixelesConectadosTest_PixelesConectadosPorMuchosPixelesParaTodosLadosAdy4_Test8TestBodyEv
FNDA:4,_ZN81sonPixelesConectadosTest_PixelesConectadosPorMuchosPixelesParaTodosLadosAdy4_TestC2Ev
FNDA:4,_ZN66sonPixelesConectadosTest_PixelesEnDiagonalEstanConectadosAdy8_TestD0Ev
FNDA:4,_ZN66sonPixelesConectadosTest_PixelesEnDiagonalEstanConectadosAdy8_TestD2Ev
FNDA:4,_ZN66sonPixelesConectadosTest_PixelesEnDiagonalEstanConectadosAdy8_Test8TestBodyEv
FNDA:4,_ZN66sonPixelesConectadosTest_PixelesEnDiagonalEstanConectadosAdy8_TestC2Ev
FNDA:4,_ZN67sonPixelesConectadosTest_PixelesSeparadosNoEstanConectadosAdy8_TestD0Ev
FNDA:4,_ZN67sonPixelesConectadosTest_PixelesSeparadosNoEstanConectadosAdy8_TestD2Ev
FNDA:4,_ZN67sonPixelesConectadosTest_PixelesSeparadosNoEstanConectadosAdy8_Test8TestBodyEv
FNDA:4,_ZN67sonPixelesConectadosTest_PixelesSeparadosNoEstanConectadosAdy8_TestC2Ev
FNDA:4,_ZN62sonPixelesConectadosTest_PixelesEnAdy4EstanConectadosAdy8_TestD0Ev
FNDA:4,_ZN62sonPixelesConectadosTest_PixelesEnAdy4EstanConectadosAdy8_TestD2Ev
FNDA:4,_ZN62sonPixelesConectadosTest_PixelesEnAdy4EstanConectadosAdy8_Test8TestBodyEv
FNDA:4,_ZN62sonPixelesConectadosTest_PixelesEnAdy4EstanConectadosAdy8_TestC2Ev
FNDA:4,_ZN68sonPixelesConectadosTest_PixelesEnCaminoAdy4EstanConectadosAdy8_TestD0Ev
FNDA:4,_ZN68sonPixelesConectadosTest_PixelesEnCaminoAdy4EstanConectadosAdy8_TestD2Ev
FNDA:4,_ZN68sonPixelesConectadosTest_PixelesEnCaminoAdy4EstanConectadosAdy8_Test8TestBodyEv
FNDA:4,_ZN68sonPixelesConectadosTest_PixelesEnCaminoAdy4EstanConectadosAdy8_TestC2Ev
FNDA:4,_ZN68sonPixelesConectadosTest_PixelesEnCaminoAdy8EstanConectadosAdy8_TestD0Ev
FNDA:4,_ZN68sonPixelesConectadosTest_PixelesEnCaminoAdy8EstanConectadosAdy8_TestD2Ev
FNDA:4,_ZN68sonPixelesConectadosTest_PixelesEnCaminoAdy8EstanConectadosAdy8_Test8TestBodyEv
FNDA:4,_ZN68sonPixelesConectadosTest_PixelesEnCaminoAdy8EstanConectadosAdy8_TestC2Ev
FNDA:4,_ZN73sonPixelesConectadosTest_PixelesEnCaminoLargoAdy8EstanConectadosAdy8_TestD0Ev
FNDA:4,_ZN73sonPixelesConectadosTest_PixelesEnCaminoLargoAdy8EstanConectadosAdy8_TestD2Ev
FNDA:4,_ZN73sonPixelesConectadosTest_PixelesEnCaminoLargoAdy8EstanConectadosAdy8_Test8TestBodyEv
FNDA:4,_ZN73sonPixelesConectadosTest_PixelesEnCaminoLargoAdy8EstanConectadosAdy8_TestC2Ev
FNDA:4,_ZN75sonPixelesConectadosTest_PixelesEnCaminoLargoAdy8NoEstanConectadosAdy4_TestD0Ev
FNDA:4,_ZN75sonPixelesConectadosTest_PixelesEnCaminoLargoAdy8NoEstanConectadosAdy4_TestD2Ev
FNDA:4,_ZN75sonPixelesConectadosTest_PixelesEnCaminoLargoAdy8NoEstanConectadosAdy4_Test8TestBodyEv
FNDA:4,_ZN75sonPixelesConectadosTest_PixelesEnCaminoLargoAdy8NoEstanConectadosAdy4_TestC2Ev
FNDA:4,_ZN73sonPixelesConectadosTest_PixelesEnCaminoLargoAdy4EstanConectadosAdy4_TestD0Ev
FNDA:4,_ZN73sonPixelesConectadosTest_PixelesEnCaminoLargoAdy4EstanConectadosAdy4_TestD2Ev
FNDA:4,_ZN73sonPixelesConectadosTest_PixelesEnCaminoLargoAdy4EstanConectadosAdy4_Test8TestBodyEv
FNDA:4,_ZN73sonPixelesConectadosTest_PixelesEnCaminoLargoAdy4EstanConectadosAdy4_TestC2Ev
FNDA:12,_GLOBAL__sub_I__ZN68sonPixelesConectadosTest_PixelesEnDiagonalNoEstanConectadosAdy4_Test10test_info_E
FNDA:12,_Z41__static_initialization_and_destruction_0ii
FNF:70
FNH:70
DA:4,28
DA:8,8
DA:9,8
DA:10,8
DA:11,4
DA:12,4
DA:14,28
DA:15,8
DA:16,8
DA:17,8
DA:18,4
DA:19,4
DA:21,28
DA:22,8
DA:23,8
DA:24,8
DA:25,4
DA:26,4
DA:28,28
DA:29,8
DA:30,8
DA:31,8
DA:32,4
DA:33,4
DA:35,28
DA:36,8
DA:37,8
DA:38,8
DA:39,4
DA:40,4
DA:42,28
DA:43,8
DA:44,8
DA:45,8
DA:46,4
DA:47,4
DA:49,28
DA:50,8
DA:51,8
DA:52,8
DA:53,4
DA:54,4
DA:56,28
DA:57,8
DA:58,8
DA:59,8
DA:60,4
DA:61,4
DA:63,28
DA:70,8
DA:71,8
DA:72,8
DA:73,4
DA:74,4
DA:76,28
DA:80,8
DA:81,8
DA:82,8
DA:83,4
DA:84,4
DA:86,28
DA:91,8
DA:92,8
DA:93,8
DA:94,4
DA:95,4
DA:97,28
DA:100,8
DA:101,8
DA:102,8
DA:103,4
DA:104,4
DA:106,28
DA:111,8
DA:112,8
DA:113,8
DA:114,4
DA:115,4
DA:117,28
DA:122,8
DA:123,8
DA:124,8
DA:125,4
DA:126,4
DA:128,28
DA:135,8
DA:136,8
DA:137,8
DA:138,4
DA:139,4
DA:141,28
DA:148,8
DA:149,8
DA:150,8
DA:151,4
DA:152,4
DA:154,28
DA:161,8
DA:162,8
DA:163,8
DA:164,4
DA:165,40
LF:102
LH:102
end_of_record
SF:/usr/include/c++/7/bits/alloc_traits.h
FN:435,_ZNSt16allocator_traitsISaISt6vectorIiSaIiEEEE8allocateERS3_m
FN:435,_ZNSt16allocator_traitsISaIiEE8allocateERS0_m
FN:461,_ZNSt16allocator_traitsISaIiEE10deallocateERS0_Pim
FN:461,_ZNSt16allocator_traitsISaISt6vectorIiSaIiEEEE10deallocateERS3_PS2_m
FN:504,_ZNSt16allocator_traitsISaIiEE37select_on_container_copy_constructionERKS0_
FNDA:0,_ZNSt16allocator_traitsISaISt6vectorIiSaIiEEEE8allocateERS3_m
FNDA:0,_ZNSt16allocator_traitsISaIiEE8allocateERS0_m
FNDA:0,_ZNSt16allocator_traitsISaISt6vectorIiSaIiEEEE10deallocateERS3_PS2_m
FNDA:0,_ZNSt16allocator_traitsISaIiEE10deallocateERS0_Pim
FNDA:0,_ZNSt16allocator_traitsISaIiEE37select_on_container_copy_constructionERKS0_
FNF:5
FNH:0
DA:435,0
DA:436,0
DA:461,0
DA:462,0
DA:504,0
DA:505,0
LF:6
LH:0
end_of_record
SF:/usr/include/c++/7/bits/allocator.h
FN:131,_ZNSaISt6vectorIiSaIiEEEC2Ev
FN:131,_ZNSaIiEC2Ev
FN:133,_ZNSaIiEC2ERKS_
FN:133,_ZNSaISt6vectorIiSaIiEEEC2ERKS2_
FN:139,_ZNSaIiED2Ev
FN:139,_ZNSaISt6vectorIiSaIiEEED2Ev
FNDA:0,_ZNSaISt6vectorIiSaIiEEEC2Ev
FNDA:0,_ZNSaIiEC2Ev
FNDA:0,_ZNSaISt6vectorIiSaIiEEEC2ERKS2_
FNDA:0,_ZNSaIiEC2ERKS_
FNDA:0,_ZNSaISt6vectorIiSaIiEEED2Ev
FNDA:0,_ZNSaIiED2Ev
FNF:6
FNH:0
DA:131,0
DA:133,0
DA:134,0
DA:139,0
LF:4
LH:0
end_of_record
SF:/usr/include/c++/7/bits/cpp_type_traits.h
FN:408,_ZSt12__miter_baseIN9__gnu_cxx17__normal_iteratorIPKiSt6vectorIiSaIiEEEEET_S8_
FN:408,_ZSt12__miter_baseIPKiET_S2_
FNDA:0,_ZSt12__miter_baseIN9__gnu_cxx17__normal_iteratorIPKiSt6vectorIiSaIiEEEEET_S8_
FNDA:0,_ZSt12__miter_baseIPKiET_S2_
FNF:2
FNH:0
DA:408,0
DA:409,0
LF:2
LH:0
end_of_record
SF:/usr/include/c++/7/bits/move.h
FN:47,_ZSt11__addressofISt6vectorIiSaIiEEEPT_RS3_
FN:73,_ZSt7forwardIRKSt6vectorIiSaIiEEEOT_RNSt16remove_referenceIS5_E4typeE
FNDA:0,_ZSt11__addressofISt6vectorIiSaIiEEEPT_RS3_
FNDA:0,_ZSt7forwardIRKSt6vectorIiSaIiEEEOT_RNSt16remove_referenceIS5_E4typeE
FNF:2
FNH:0
DA:47,0
DA:48,0
DA:73,0
DA:74,0
LF:4
LH:0
end_of_record
SF:/usr/include/c++/7/bits/stl_algobase.h
FN:277,_ZSt12__niter_baseIPKiET_S2_
FN:277,_ZSt12__niter_baseIPiET_S1_
FN:357,_ZNSt11__copy_moveILb0ELb1ESt26random_access_iterator_tagE8__copy_mIiEEPT_PKS3_S6_S4_
FN:375,_ZSt13__copy_move_aILb0EPKiPiET1_T0_S4_S3_
FN:420,_ZSt14__copy_move_a2ILb0EPKiPiET1_T0_S4_S3_
FN:420,_ZSt14__copy_move_a2ILb0EN9__gnu_cxx17__normal_iteratorIPKiSt6vectorIiSaIiEEEEPiET1_T0_SA_S9_
FN:446,_ZSt4copyIPKiPiET0_T_S4_S3_
FN:446,_ZSt4copyIN9__gnu_cxx17__normal_iteratorIPKiSt6vectorIiSaIiEEEEPiET0_T_SA_S9_
FNDA:0,_ZSt12__niter_baseIPiET_S1_
FNDA:0,_ZSt12__niter_baseIPKiET_S2_
FNDA:0,_ZNSt11__copy_moveILb0ELb1ESt26random_access_iterator_tagE8__copy_mIiEEPT_PKS3_S6_S4_
FNDA:0,_ZSt13__copy_move_aILb0EPKiPiET1_T0_S4_S3_
FNDA:0,_ZSt14__copy_move_a2ILb0EN9__gnu_cxx17__normal_iteratorIPKiSt6vectorIiSaIiEEEEPiET1_T0_SA_S9_
FNDA:0,_ZSt14__copy_move_a2ILb0EPKiPiET1_T0_S4_S3_
FNDA:0,_ZSt4copyIN9__gnu_cxx17__normal_iteratorIPKiSt6vectorIiSaIiEEEEPiET0_T_SA_S9_
FNDA:0,_ZSt4copyIPKiPiET0_T_S4_S3_
FNF:8
FNH:0
DA:277,0
DA:278,0
DA:357,0
DA:366,0
DA:367,0
DA:368,0
DA:369,0
DA:375,0
DA:380,0
DA:386,0
DA:420,0
DA:422,0
DA:424,0
DA:446,0
DA:455,0
DA:456,0
LF:16
LH:0
end_of_record
SF:/usr/include/c++/7/bits/stl_construct.h
FN:74,_ZSt10_ConstructISt6vectorIiSaIiEEJRKS2_EEvPT_DpOT0_
FN:97,_ZSt8_DestroyISt6vectorIiSaIiEEEvPT_
FN:105,_ZNSt12_Destroy_auxILb0EE9__destroyIPSt6vectorIiSaIiEEEEvT_S6_
FN:117,_ZNSt12_Destroy_auxILb1EE9__destroyIPiEEvT_S3_
FN:127,_ZSt8_DestroyIPSt6vectorIiSaIiEEEvT_S4_
FN:127,_ZSt8_DestroyIPiEvT_S1_
FN:203,_ZSt8_DestroyIPSt6vectorIiSaIiEES2_EvT_S4_RSaIT0_E
FN:203,_ZSt8_DestroyIPiiEvT_S1_RSaIT0_E
FNDA:0,_ZSt10_ConstructISt6vectorIiSaIiEEJRKS2_EEvPT_DpOT0_
FNDA:0,_ZSt8_DestroyISt6vectorIiSaIiEEEvPT_
FNDA:0,_ZNSt12_Destroy_auxILb0EE9__destroyIPSt6vectorIiSaIiEEEEvT_S6_
FNDA:0,_ZNSt12_Destroy_auxILb1EE9__destroyIPiEEvT_S3_
FNDA:0,_ZSt8_DestroyIPSt6vectorIiSaIiEEEvT_S4_
FNDA:0,_ZSt8_DestroyIPiEvT_S1_
FNDA:0,_ZSt8_DestroyIPSt6vectorIiSaIiEES2_EvT_S4_RSaIT0_E
FNDA:0,_ZSt8_DestroyIPiiEvT_S1_RSaIT0_E
FNF:8
FNH:0
DA:74,0
DA:75,0
DA:97,0
DA:98,0
DA:105,0
DA:107,0
DA:108,0
DA:109,0
DA:117,0
DA:127,0
DA:137,0
DA:138,0
DA:203,0
DA:206,0
DA:207,0
LF:15
LH:0
end_of_record
SF:/usr/include/c++/7/bits/stl_iterator.h
FN:782,_ZN9__gnu_cxx17__normal_iteratorIPKiSt6vectorIiSaIiEEEC2ERKS2_
FN:847,_ZNK9__gnu_cxx17__normal_iteratorIPKiSt6vectorIiSaIiEEE4baseEv
FN:986,_ZSt12__niter_baseIPKiSt6vectorIiSaIiEEET_N9__gnu_cxx17__normal_iteratorIS5_T0_EE
FNDA:0,_ZN9__gnu_cxx17__normal_iteratorIPKiSt6vectorIiSaIiEEEC2ERKS2_
FNDA:0,_ZNK9__gnu_cxx17__normal_iteratorIPKiSt6vectorIiSaIiEEE4baseEv
FNDA:0,_ZSt12__niter_baseIPKiSt6vectorIiSaIiEEET_N9__gnu_cxx17__normal_iteratorIS5_T0_EE
FNF:3
FNH:0
DA:782,0
DA:783,0
DA:847,0
DA:848,0
DA:986,0
DA:987,0
LF:6
LH:0
end_of_record
SF:/usr/include/c++/7/bits/stl_iterator_base_funcs.h
FN:98,_ZSt10__distanceIPKiENSt15iterator_traitsIT_E15difference_typeES3_S3_St26random_access_iterator_tag
FN:98,_ZSt10__distanceIPKSt6vectorIiSaIiEEENSt15iterator_traitsIT_E15difference_typeES6_S6_St26random_access_iterator_tag
FN:138,_ZSt8distanceIPKSt6vectorIiSaIiEEENSt15iterator_traitsIT_E15difference_typeES6_S6_
FN:138,_ZSt8distanceIPKiENSt15iterator_traitsIT_E15difference_typeES3_S3_
FNDA:0,_ZSt10__distanceIPKSt6vectorIiSaIiEEENSt15iterator_traitsIT_E15difference_typeES6_S6_St26random_access_iterator_tag
FNDA:0,_ZSt10__distanceIPKiENSt15iterator_traitsIT_E15difference_typeES3_S3_St26random_access_iterator_tag
FNDA:0,_ZSt8distanceIPKSt6vectorIiSaIiEEENSt15iterator_traitsIT_E15difference_typeES6_S6_
FNDA:0,_ZSt8distanceIPKiENSt15iterator_traitsIT_E15difference_typeES3_S3_
FNF:4
FNH:0
DA:98,0
DA:104,0
DA:138,0
DA:141,0
DA:142,0
LF:5
LH:0
end_of_record
SF:/usr/include/c++/7/bits/stl_iterator_base_types.h
FN:205,_ZSt19__iterator_categoryIPKSt6vectorIiSaIiEEENSt15iterator_traitsIT_E17iterator_categoryERKS6_
FN:205,_ZSt19__iterator_categoryIPKiENSt15iterator_traitsIT_E17iterator_categoryERKS3_
FNDA:0,_ZSt19__iterator_categoryIPKSt6vectorIiSaIiEEENSt15iterator_traitsIT_E17iterator_categoryERKS6_
FNDA:0,_ZSt19__iterator_categoryIPKiENSt15iterator_traitsIT_E17iterator_categoryERKS3_
FNF:2
FNH:0
DA:205,0
DA:206,0
LF:2
LH:0
end_of_record
SF:/usr/include/c++/7/bits/stl_uninitialized.h
FN:76,_ZNSt20__uninitialized_copyILb0EE13__uninit_copyIPKSt6vectorIiSaIiEEPS4_EET0_T_S9_S8_
FN:99,_ZNSt20__uninitialized_copyILb1EE13__uninit_copyIPKiPiEET0_T_S6_S5_
FN:99,_ZNSt20__uninitialized_copyILb1EE13__uninit_copyIN9__gnu_cxx17__normal_iteratorIPKiSt6vectorIiSaIiEEEEPiEET0_T_SC_SB_
FN:115,_ZSt18uninitialized_copyIPKSt6vectorIiSaIiEEPS2_ET0_T_S7_S6_
FN:115,_ZSt18uninitialized_copyIPKiPiET0_T_S4_S3_
FN:115,_ZSt18uninitialized_copyIN9__gnu_cxx17__normal_iteratorIPKiSt6vectorIiSaIiEEEEPiET0_T_SA_S9_
FN:287,_ZSt22__uninitialized_copy_aIPKiPiiET0_T_S4_S3_RSaIT1_E
FN:287,_ZSt22__uninitialized_copy_aIPKSt6vectorIiSaIiEEPS2_S2_ET0_T_S7_S6_RSaIT1_E
FN:287,_ZSt22__uninitialized_copy_aIN9__gnu_cxx17__normal_iteratorIPKiSt6vectorIiSaIiEEEEPiiET0_T_SA_S9_RSaIT1_E
FNDA:0,_ZNSt20__uninitialized_copyILb0EE13__uninit_copyIPKSt6vectorIiSaIiEEPS4_EET0_T_S9_S8_
FNDA:0,_ZNSt20__uninitialized_copyILb1EE13__uninit_copyIN9__gnu_cxx17__normal_iteratorIPKiSt6vectorIiSaIiEEEEPiEET0_T_SC_SB_
FNDA:0,_ZNSt20__uninitialized_copyILb1EE13__uninit_copyIPKiPiEET0_T_S6_S5_
FNDA:0,_ZSt18uninitialized_copyIN9__gnu_cxx17__normal_iteratorIPKiSt6vectorIiSaIiEEEEPiET0_T_SA_S9_
FNDA:0,_ZSt18uninitialized_copyIPKSt6vectorIiSaIiEEPS2_ET0_T_S7_S6_
FNDA:0,_ZSt18uninitialized_copyIPKiPiET0_T_S4_S3_
FNDA:0,_ZSt22__uninitialized_copy_aIN9__gnu_cxx17__normal_iteratorIPKiSt6vectorIiSaIiEEEEPiiET0_T_SA_S9_RSaIT1_E
FNDA:0,_ZSt22__uninitialized_copy_aIPKSt6vectorIiSaIiEEPS2_S2_ET0_T_S7_S6_RSaIT1_E
FNDA:0,_ZSt22__uninitialized_copy_aIPKiPiiET0_T_S4_S3_RSaIT1_E
FNF:9
FNH:0
DA:76,0
DA:79,0
DA:82,0
DA:83,0
DA:84,0
DA:86,0
DA:88,0
DA:89,0
DA:99,0
DA:101,0
DA:115,0
DA:128,0
DA:134,0
DA:287,0
DA:289,0
LF:15
LH:0
end_of_record
SF:/usr/include/c++/7/bits/stl_vector.h
FN:81,_ZNSt12_Vector_baseIiSaIiEE12_Vector_implD2Ev
FN:81,_ZNSt12_Vector_baseISt6vectorIiSaIiEESaIS2_EE12_Vector_implD2Ev
FN:92,_ZNSt12_Vector_baseISt6vectorIiSaIiEESaIS2_EE12_Vector_implC2ERKS3_
FN:92,_ZNSt12_Vector_baseIiSaIiEE12_Vector_implC2ERKS0_
FN:115,_ZNSt12_Vector_baseIiSaIiEE19_M_get_Tp_allocatorEv
FN:115,_ZNSt12_Vector_baseISt6vectorIiSaIiEESaIS2_EE19_M_get_Tp_allocatorEv
FN:119,_ZNKSt12_Vector_baseIiSaIiEE19_M_get_Tp_allocatorEv
FN:129,_ZNSt12_Vector_baseIiSaIiEEC2ERKS0_
FN:129,_ZNSt12_Vector_baseISt6vectorIiSaIiEESaIS2_EEC2ERKS3_
FN:136,_ZNSt12_Vector_baseIiSaIiEEC2EmRKS0_
FN:161,_ZNSt12_Vector_baseISt6vectorIiSaIiEESaIS2_EED2Ev
FN:161,_ZNSt12_Vector_baseIiSaIiEED2Ev
FN:169,_ZNSt12_Vector_baseIiSaIiEE11_M_allocateEm
FN:169,_ZNSt12_Vector_baseISt6vectorIiSaIiEESaIS2_EE11_M_allocateEm
FN:176,_ZNSt12_Vector_baseISt6vectorIiSaIiEESaIS2_EE13_M_deallocateEPS2_m
FN:176,_ZNSt12_Vector_baseIiSaIiEE13_M_deallocateEPim
FN:185,_ZNSt12_Vector_baseIiSaIiEE17_M_create_storageEm
FN:326,_ZNSt6vectorIiSaIiEEC2ERKS1_
FN:383,_ZNSt6vectorIiSaIiEEC2ESt16initializer_listIiERKS0_
FN:383,_ZNSt6vectorIS_IiSaIiEESaIS1_EEC2ESt16initializer_listIS1_ERKS2_
FN:433,_ZNSt6vectorIS_IiSaIiEESaIS1_EED2Ev
FN:433,_ZNSt6vectorIiSaIiEED2Ev
FN:572,_ZNKSt6vectorIiSaIiEE5beginEv
FN:590,_ZNKSt6vectorIiSaIiEE3endEv
FN:670,_ZNKSt6vectorIiSaIiEE4sizeEv
FN:1324,_ZNSt6vectorIS_IiSaIiEESaIS1_EE19_M_range_initializeIPKS1_EEvT_S7_St20forward_iterator_tag
FN:1324,_ZNSt6vectorIiSaIiEE19_M_range_initializeIPKiEEvT_S5_St20forward_iterator_tag
FNDA:0,_ZNSt12_Vector_baseISt6vectorIiSaIiEESaIS2_EE12_Vector_implD2Ev
FNDA:0,_ZNSt12_Vector_baseIiSaIiEE12_Vector_implD2Ev
FNDA:0,_ZNSt12_Vector_baseISt6vectorIiSaIiEESaIS2_EE12_Vector_implC2ERKS3_
FNDA:0,_ZNSt12_Vector_baseIiSaIiEE12_Vector_implC2ERKS0_
FNDA:0,_ZNSt12_Vector_baseISt6vectorIiSaIiEESaIS2_EE19_M_get_Tp_allocatorEv
FNDA:0,_ZNSt12_Vector_baseIiSaIiEE19_M_get_Tp_allocatorEv
FNDA:0,_ZNKSt12_Vector_baseIiSaIiEE19_M_get_Tp_allocatorEv
FNDA:0,_ZNSt12_Vector_baseISt6vectorIiSaIiEESaIS2_EEC2ERKS3_
FNDA:0,_ZNSt12_Vector_baseIiSaIiEEC2ERKS0_
FNDA:0,_ZNSt12_Vector_baseIiSaIiEEC2EmRKS0_
FNDA:0,_ZNSt12_Vector_baseISt6vectorIiSaIiEESaIS2_EED2Ev
FNDA:0,_ZNSt12_Vector_baseIiSaIiEED2Ev
FNDA:0,_ZNSt12_Vector_baseISt6vectorIiSaIiEESaIS2_EE11_M_allocateEm
FNDA:0,_ZNSt12_Vector_baseIiSaIiEE11_M_allocateEm
FNDA:0,_ZNSt12_Vector_baseISt6vectorIiSaIiEESaIS2_EE13_M_deallocateEPS2_m
FNDA:0,_ZNSt12_Vector_baseIiSaIiEE13_M_deallocateEPim
FNDA:0,_ZNSt12_Vector_baseIiSaIiEE17_M_create_storageEm
FNDA:0,_ZNSt6vectorIiSaIiEEC2ERKS1_
FNDA:0,_ZNSt6vectorIS_IiSaIiEESaIS1_EEC2ESt16initializer_listIS1_ERKS2_
FNDA:0,_ZNSt6vectorIiSaIiEEC2ESt16initializer_listIiERKS0_
FNDA:0,_ZNSt6vectorIS_IiSaIiEESaIS1_EED2Ev
FNDA:0,_ZNSt6vectorIiSaIiEED2Ev
FNDA:0,_ZNKSt6vectorIiSaIiEE5beginEv
FNDA:0,_ZNKSt6vectorIiSaIiEE3endEv
FNDA:0,_ZNKSt6vectorIiSaIiEE4sizeEv
FNDA:0,_ZNSt6vectorIS_IiSaIiEESaIS1_EE19_M_range_initializeIPKS1_EEvT_S7_St20forward_iterator_tag
FNDA:0,_ZNSt6vectorIiSaIiEE19_M_range_initializeIPKiEEvT_S5_St20forward_iterator_tag
FNF:27
FNH:0
DA:81,0
DA:92,0
DA:93,0
DA:94,0
DA:115,0
DA:116,0
DA:119,0
DA:120,0
DA:129,0
DA:130,0
DA:136,0
DA:137,0
DA:138,0
DA:161,0
DA:162,0
DA:163,0
DA:169,0
DA:172,0
DA:176,0
DA:179,0
DA:180,0
DA:181,0
DA:185,0
DA:187,0
DA:188,0
DA:189,0
DA:190,0
DA:326,0
DA:328,0
DA:330,0
DA:331,0
DA:333,0
DA:334,0
DA:383,0
DA:385,0
DA:387,0
DA:389,0
DA:433,0
DA:434,0
DA:435,0
DA:572,0
DA:573,0
DA:590,0
DA:591,0
DA:670,0
DA:671,0
DA:1324,0
DA:1327,0
DA:1328,0
DA:1329,0
DA:1330,0
DA:1331,0
DA:1333,0
DA:1334,0
LF:54
LH:0
end_of_record
SF:/usr/include/c++/7/bits/unique_ptr.h
FN:72,_ZNKSt14default_deleteINSt7__cxx1112basic_stringIcSt11char_traitsIcESaIcEEEEclEPS5_
FN:72,_ZNKSt14default_deleteINSt7__cxx1118basic_stringstreamIcSt11char_traitsIcESaIcEEEEclEPS5_
FN:139,_ZNSt15__uniq_ptr_implINSt7__cxx1112basic_stringIcSt11char_traitsIcESaIcEEESt14default_deleteIS5_EEC2Ev
FN:146,_ZNSt15__uniq_ptr_implINSt7__cxx1112basic_stringIcSt11char_traitsIcESaIcEEESt14default_deleteIS5_EE6_M_ptrEv
FN:146,_ZNSt15__uniq_ptr_implINSt7__cxx1118basic_stringstreamIcSt11char_traitsIcESaIcEEESt14default_deleteIS5_EE6_M_ptrEv
FN:148,_ZNSt15__uniq_ptr_implINSt7__cxx1118basic_stringstreamIcSt11char_traitsIcESaIcEEESt14default_deleteIS5_EE10_M_deleterEv
FN:148,_ZNSt15__uniq_ptr_implINSt7__cxx1112basic_stringIcSt11char_traitsIcESaIcEEESt14default_deleteIS5_EE10_M_deleterEv
FN:188,_ZNSt10unique_ptrINSt7__cxx1112basic_stringIcSt11char_traitsIcESaIcEEESt14default_deleteIS5_EEC2IS7_vEEv
FN:264,_ZNSt10unique_ptrINSt7__cxx1118basic_stringstreamIcSt11char_traitsIcESaIcEEESt14default_deleteIS5_EED2Ev
FN:264,_ZNSt10unique_ptrINSt7__cxx1112basic_stringIcSt11char_traitsIcESaIcEEESt14default_deleteIS5_EED2Ev
FN:341,_ZNSt10unique_ptrINSt7__cxx1112basic_stringIcSt11char_traitsIcESaIcEEESt14default_deleteIS5_EE11get_deleterEv
FN:341,_ZNSt10unique_ptrINSt7__cxx1118basic_stringstreamIcSt11char_traitsIcESaIcEEESt14default_deleteIS5_EE11get_deleterEv
FNDA:0,_ZNKSt14default_deleteINSt7__cxx1112basic_stringIcSt11char_traitsIcESaIcEEEEclEPS5_
FNDA:0,_ZNKSt14default_deleteINSt7__cxx1118basic_stringstreamIcSt11char_traitsIcESaIcEEEEclEPS5_
FNDA:0,_ZNSt15__uniq_ptr_implINSt7__cxx1112basic_stringIcSt11char_traitsIcESaIcEEESt14default_deleteIS5_EEC2Ev
FNDA:0,_ZNSt15__uniq_ptr_implINSt7__cxx1112basic_stringIcSt11char_traitsIcESaIcEEESt14default_deleteIS5_EE6_M_ptrEv
FNDA:0,_ZNSt15__uniq_ptr_implINSt7__cxx1118basic_stringstreamIcSt11char_traitsIcESaIcEEESt14default_deleteIS5_EE6_M_ptrEv
FNDA:0,_ZNSt15__uniq_ptr_implINSt7__cxx1112basic_stringIcSt11char_traitsIcESaIcEEESt14default_deleteIS5_EE10_M_deleterEv
FNDA:0,_ZNSt15__uniq_ptr_implINSt7__cxx1118basic_stringstreamIcSt11char_traitsIcESaIcEEESt14default_deleteIS5_EE10_M_deleterEv
FNDA:0,_ZNSt10unique_ptrINSt7__cxx1112basic_stringIcSt11char_traitsIcESaIcEEESt14default_deleteIS5_EEC2IS7_vEEv
FNDA:0,_ZNSt10unique_ptrINSt7__cxx1112basic_stringIcSt11char_traitsIcESaIcEEESt14default_deleteIS5_EED2Ev
FNDA:0,_ZNSt10unique_ptrINSt7__cxx1118basic_stringstreamIcSt11char_traitsIcESaIcEEESt14default_deleteIS5_EED2Ev
FNDA:0,_ZNSt10unique_ptrINSt7__cxx1112basic_stringIcSt11char_traitsIcESaIcEEESt14default_deleteIS5_EE11get_deleterEv
FNDA:0,_ZNSt10unique_ptrINSt7__cxx1118basic_stringstreamIcSt11char_traitsIcESaIcEEESt14default_deleteIS5_EE11get_deleterEv
FNF:12
FNH:0
DA:72,0
DA:78,0
DA:79,0
DA:139,0
DA:146,0
DA:148,0
DA:188,0
DA:189,0
DA:190,0
DA:264,0
DA:266,0
DA:267,0
DA:268,0
DA:269,0
DA:270,0
DA:341,0
DA:342,0
LF:17
LH:0
end_of_record
SF:/usr/include/c++/7/ext/alloc_traits.h
FN:94,_ZN9__gnu_cxx14__alloc_traitsISaIiEE17_S_select_on_copyERKS1_
FNDA:0,_ZN9__gnu_cxx14__alloc_traitsISaIiEE17_S_select_on_copyERKS1_
FNF:1
FNH:0
DA:94,0
DA:95,0
LF:2
LH:0
end_of_record
SF:/usr/include/c++/7/ext/new_allocator.h
FN:79,_ZN9__gnu_cxx13new_allocatorISt6vectorIiSaIiEEEC2Ev
FN:79,_ZN9__gnu_cxx13new_allocatorIiEC2Ev
FN:81,_ZN9__gnu_cxx13new_allocatorISt6vectorIiSaIiEEEC2ERKS4_
FN:81,_ZN9__gnu_cxx13new_allocatorIiEC2ERKS1_
FN:86,_ZN9__gnu_cxx13new_allocatorISt6vectorIiSaIiEEED2Ev
FN:86,_ZN9__gnu_cxx13new_allocatorIiED2Ev
FN:99,_ZN9__gnu_cxx13new_allocatorISt6vectorIiSaIiEEE8allocateEmPKv
FN:99,_ZN9__gnu_cxx13new_allocatorIiE8allocateEmPKv
FN:116,_ZN9__gnu_cxx13new_allocatorISt6vectorIiSaIiEEE10deallocateEPS3_m
FN:116,_ZN9__gnu_cxx13new_allocatorIiE10deallocateEPim
FN:129,_ZNK9__gnu_cxx13new_allocatorIiE8max_sizeEv
FN:129,_ZNK9__gnu_cxx13new_allocatorISt6vectorIiSaIiEEE8max_sizeEv
FNDA:0,_ZN9__gnu_cxx13new_allocatorISt6vectorIiSaIiEEEC2Ev
FNDA:0,_ZN9__gnu_cxx13new_allocatorIiEC2Ev
FNDA:0,_ZN9__gnu_cxx13new_allocatorISt6vectorIiSaIiEEEC2ERKS4_
FNDA:0,_ZN9__gnu_cxx13new_allocatorIiEC2ERKS1_
FNDA:0,_ZN9__gnu_cxx13new_allocatorISt6vectorIiSaIiEEED2Ev
FNDA:0,_ZN9__gnu_cxx13new_allocatorIiED2Ev
FNDA:0,_ZN9__gnu_cxx13new_allocatorISt6vectorIiSaIiEEE8allocateEmPKv
FNDA:0,_ZN9__gnu_cxx13new_allocatorIiE8allocateEmPKv
FNDA:0,_ZN9__gnu_cxx13new_allocatorISt6vectorIiSaIiEEE10deallocateEPS3_m
FNDA:0,_ZN9__gnu_cxx13new_allocatorIiE10deallocateEPim
FNDA:0,_ZNK9__gnu_cxx13new_allocatorISt6vectorIiSaIiEEE8max_sizeEv
FNDA:0,_ZNK9__gnu_cxx13new_allocatorIiE8max_sizeEv
FNF:12
FNH:0
DA:79,0
DA:81,0
DA:86,0
DA:99,0
DA:101,0
DA:102,0
DA:111,0
DA:116,0
DA:125,0
DA:126,0
DA:129,0
DA:130,0
LF:12
LH:0
end_of_record
SF:/usr/include/c++/7/initializer_list
FN:71,_ZNKSt16initializer_listIiE4sizeEv
FN:71,_ZNKSt16initializer_listISt6vectorIiSaIiEEE4sizeEv
FN:75,_ZNKSt16initializer_listIiE5beginEv
FN:75,_ZNKSt16initializer_listISt6vectorIiSaIiEEE5beginEv
FN:79,_ZNKSt16initializer_listIiE3endEv
FN:79,_ZNKSt16initializer_listISt6vectorIiSaIiEEE3endEv
FNDA:0,_ZNKSt16initializer_listISt6vectorIiSaIiEEE4sizeEv
FNDA:0,_ZNKSt16initializer_listIiE4sizeEv
FNDA:0,_ZNKSt16initializer_listISt6vectorIiSaIiEEE5beginEv
FNDA:0,_ZNKSt16initializer_listIiE5beginEv
FNDA:0,_ZNKSt16initializer_listISt6vectorIiSaIiEEE3endEv
FNDA:0,_ZNKSt16initializer_listIiE3endEv
FNF:6
FNH:0
DA:71,0
DA:75,0
DA:79,0
LF:3
LH:0
end_of_record
SF:/usr/include/c++/7/iostream
DA:74,12
LF:1
LH:1
end_of_record
SF:/usr/include/c++/7/new
FN:168,_ZnwmPv
FN:174,_ZdlPvS_
FNDA:0,_ZnwmPv
FNDA:0,_ZdlPvS_
FNF:2
FNH:0
DA:168,0
DA:169,0
DA:174,0
LF:3
LH:0
end_of_record
SF:/usr/include/c++/7/tuple
FN:76,_ZNSt10_Head_baseILm1ESt14default_deleteINSt7__cxx1112basic_stringIcSt11char_traitsIcESaIcEEEELb1EEC2Ev
FN:113,_ZNSt10_Head_baseILm1ESt14default_deleteINSt7__cxx1118basic_stringstreamIcSt11char_traitsIcESaIcEEEELb1EE7_M_headERS8_
FN:113,_ZNSt10_Head_baseILm1ESt14default_deleteINSt7__cxx1112basic_stringIcSt11char_traitsIcESaIcEEEELb1EE7_M_headERS8_
FN:122,_ZNSt10_Head_baseILm0EPNSt7__cxx1112basic_stringIcSt11char_traitsIcESaIcEEELb0EEC2Ev
FN:160,_ZNSt10_Head_baseILm0EPNSt7__cxx1112basic_stringIcSt11char_traitsIcESaIcEEELb0EE7_M_headERS7_
FN:160,_ZNSt10_Head_baseILm0EPNSt7__cxx1118basic_stringstreamIcSt11char_traitsIcESaIcEEELb0EE7_M_headERS7_
FN:195,_ZNSt11_Tuple_implILm0EJPNSt7__cxx1112basic_stringIcSt11char_traitsIcESaIcEEESt14default_deleteIS5_EEE7_M_headERS9_
FN:195,_ZNSt11_Tuple_implILm0EJPNSt7__cxx1118basic_stringstreamIcSt11char_traitsIcESaIcEEESt14default_deleteIS5_EEE7_M_headERS9_
FN:206,_ZNSt11_Tuple_implILm0EJPNSt7__cxx1112basic_stringIcSt11char_traitsIcESaIcEEESt14default_deleteIS5_EEEC2Ev
FN:351,_ZNSt11_Tuple_implILm1EJSt14default_deleteINSt7__cxx1118basic_stringstreamIcSt11char_traitsIcESaIcEEEEEE7_M_headERS8_
FN:351,_ZNSt11_Tuple_implILm1EJSt14default_deleteINSt7__cxx1112basic_stringIcSt11char_traitsIcESaIcEEEEEE7_M_headERS8_
FN:356,_ZNSt11_Tuple_implILm1EJSt14default_deleteINSt7__cxx1112basic_stringIcSt11char_traitsIcESaIcEEEEEEC2Ev
FN:919,_ZNSt5tupleIJPNSt7__cxx1112basic_stringIcSt11char_traitsIcESaIcEEESt14default_deleteIS5_EEEC2IS6_S8_Lb1EEEv
FN:1303,_ZSt12__get_helperILm0EPNSt7__cxx1112basic_stringIcSt11char_traitsIcESaIcEEEJSt14default_deleteIS5_EEERT0_RSt11_Tuple_implIXT_EJS9_DpT1_EE
FN:1303,_ZSt12__get_helperILm1ESt14default_deleteINSt7__cxx1112basic_stringIcSt11char_traitsIcESaIcEEEEJEERT0_RSt11_Tuple_implIXT_EJS8_DpT1_EE
FN:1303,_ZSt12__get_helperILm0EPNSt7__cxx1118basic_stringstreamIcSt11char_traitsIcESaIcEEEJSt14default_deleteIS5_EEERT0_RSt11_Tuple_implIXT_EJS9_DpT1_EE
FN:1303,_ZSt12__get_helperILm1ESt14default_deleteINSt7__cxx1118basic_stringstreamIcSt11char_traitsIcESaIcEEEEJEERT0_RSt11_Tuple_implIXT_EJS8_DpT1_EE
FN:1314,_ZSt3getILm1EJPNSt7__cxx1112basic_stringIcSt11char_traitsIcESaIcEEESt14default_deleteIS5_EEERNSt13tuple_elementIXT_ESt5tupleIJDpT0_EEE4typeERSD_
FN:1314,_ZSt3getILm0EJPNSt7__cxx1112basic_stringIcSt11char_traitsIcESaIcEEESt14default_deleteIS5_EEERNSt13tuple_elementIXT_ESt5tupleIJDpT0_EEE4typeERSD_
FN:1314,_ZSt3getILm0EJPNSt7__cxx1118basic_stringstreamIcSt11char_traitsIcESaIcEEESt14default_deleteIS5_EEERNSt13tuple_elementIXT_ESt5tupleIJDpT0_EEE4typeERSD_
FN:1314,_ZSt3getILm1EJPNSt7__cxx1118basic_stringstreamIcSt11char_traitsIcESaIcEEESt14default_deleteIS5_EEERNSt13tuple_elementIXT_ESt5tupleIJDpT0_EEE4typeERSD_
FNDA:0,_ZNSt10_Head_baseILm1ESt14default_deleteINSt7__cxx1112basic_stringIcSt11char_traitsIcESaIcEEEELb1EEC2Ev
FNDA:0,_ZNSt10_Head_baseILm1ESt14default_deleteINSt7__cxx1112basic_stringIcSt11char_traitsIcESaIcEEEELb1EE7_M_headERS8_
FNDA:0,_ZNSt10_Head_baseILm1ESt14default_deleteINSt7__cxx1118basic_stringstreamIcSt11char_traitsIcESaIcEEEELb1EE7_M_headERS8_
FNDA:0,_ZNSt10_Head_baseILm0EPNSt7__cxx1112basic_stringIcSt11char_traitsIcESaIcEEELb0EEC2Ev
FNDA:0,_ZNSt10_Head_baseILm0EPNSt7__cxx1112basic_stringIcSt11char_traitsIcESaIcEEELb0EE7_M_headERS7_
FNDA:0,_ZNSt10_Head_baseILm0EPNSt7__cxx1118basic_stringstreamIcSt11char_traitsIcESaIcEEELb0EE7_M_headERS7_
FNDA:0,_ZNSt11_Tuple_implILm0EJPNSt7__cxx1112basic_stringIcSt11char_traitsIcESaIcEEESt14default_deleteIS5_EEE7_M_headERS9_
FNDA:0,_ZNSt11_Tuple_implILm0EJPNSt7__cxx1118basic_stringstreamIcSt11char_traitsIcESaIcEEESt14default_deleteIS5_EEE7_M_headERS9_
FNDA:0,_ZNSt11_Tuple_implILm0EJPNSt7__cxx1112basic_stringIcSt11char_traitsIcESaIcEEESt14default_deleteIS5_EEEC2Ev
FNDA:0,_ZNSt11_Tuple_implILm1EJSt14default_deleteINSt7__cxx1112basic_stringIcSt11char_traitsIcESaIcEEEEEE7_M_headERS8_
FNDA:0,_ZNSt11_Tuple_implILm1EJSt14default_deleteINSt7__cxx1118basic_stringstreamIcSt11char_traitsIcESaIcEEEEEE7_M_headERS8_
FNDA:0,_ZNSt11_Tuple_implILm1EJSt14default_deleteINSt7__cxx1112basic_stringIcSt11char_traitsIcESaIcEEEEEEC2Ev
FNDA:0,_ZNSt5tupleIJPNSt7__cxx1112basic_stringIcSt11char_traitsIcESaIcEEESt14default_deleteIS5_EEEC2IS6_S8_Lb1EEEv
FNDA:0,_ZSt12__get_helperILm1ESt14default_deleteINSt7__cxx1112basic_stringIcSt11char_traitsIcESaIcEEEEJEERT0_RSt11_Tuple_implIXT_EJS8_DpT1_EE
FNDA:0,_ZSt12__get_helperILm1ESt14default_deleteINSt7__cxx1118basic_stringstreamIcSt11char_traitsIcESaIcEEEEJEERT0_RSt11_Tuple_implIXT_EJS8_DpT1_EE
FNDA:0,_ZSt12__get_helperILm0EPNSt7__cxx1112basic_stringIcSt11char_traitsIcESaIcEEEJSt14default_deleteIS5_EEERT0_RSt11_Tuple_implIXT_EJS9_DpT1_EE
FNDA:0,_ZSt12__get_helperILm0EPNSt7__cxx1118basic_stringstreamIcSt11char_traitsIcESaIcEEEJSt14default_deleteIS5_EEERT0_RSt11_Tuple_implIXT_EJS9_DpT1_EE
FNDA:0,_ZSt3getILm1EJPNSt7__cxx1112basic_stringIcSt11char_traitsIcESaIcEEESt14default_deleteIS5_EEERNSt13tuple_elementIXT_ESt5tupleIJDpT0_EEE4typeERSD_
FNDA:0,_ZSt3getILm1EJPNSt7__cxx1118basic_stringstreamIcSt11char_traitsIcESaIcEEESt14default_deleteIS5_EEERNSt13tuple_elementIXT_ESt5tupleIJDpT0_EEE4typeERSD_
FNDA:0,_ZSt3getILm0EJPNSt7__cxx1112basic_stringIcSt11char_traitsIcESaIcEEESt14default_deleteIS5_EEERNSt13tuple_elementIXT_ESt5tupleIJDpT0_EEE4typeERSD_
FNDA:0,_ZSt3getILm0EJPNSt7__cxx1118basic_stringstreamIcSt11char_traitsIcESaIcEEESt14default_deleteIS5_EEERNSt13tuple_elementIXT_ESt5tupleIJDpT0_EEE4typeERSD_
FNF:21
FNH:0
DA:76,0
DA:77,0
DA:113,0
DA:122,0
DA:123,0
DA:160,0
DA:195,0
DA:206,0
DA:207,0
DA:351,0
DA:356,0
DA:357,0
DA:919,0
DA:920,0
DA:1303,0
DA:1304,0
DA:1314,0
DA:1315,0
LF:18
LH:0
end_of_record
TN:
SF:/home/fyulita/Desktop/tpi/algo1-TPI/lib/googletest-master/googletest/include/gtest/gtest-message.h
FN:91,_ZN7testing7MessageD2Ev
FNDA:0,_ZN7testing7MessageD2Ev
FNF:1
FNH:0
DA:91,0
LF:1
LH:0
end_of_record
SF:/home/fyulita/Desktop/tpi/algo1-TPI/lib/googletest-master/googletest/include/gtest/gtest.h
FN:275,_ZN7testing15AssertionResultD2Ev
FN:312,_ZNK7testing15AssertionResultcvbEv
FN:321,_ZNK7testing15AssertionResult7messageEv
FN:325,_ZNK7testing15AssertionResult15failure_messageEv
FN:417,_ZN7testing4Test14SetUpTestSuiteEv
FN:427,_ZN7testing4Test17TearDownTestSuiteEv
FN:431,_ZN7testing4Test16TearDownTestCaseEv
FN:432,_ZN7testing4Test13SetUpTestCaseEv
FN:513,_ZN7testing4Test5SetupEv
FNDA:0,_ZN7testing15AssertionResultD2Ev
FNDA:0,_ZNK7testing15AssertionResultcvbEv
FNDA:7,_ZNK7testing15AssertionResult7messageEv
FNDA:6,_ZNK7testing15AssertionResult15failure_messageEv
FNDA:0,_ZN7testing4Test14SetUpTestSuiteEv
FNDA:0,_ZN7testing4Test17TearDownTestSuiteEv
FNDA:0,_ZN7testing4Test16TearDownTestCaseEv
FNDA:0,_ZN7testing4Test13SetUpTestCaseEv
FNDA:0,_ZN7testing4Test5SetupEv
FNF:9
FNH:2
DA:275,0
DA:312,0
DA:321,7
DA:322,7
DA:325,6
DA:417,0
DA:427,0
DA:431,0
DA:432,0
DA:513,0
LF:10
LH:3
end_of_record
SF:/home/fyulita/Desktop/tpi/algo1-TPI/lib/googletest-master/googletest/include/gtest/internal/gtest-internal.h
FN:442,_ZN7testing8internal15TestFactoryBaseD2Ev
FN:442,_ZN7testing8internal15TestFactoryBaseD0Ev
FN:449,_ZN7testing8internal15TestFactoryBaseC2Ev
FN:458,_ZN7testing8internal15TestFactoryImplI57devolverPromedioAreasTest_regionesDeUnPixel_EnAdy4_2_TestED2Ev
FN:458,_ZN7testing8internal15TestFactoryImplI57devolverPromedioAreasTest_regionesDeUnPixel_EnAdy4_3_TestEC2Ev
FN:458,_ZN7testing8internal15TestFactoryImplI53devolverPromedioAreasTest_matrizApagada_enAdy8_2_TestED2Ev
FN:458,_ZN7testing8internal15TestFactoryImplI53devolverPromedioAreasTest_matrizApagada_enAdy8_1_TestED0Ev
FN:458,_ZN7testing8internal15TestFactoryImplI53devolverPromedioAreasTest_matrizApagada_enAdy4_1_TestED2Ev
FN:458,_ZN7testing8internal15TestFactoryImplI54devolverPromedioAreasTest_promedioDecimalEnAdy4_2_TestEC2Ev
FN:458,_ZN7testing8internal15TestFactoryImplI51devolverPromedioAreasTest_regionEnteraEnAdy4_1_TestED0Ev
FN:458,_ZN7testing8internal15TestFactoryImplI51devolverPromedioAreasTest_regionEnteraEnAdy4_3_TestED2Ev
FN:458,_ZN7testing8internal15TestFactoryImplI57devolverPromedioAreasTest_regionesDeUnPixel_EnAdy8_1_TestED2Ev
FN:458,_ZN7testing8internal15TestFactoryImplI51devolverPromedioAreasTest_regionEnteraEnAdy8_1_TestED2Ev
FN:458,_ZN7testing8internal15TestFactoryImplI54devolverPromedioAreasTest_promedioDecimalEnAdy4_2_TestED2Ev
FN:458,_ZN7testing8internal15TestFactoryImplI53devolverPromedioAreasTest_matrizApagada_enAdy4_4_TestEC2Ev
FN:458,_ZN7testing8internal15TestFactoryImplI51devolverPromedioAreasTest_MatrizActivaEnAdy4_3_TestED2Ev
FN:458,_ZN7testing8internal15TestFactoryImplI57devolverPromedioAreasTest_regionesDeUnPixel_EnAdy4_1_TestED0Ev
FN:458,_ZN7testing8internal15TestFactoryImplI54devolverPromedioAreasTest_promedioDecimalEnAdy8_3_TestEC2Ev
FN:458,_ZN7testing8internal15TestFactoryImplI54devolverPromedioAreasTest_promedioDecimalEnAdy4_2_TestED0Ev
FN:458,_ZN7testing8internal15TestFactoryImplI51devolverPromedioAreasTest_regionEnteraEnAdy8_1_TestED0Ev
FN:458,_ZN7testing8internal15TestFactoryImplI54devolverPromedioAreasTest_promedioDecimalEnAdy4_3_TestED0Ev
FN:458,_ZN7testing8internal15TestFactoryImplI51devolverPromedioAreasTest_MatrizActivaEnAdy4_3_TestED0Ev
FN:458,_ZN7testing8internal15TestFactoryImplI51devolverPromedioAreasTest_regionEnteraEnAdy4_1_TestEC2Ev
FN:458,_ZN7testing8internal15TestFactoryImplI54devolverPromedioAreasTest_promedioDecimalEnAdy4_3_TestEC2Ev
FN:458,_ZN7testing8internal15TestFactoryImplI57devolverPromedioAreasTest_regionesDeUnPixel_EnAdy8_1_TestEC2Ev
FN:458,_ZN7testing8internal15TestFactoryImplI54devolverPromedioAreasTest_promedioDecimalEnAdy4_3_TestED2Ev
FN:458,_ZN7testing8internal15TestFactoryImplI51devolverPromedioAreasTest_regionEnteraEnAdy8_3_TestED2Ev
FN:458,_ZN7testing8internal15TestFactoryImplI57devolverPromedioAreasTest_regionesDeUnPixel_EnAdy4_2_TestED0Ev
FN:458,_ZN7testing8internal15TestFactoryImplI57devolverPromedioAreasTest_regionesDeUnPixel_EnAdy4_3_TestED2Ev
FN:458,_ZN7testing8internal15TestFactoryImplI57devolverPromedioAreasTest_regionesDeUnPixel_EnAdy4_1_TestEC2Ev
FN:458,_ZN7testing8internal15TestFactoryImplI51devolverPromedioAreasTest_MatrizActivaEnAdy4_3_TestEC2Ev
FN:458,_ZN7testing8internal15TestFactoryImplI53devolverPromedioAreasTest_matrizApagada_enAdy8_1_TestED2Ev
FN:458,_ZN7testing8internal15TestFactoryImplI53devolverPromedioAreasTest_matrizApagada_enAdy4_4_TestED2Ev
FN:458,_ZN7testing8internal15TestFactoryImplI53devolverPromedioAreasTest_matrizApagada_enAdy4_1_TestED0Ev
FN:458,_ZN7testing8internal15TestFactoryImplI54devolverPromedioAreasTest_promedioDecimalEnAdy8_1_TestED0Ev
FN:458,_ZN7testing8internal15TestFactoryImplI57devolverPromedioAreasTest_regionesDeUnPixel_EnAdy8_1_TestED0Ev
FN:458,_ZN7testing8internal15TestFactoryImplI57devolverPromedioAreasTest_regionesDeUnPixel_EnAdy4_1_TestED2Ev
FN:458,_ZN7testing8internal15TestFactoryImplI51devolverPromedioAreasTest_regionEnteraEnAdy8_1_TestEC2Ev
FN:458,_ZN7testing8internal15TestFactoryImplI51devolverPromedioAreasTest_regionEnteraEnAdy4_3_TestEC2Ev
FN:458,_ZN7testing8internal15TestFactoryImplI51devolverPromedioAreasTest_MatrizActivaEnAdy8_1_TestED2Ev
FN:458,_ZN7testing8internal15TestFactoryImplI51devolverPromedioAreasTest_regionEnteraEnAdy8_3_TestED0Ev
FN:458,_ZN7testing8internal15TestFactoryImplI51devolverPromedioAreasTest_regionEnteraEnAdy8_3_TestEC2Ev
FN:458,_ZN7testing8internal15TestFactoryImplI54devolverPromedioAreasTest_promedioDecimalEnAdy8_3_TestED0Ev
FN:458,_ZN7testing8internal15TestFactoryImplI53devolverPromedioAreasTest_matrizApagada_enAdy8_2_TestEC2Ev
FN:458,_ZN7testing8internal15TestFactoryImplI54devolverPromedioAreasTest_promedioDecimalEnAdy8_1_TestED2Ev
FN:458,_ZN7testing8internal15TestFactoryImplI51devolverPromedioAreasTest_regionEnteraEnAdy4_1_TestED2Ev
FN:458,_ZN7testing8internal15TestFactoryImplI54devolverPromedioAreasTest_promedioDecimalEnAdy8_3_TestED2Ev
FN:458,_ZN7testing8internal15TestFactoryImplI51devolverPromedioAreasTest_regionEnteraEnAdy4_3_TestED0Ev
FN:458,_ZN7testing8internal15TestFactoryImplI57devolverPromedioAreasTest_regionesDeUnPixel_EnAdy4_3_TestED0Ev
FN:458,_ZN7testing8internal15TestFactoryImplI51devolverPromedioAreasTest_MatrizActivaEnAdy8_1_TestED0Ev
FN:458,_ZN7testing8internal15TestFactoryImplI51devolverPromedioAreasTest_MatrizActivaEnAdy8_1_TestEC2Ev
FN:458,_ZN7testing8internal15TestFactoryImplI53devolverPromedioAreasTest_matrizApagada_enAdy8_1_TestEC2Ev
FN:458,_ZN7testing8internal15TestFactoryImplI53devolverPromedioAreasTest_matrizApagada_enAdy8_2_TestED0Ev
FN:458,_ZN7testing8internal15TestFactoryImplI53devolverPromedioAreasTest_matrizApagada_enAdy4_1_TestEC2Ev
FN:458,_ZN7testing8internal15TestFactoryImplI53devolverPromedioAreasTest_matrizApagada_enAdy4_4_TestED0Ev
FN:458,_ZN7testing8internal15TestFactoryImplI54devolverPromedioAreasTest_promedioDecimalEnAdy8_1_TestEC2Ev
FN:458,_ZN7testing8internal15TestFactoryImplI57devolverPromedioAreasTest_regionesDeUnPixel_EnAdy4_2_TestEC2Ev
FN:460,_ZN7testing8internal15TestFactoryImplI57devolverPromedioAreasTest_regionesDeUnPixel_EnAdy4_2_TestE10CreateTestEv
FN:460,_ZN7testing8internal15TestFactoryImplI51devolverPromedioAreasTest_MatrizActivaEnAdy4_3_TestE10CreateTestEv
FN:460,_ZN7testing8internal15TestFactoryImplI51devolverPromedioAreasTest_regionEnteraEnAdy4_1_TestE10CreateTestEv
FN:460,_ZN7testing8internal15TestFactoryImplI57devolverPromedioAreasTest_regionesDeUnPixel_EnAdy8_1_TestE10CreateTestEv
FN:460,_ZN7testing8internal15TestFactoryImplI54devolverPromedioAreasTest_promedioDecimalEnAdy8_1_TestE10CreateTestEv
FN:460,_ZN7testing8internal15TestFactoryImplI53devolverPromedioAreasTest_matrizApagada_enAdy8_2_TestE10CreateTestEv
FN:460,_ZN7testing8internal15TestFactoryImplI57devolverPromedioAreasTest_regionesDeUnPixel_EnAdy4_3_TestE10CreateTestEv
FN:460,_ZN7testing8internal15TestFactoryImplI51devolverPromedioAreasTest_regionEnteraEnAdy8_1_TestE10CreateTestEv
FN:460,_ZN7testing8internal15TestFactoryImplI54devolverPromedioAreasTest_promedioDecimalEnAdy4_3_TestE10CreateTestEv
FN:460,_ZN7testing8internal15TestFactoryImplI51devolverPromedioAreasTest_regionEnteraEnAdy4_3_TestE10CreateTestEv
FN:460,_ZN7testing8internal15TestFactoryImplI51devolverPromedioAreasTest_regionEnteraEnAdy8_3_TestE10CreateTestEv
FN:460,_ZN7testing8internal15TestFactoryImplI53devolverPromedioAreasTest_matrizApagada_enAdy4_1_TestE10CreateTestEv
FN:460,_ZN7testing8internal15TestFactoryImplI57devolverPromedioAreasTest_regionesDeUnPixel_EnAdy4_1_TestE10CreateTestEv
FN:460,_ZN7testing8internal15TestFactoryImplI51devolverPromedioAreasTest_MatrizActivaEnAdy8_1_TestE10CreateTestEv
FN:460,_ZN7testing8internal15TestFactoryImplI54devolverPromedioAreasTest_promedioDecimalEnAdy4_2_TestE10CreateTestEv
FN:460,_ZN7testing8internal15TestFactoryImplI53devolverPromedioAreasTest_matrizApagada_enAdy8_1_TestE10CreateTestEv
FN:460,_ZN7testing8internal15TestFactoryImplI54devolverPromedioAreasTest_promedioDecimalEnAdy8_3_TestE10CreateTestEv
FN:460,_ZN7testing8internal15TestFactoryImplI53devolverPromedioAreasTest_matrizApagada_enAdy4_4_TestE10CreateTestEv
FN:480,_ZN7testing8internal12CodeLocationD2Ev
FN:481,_ZN7testing8internal12CodeLocationC2ERKNSt7__cxx1112basic_stringIcSt11char_traitsIcESaIcEEEi
FN:494,_ZN7testing8internal19GetNotDefaultOrNullEPFvvES2_
FN:509,_ZN7testing8internal16SuiteApiResolverINS_4TestEE19GetSetUpCaseOrSuiteEPKci
FN:524,_ZN7testing8internal16SuiteApiResolverINS_4TestEE22GetTearDownCaseOrSuiteEPKci
FNDA:0,_ZN7testing8internal15TestFactoryBaseD0Ev
FNDA:0,_ZN7testing8internal15TestFactoryBaseD2Ev
FNDA:0,_ZN7testing8internal15TestFactoryBaseC2Ev
FNDA:12,_ZN7testing8internal15TestFactoryImplI53devolverPromedioAreasTest_matrizApagada_enAdy4_1_TestED0Ev
FNDA:12,_ZN7testing8internal15TestFactoryImplI53devolverPromedioAreasTest_matrizApagada_enAdy4_1_TestED2Ev
FNDA:12,_ZN7testing8internal15TestFactoryImplI53devolverPromedioAreasTest_matrizApagada_enAdy4_4_TestED0Ev
FNDA:12,_ZN7testing8internal15TestFactoryImplI53devolverPromedioAreasTest_matrizApagada_enAdy4_4_TestED2Ev
FNDA:12,_ZN7testing8internal15TestFactoryImplI53devolverPromedioAreasTest_matrizApagada_enAdy8_1_TestED0Ev
FNDA:12,_ZN7testing8internal15TestFactoryImplI53devolverPromedioAreasTest_matrizApagada_enAdy8_1_TestED2Ev
FNDA:12,_ZN7testing8internal15TestFactoryImplI53devolverPromedioAreasTest_matrizApagada_enAdy8_2_TestED0Ev
FNDA:12,_ZN7testing8internal15TestFactoryImplI53devolverPromedioAreasTest_matrizApagada_enAdy8_2_TestED2Ev
FNDA:12,_ZN7testing8internal15TestFactoryImplI57devolverPromedioAreasTest_regionesDeUnPixel_EnAdy4_1_TestED0Ev
FNDA:12,_ZN7testing8internal15TestFactoryImplI57devolverPromedioAreasTest_regionesDeUnPixel_EnAdy4_1_TestED2Ev
FNDA:12,_ZN7testing8internal15TestFactoryImplI57devolverPromedioAreasTest_regionesDeUnPixel_EnAdy4_2_TestED0Ev
FNDA:12,_ZN7testing8internal15TestFactoryImplI57devolverPromedioAreasTest_regionesDeUnPixel_EnAdy4_2_TestED2Ev
FNDA:12,_ZN7testing8internal15TestFactoryImplI57devolverPromedioAreasTest_regionesDeUnPixel_EnAdy4_3_TestED0Ev
FNDA:12,_ZN7testing8internal15TestFactoryImplI57devolverPromedioAreasTest_regionesDeUnPixel_EnAdy4_3_TestED2Ev
FNDA:12,_ZN7testing8internal15TestFactoryImplI57devolverPromedioAreasTest_regionesDeUnPixel_EnAdy8_1_TestED0Ev
FNDA:12,_ZN7testing8internal15TestFactoryImplI57devolverPromedioAreasTest_regionesDeUnPixel_EnAdy8_1_TestED2Ev
FNDA:12,_ZN7testing8internal15TestFactoryImplI51devolverPromedioAreasTest_MatrizActivaEnAdy4_3_TestED0Ev
FNDA:12,_ZN7testing8internal15TestFactoryImplI51devolverPromedioAreasTest_MatrizActivaEnAdy4_3_TestED2Ev
FNDA:12,_ZN7testing8internal15TestFactoryImplI51devolverPromedioAreasTest_MatrizActivaEnAdy8_1_TestED0Ev
FNDA:12,_ZN7testing8internal15TestFactoryImplI51devolverPromedioAreasTest_MatrizActivaEnAdy8_1_TestED2Ev
FNDA:12,_ZN7testing8internal15TestFactoryImplI51devolverPromedioAreasTest_regionEnteraEnAdy4_1_TestED0Ev
FNDA:12,_ZN7testing8internal15TestFactoryImplI51devolverPromedioAreasTest_regionEnteraEnAdy4_1_TestED2Ev
FNDA:12,_ZN7testing8internal15TestFactoryImplI51devolverPromedioAreasTest_regionEnteraEnAdy4_3_TestED0Ev
FNDA:12,_ZN7testing8internal15TestFactoryImplI51devolverPromedioAreasTest_regionEnteraEnAdy4_3_TestED2Ev
FNDA:12,_ZN7testing8internal15TestFactoryImplI51devolverPromedioAreasTest_regionEnteraEnAdy8_1_TestED0Ev
FNDA:12,_ZN7testing8internal15TestFactoryImplI51devolverPromedioAreasTest_regionEnteraEnAdy8_1_TestED2Ev
FNDA:12,_ZN7testing8internal15TestFactoryImplI51devolverPromedioAreasTest_regionEnteraEnAdy8_3_TestED0Ev
FNDA:12,_ZN7testing8internal15TestFactoryImplI51devolverPromedioAreasTest_regionEnteraEnAdy8_3_TestED2Ev
FNDA:12,_ZN7testing8internal15TestFactoryImplI54devolverPromedioAreasTest_promedioDecimalEnAdy4_2_TestED0Ev
FNDA:12,_ZN7testing8internal15TestFactoryImplI54devolverPromedioAreasTest_promedioDecimalEnAdy4_2_TestED2Ev
FNDA:12,_ZN7testing8internal15TestFactoryImplI54devolverPromedioAreasTest_promedioDecimalEnAdy4_3_TestED0Ev
FNDA:12,_ZN7testing8internal15TestFactoryImplI54devolverPromedioAreasTest_promedioDecimalEnAdy4_3_TestED2Ev
FNDA:12,_ZN7testing8internal15TestFactoryImplI54devolverPromedioAreasTest_promedioDecimalEnAdy8_1_TestED0Ev
FNDA:12,_ZN7testing8internal15TestFactoryImplI54devolverPromedioAreasTest_promedioDecimalEnAdy8_1_TestED2Ev
FNDA:12,_ZN7testing8internal15TestFactoryImplI54devolverPromedioAreasTest_promedioDecimalEnAdy8_3_TestED0Ev
FNDA:12,_ZN7testing8internal15TestFactoryImplI54devolverPromedioAreasTest_promedioDecimalEnAdy8_3_TestED2Ev
FNDA:12,_ZN7testing8internal15TestFactoryImplI54devolverPromedioAreasTest_promedioDecimalEnAdy8_3_TestEC2Ev
FNDA:12,_ZN7testing8internal15TestFactoryImplI54devolverPromedioAreasTest_promedioDecimalEnAdy8_1_TestEC2Ev
FNDA:12,_ZN7testing8internal15TestFactoryImplI54devolverPromedioAreasTest_promedioDecimalEnAdy4_3_TestEC2Ev
FNDA:12,_ZN7testing8internal15TestFactoryImplI54devolverPromedioAreasTest_promedioDecimalEnAdy4_2_TestEC2Ev
FNDA:12,_ZN7testing8internal15TestFactoryImplI51devolverPromedioAreasTest_regionEnteraEnAdy8_3_TestEC2Ev
FNDA:12,_ZN7testing8internal15TestFactoryImplI51devolverPromedioAreasTest_regionEnteraEnAdy8_1_TestEC2Ev
FNDA:12,_ZN7testing8internal15TestFactoryImplI51devolverPromedioAreasTest_regionEnteraEnAdy4_3_TestEC2Ev
FNDA:12,_ZN7testing8internal15TestFactoryImplI51devolverPromedioAreasTest_regionEnteraEnAdy4_1_TestEC2Ev
FNDA:12,_ZN7testing8internal15TestFactoryImplI51devolverPromedioAreasTest_MatrizActivaEnAdy8_1_TestEC2Ev
FNDA:12,_ZN7testing8internal15TestFactoryImplI51devolverPromedioAreasTest_MatrizActivaEnAdy4_3_TestEC2Ev
FNDA:12,_ZN7testing8internal15TestFactoryImplI57devolverPromedioAreasTest_regionesDeUnPixel_EnAdy8_1_TestEC2Ev
FNDA:12,_ZN7testing8internal15TestFactoryImplI57devolverPromedioAreasTest_regionesDeUnPixel_EnAdy4_3_TestEC2Ev
FNDA:12,_ZN7testing8internal15TestFactoryImplI57devolverPromedioAreasTest_regionesDeUnPixel_EnAdy4_2_TestEC2Ev
FNDA:12,_ZN7testing8internal15TestFactoryImplI57devolverPromedioAreasTest_regionesDeUnPixel_EnAdy4_1_TestEC2Ev
FNDA:12,_ZN7testing8internal15TestFactoryImplI53devolverPromedioAreasTest_matrizApagada_enAdy8_2_TestEC2Ev
FNDA:12,_ZN7testing8internal15TestFactoryImplI53devolverPromedioAreasTest_matrizApagada_enAdy8_1_TestEC2Ev
FNDA:12,_ZN7testing8internal15TestFactoryImplI53devolverPromedioAreasTest_matrizApagada_enAdy4_4_TestEC2Ev
FNDA:12,_ZN7testing8internal15TestFactoryImplI53devolverPromedioAreasTest_matrizApagada_enAdy4_1_TestEC2Ev
FNDA:4,_ZN7testing8internal15TestFactoryImplI53devolverPromedioAreasTest_matrizApagada_enAdy4_1_TestE10CreateTestEv
FNDA:4,_ZN7testing8internal15TestFactoryImplI53devolverPromedioAreasTest_matrizApagada_enAdy4_4_TestE10CreateTestEv
FNDA:4,_ZN7testing8internal15TestFactoryImplI53devolverPromedioAreasTest_matrizApagada_enAdy8_1_TestE10CreateTestEv
FNDA:4,_ZN7testing8internal15TestFactoryImplI53devolverPromedioAreasTest_matrizApagada_enAdy8_2_TestE10CreateTestEv
FNDA:4,_ZN7testing8internal15TestFactoryImplI57devolverPromedioAreasTest_regionesDeUnPixel_EnAdy4_1_TestE10CreateTestEv
FNDA:4,_ZN7testing8internal15TestFactoryImplI57devolverPromedioAreasTest_regionesDeUnPixel_EnAdy4_2_TestE10CreateTestEv
FNDA:4,_ZN7testing8internal15TestFactoryImplI57devolverPromedioAreasTest_regionesDeUnPixel_EnAdy4_3_TestE10CreateTestEv
FNDA:4,_ZN7testing8internal15TestFactoryImplI57devolverPromedioAreasTest_regionesDeUnPixel_EnAdy8_1_TestE10CreateTestEv
FNDA:4,_ZN7testing8internal15TestFactoryImplI51devolverPromedioAreasTest_MatrizActivaEnAdy4_3_TestE10CreateTestEv
FNDA:4,_ZN7testing8internal15TestFactoryImplI51devolverPromedioAreasTest_MatrizActivaEnAdy8_1_TestE10CreateTestEv
FNDA:4,_ZN7testing8internal15TestFactoryImplI51devolverPromedioAreasTest_regionEnteraEnAdy4_1_TestE10CreateTestEv
FNDA:4,_ZN7testing8internal15TestFactoryImplI51devolverPromedioAreasTest_regionEnteraEnAdy4_3_TestE10CreateTestEv
FNDA:4,_ZN7testing8internal15TestFactoryImplI51devolverPromedioAreasTest_regionEnteraEnAdy8_1_TestE10CreateTestEv
FNDA:4,_ZN7testing8internal15TestFactoryImplI51devolverPromedioAreasTest_regionEnteraEnAdy8_3_TestE10CreateTestEv
FNDA:5,_ZN7testing8internal15TestFactoryImplI54devolverPromedioAreasTest_promedioDecimalEnAdy4_2_TestE10CreateTestEv
FNDA:4,_ZN7testing8internal15TestFactoryImplI54devolverPromedioAreasTest_promedioDecimalEnAdy4_3_TestE10CreateTestEv
FNDA:4,_ZN7testing8internal15TestFactoryImplI54devolverPromedioAreasTest_promedioDecimalEnAdy8_1_TestE10CreateTestEv
FNDA:4,_ZN7testing8internal15TestFactoryImplI54devolverPromedioAreasTest_promedioDecimalEnAdy8_3_TestE10CreateTestEv
FNDA:0,_ZN7testing8internal12CodeLocationD2Ev
FNDA:0,_ZN7testing8internal12CodeLocationC2ERKNSt7__cxx1112basic_stringIcSt11char_traitsIcESaIcEEEi
FNDA:0,_ZN7testing8internal19GetNotDefaultOrNullEPFvvES2_
FNDA:0,_ZN7testing8internal16SuiteApiResolverINS_4TestEE19GetSetUpCaseOrSuiteEPKci
FNDA:0,_ZN7testing8internal16SuiteApiResolverINS_4TestEE22GetTearDownCaseOrSuiteEPKci
FNF:80
FNH:72
DA:442,0
DA:449,0
DA:458,648
DA:460,73
DA:480,0
DA:481,0
DA:482,0
DA:494,0
DA:496,0
DA:509,0
DA:511,0
DA:513,0
DA:516,0
DA:519,0
DA:521,0
DA:524,0
DA:526,0
DA:528,0
DA:531,0
DA:534,0
DA:536,0
LF:21
LH:2
end_of_record
SF:/home/fyulita/Desktop/tpi/algo1-TPI/lib/googletest-master/googletest/include/gtest/internal/gtest-port.h
FN:942,_ZN7testing8internal8GTestLog9GetStreamEv
FNDA:0,_ZN7testing8internal8GTestLog9GetStreamEv
FNF:1
FNH:0
DA:942,0
LF:1
LH:0
end_of_record
SF:/home/fyulita/Desktop/tpi/algo1-TPI/tests/ej3TEST.cpp
FN:8,_ZN53devolverPromedioAreasTest_matrizApagada_enAdy4_1_Test8TestBodyEv
FN:8,_ZN53devolverPromedioAreasTest_matrizApagada_enAdy4_1_TestD2Ev
FN:8,_ZN53devolverPromedioAreasTest_matrizApagada_enAdy4_1_TestD0Ev
FN:8,_ZN53devolverPromedioAreasTest_matrizApagada_enAdy4_1_TestC2Ev
FN:13,_ZN53devolverPromedioAreasTest_matrizApagada_enAdy4_4_TestC2Ev
FN:13,_ZN53devolverPromedioAreasTest_matrizApagada_enAdy4_4_Test8TestBodyEv
FN:13,_ZN53devolverPromedioAreasTest_matrizApagada_enAdy4_4_TestD0Ev
FN:13,_ZN53devolverPromedioAreasTest_matrizApagada_enAdy4_4_TestD2Ev
FN:20,_ZN53devolverPromedioAreasTest_matrizApagada_enAdy8_1_TestC2Ev
FN:20,_ZN53devolverPromedioAreasTest_matrizApagada_enAdy8_1_TestD2Ev
FN:20,_ZN53devolverPromedioAreasTest_matrizApagada_enAdy8_1_TestD0Ev
FN:20,_ZN53devolverPromedioAreasTest_matrizApagada_enAdy8_1_Test8TestBodyEv
FN:25,_ZN53devolverPromedioAreasTest_matrizApagada_enAdy8_2_Test8TestBodyEv
FN:25,_ZN53devolverPromedioAreasTest_matrizApagada_enAdy8_2_TestD0Ev
FN:25,_ZN53devolverPromedioAreasTest_matrizApagada_enAdy8_2_TestD2Ev
FN:25,_ZN53devolverPromedioAreasTest_matrizApagada_enAdy8_2_TestC2Ev
FN:32,_ZN57devolverPromedioAreasTest_regionesDeUnPixel_EnAdy4_1_TestD0Ev
FN:32,_ZN57devolverPromedioAreasTest_regionesDeUnPixel_EnAdy4_1_Test8TestBodyEv
FN:32,_ZN57devolverPromedioAreasTest_regionesDeUnPixel_EnAdy4_1_TestD2Ev
FN:32,_ZN57devolverPromedioAreasTest_regionesDeUnPixel_EnAdy4_1_TestC2Ev
FN:37,_ZN57devolverPromedioAreasTest_regionesDeUnPixel_EnAdy4_2_TestC2Ev
FN:37,_ZN57devolverPromedioAreasTest_regionesDeUnPixel_EnAdy4_2_TestD0Ev
FN:37,_ZN57devolverPromedioAreasTest_regionesDeUnPixel_EnAdy4_2_TestD2Ev
FN:37,_ZN57devolverPromedioAreasTest_regionesDeUnPixel_EnAdy4_2_Test8TestBodyEv
FN:42,_ZN57devolverPromedioAreasTest_regionesDeUnPixel_EnAdy4_3_TestD2Ev
FN:42,_ZN57devolverPromedioAreasTest_regionesDeUnPixel_EnAdy4_3_TestC2Ev
FN:42,_ZN57devolverPromedioAreasTest_regionesDeUnPixel_EnAdy4_3_Test8TestBodyEv
FN:42,_ZN57devolverPromedioAreasTest_regionesDeUnPixel_EnAdy4_3_TestD0Ev
FN:49,_ZN57devolverPromedioAreasTest_regionesDeUnPixel_EnAdy8_1_Test8TestBodyEv
FN:49,_ZN57devolverPromedioAreasTest_regionesDeUnPixel_EnAdy8_1_TestD2Ev
FN:49,_ZN57devolverPromedioAreasTest_regionesDeUnPixel_EnAdy8_1_TestD0Ev
FN:49,_ZN57devolverPromedioAreasTest_regionesDeUnPixel_EnAdy8_1_TestC2Ev
FN:58,_ZN51devolverPromedioAreasTest_MatrizActivaEnAdy4_3_TestC2Ev
FN:58,_ZN51devolverPromedioAreasTest_MatrizActivaEnAdy4_3_Test8TestBodyEv
FN:58,_ZN51devolverPromedioAreasTest_MatrizActivaEnAdy4_3_TestD2Ev
FN:58,_ZN51devolverPromedioAreasTest_MatrizActivaEnAdy4_3_TestD0Ev
FN:66,_ZN51devolverPromedioAreasTest_MatrizActivaEnAdy8_1_TestC2Ev
FN:66,_ZN51devolverPromedioAreasTest_MatrizActivaEnAdy8_1_TestD0Ev
FN:66,_ZN51devolverPromedioAreasTest_MatrizActivaEnAdy8_1_Test8TestBodyEv
FN:66,_ZN51devolverPromedioAreasTest_MatrizActivaEnAdy8_1_TestD2Ev
FN:72,_ZN51devolverPromedioAreasTest_regionEnteraEnAdy4_1_TestD2Ev
FN:72,_ZN51devolverPromedioAreasTest_regionEnteraEnAdy4_1_TestC2Ev
FN:72,_ZN51devolverPromedioAreasTest_regionEnteraEnAdy4_1_TestD0Ev
FN:72,_ZN51devolverPromedioAreasTest_regionEnteraEnAdy4_1_Test8TestBodyEv
FN:77,_ZN51devolverPromedioAreasTest_regionEnteraEnAdy4_3_TestC2Ev
FN:77,_ZN51devolverPromedioAreasTest_regionEnteraEnAdy4_3_TestD2Ev
FN:77,_ZN51devolverPromedioAreasTest_regionEnteraEnAdy4_3_Test8TestBodyEv
FN:77,_ZN51devolverPromedioAreasTest_regionEnteraEnAdy4_3_TestD0Ev
FN:82,_ZN51devolverPromedioAreasTest_regionEnteraEnAdy8_1_TestD0Ev
FN:82,_ZN51devolverPromedioAreasTest_regionEnteraEnAdy8_1_Test8TestBodyEv
FN:82,_ZN51devolverPromedioAreasTest_regionEnteraEnAdy8_1_TestC2Ev
FN:82,_ZN51devolverPromedioAreasTest_regionEnteraEnAdy8_1_TestD2Ev
FN:87,_ZN51devolverPromedioAreasTest_regionEnteraEnAdy8_3_TestC2Ev
FN:87,_ZN51devolverPromedioAreasTest_regionEnteraEnAdy8_3_TestD0Ev
FN:87,_ZN51devolverPromedioAreasTest_regionEnteraEnAdy8_3_TestD2Ev
FN:87,_ZN51devolverPromedioAreasTest_regionEnteraEnAdy8_3_Test8TestBodyEv
FN:94,_ZN54devolverPromedioAreasTest_promedioDecimalEnAdy4_2_Test8TestBodyEv
FN:94,_ZN54devolverPromedioAreasTest_promedioDecimalEnAdy4_2_TestD2Ev
FN:94,_ZN54devolverPromedioAreasTest_promedioDecimalEnAdy4_2_TestC2Ev
FN:94,_ZN54devolverPromedioAreasTest_promedioDecimalEnAdy4_2_TestD0Ev
FN:99,_ZN54devolverPromedioAreasTest_promedioDecimalEnAdy4_3_Test8TestBodyEv
FN:99,_ZN54devolverPromedioAreasTest_promedioDecimalEnAdy4_3_TestC2Ev
FN:99,_ZN54devolverPromedioAreasTest_promedioDecimalEnAdy4_3_TestD2Ev
FN:99,_ZN54devolverPromedioAreasTest_promedioDecimalEnAdy4_3_TestD0Ev
FN:106,_ZN54devolverPromedioAreasTest_promedioDecimalEnAdy8_1_TestD0Ev
FN:106,_ZN54devolverPromedioAreasTest_promedioDecimalEnAdy8_1_TestD2Ev
FN:106,_ZN54devolverPromedioAreasTest_promedioDecimalEnAdy8_1_TestC2Ev
FN:106,_ZN54devolverPromedioAreasTest_promedioDecimalEnAdy8_1_Test8TestBodyEv
FN:111,_ZN54devolverPromedioAreasTest_promedioDecimalEnAdy8_3_TestC2Ev
FN:111,_ZN54devolverPromedioAreasTest_promedioDecimalEnAdy8_3_TestD2Ev
FN:111,_ZN54devolverPromedioAreasTest_promedioDecimalEnAdy8_3_TestD0Ev
FN:111,_ZN54devolverPromedioAreasTest_promedioDecimalEnAdy8_3_Test8TestBodyEv
FN:114,_GLOBAL__sub_I_abs_error
FN:114,_Z41__static_initialization_and_destruction_0ii
FNDA:4,_ZN53devolverPromedioAreasTest_matrizApagada_enAdy4_1_TestD0Ev
FNDA:4,_ZN53devolverPromedioAreasTest_matrizApagada_enAdy4_1_TestD2Ev
FNDA:4,_ZN53devolverPromedioAreasTest_matrizApagada_enAdy4_1_Test8TestBodyEv
FNDA:4,_ZN53devolverPromedioAreasTest_matrizApagada_enAdy4_1_TestC2Ev
FNDA:4,_ZN53devolverPromedioAreasTest_matrizApagada_enAdy4_4_TestD0Ev
FNDA:4,_ZN53devolverPromedioAreasTest_matrizApagada_enAdy4_4_TestD2Ev
FNDA:4,_ZN53devolverPromedioAreasTest_matrizApagada_enAdy4_4_Test8TestBodyEv
FNDA:4,_ZN53devolverPromedioAreasTest_matrizApagada_enAdy4_4_TestC2Ev
FNDA:4,_ZN53devolverPromedioAreasTest_matrizApagada_enAdy8_1_TestD0Ev
FNDA:4,_ZN53devolverPromedioAreasTest_matrizApagada_enAdy8_1_TestD2Ev
FNDA:4,_ZN53devolverPromedioAreasTest_matrizApagada_enAdy8_1_Test8TestBodyEv
FNDA:4,_ZN53devolverPromedioAreasTest_matrizApagada_enAdy8_1_TestC2Ev
FNDA:4,_ZN53devolverPromedioAreasTest_matrizApagada_enAdy8_2_TestD0Ev
FNDA:4,_ZN53devolverPromedioAreasTest_matrizApagada_enAdy8_2_TestD2Ev
FNDA:4,_ZN53devolverPromedioAreasTest_matrizApagada_enAdy8_2_Test8TestBodyEv
FNDA:4,_ZN53devolverPromedioAreasTest_matrizApagada_enAdy8_2_TestC2Ev
FNDA:4,_ZN57devolverPromedioAreasTest_regionesDeUnPixel_EnAdy4_1_TestD0Ev
FNDA:4,_ZN57devolverPromedioAreasTest_regionesDeUnPixel_EnAdy4_1_TestD2Ev
FNDA:4,_ZN57devolverPromedioAreasTest_regionesDeUnPixel_EnAdy4_1_Test8TestBodyEv
FNDA:4,_ZN57devolverPromedioAreasTest_regionesDeUnPixel_EnAdy4_1_TestC2Ev
FNDA:4,_ZN57devolverPromedioAreasTest_regionesDeUnPixel_EnAdy4_2_TestD0Ev
FNDA:4,_ZN57devolverPromedioAreasTest_regionesDeUnPixel_EnAdy4_2_TestD2Ev
FNDA:4,_ZN57devolverPromedioAreasTest_regionesDeUnPixel_EnAdy4_2_Test8TestBodyEv
FNDA:4,_ZN57devolverPromedioAreasTest_regionesDeUnPixel_EnAdy4_2_TestC2Ev
FNDA:4,_ZN57devolverPromedioAreasTest_regionesDeUnPixel_EnAdy4_3_TestD0Ev
FNDA:4,_ZN57devolverPromedioAreasTest_regionesDeUnPixel_EnAdy4_3_TestD2Ev
FNDA:4,_ZN57devolverPromedioAreasTest_regionesDeUnPixel_EnAdy4_3_Test8TestBodyEv
FNDA:4,_ZN57devolverPromedioAreasTest_regionesDeUnPixel_EnAdy4_3_TestC2Ev
FNDA:4,_ZN57devolverPromedioAreasTest_regionesDeUnPixel_EnAdy8_1_TestD0Ev
FNDA:4,_ZN57devolverPromedioAreasTest_regionesDeUnPixel_EnAdy8_1_TestD2Ev
FNDA:4,_ZN57devolverPromedioAreasTest_regionesDeUnPixel_EnAdy8_1_Test8TestBodyEv
FNDA:4,_ZN57devolverPromedioAreasTest_regionesDeUnPixel_EnAdy8_1_TestC2Ev
FNDA:4,_ZN51devolverPromedioAreasTest_MatrizActivaEnAdy4_3_TestD0Ev
FNDA:4,_ZN51devolverPromedioAreasTest_MatrizActivaEnAdy4_3_TestD2Ev
FNDA:4,_ZN51devolverPromedioAreasTest_MatrizActivaEnAdy4_3_Test8TestBodyEv
FNDA:4,_ZN51devolverPromedioAreasTest_MatrizActivaEnAdy4_3_TestC2Ev
FNDA:4,_ZN51devolverPromedioAreasTest_MatrizActivaEnAdy8_1_TestD0Ev
FNDA:4,_ZN51devolverPromedioAreasTest_MatrizActivaEnAdy8_1_TestD2Ev
FNDA:4,_ZN51devolverPromedioAreasTest_MatrizActivaEnAdy8_1_Test8TestBodyEv
FNDA:4,_ZN51devolverPromedioAreasTest_MatrizActivaEnAdy8_1_TestC2Ev
FNDA:4,_ZN51devolverPromedioAreasTest_regionEnteraEnAdy4_1_TestD0Ev
FNDA:4,_ZN51devolverPromedioAreasTest_regionEnteraEnAdy4_1_TestD2Ev
FNDA:4,_ZN51devolverPromedioAreasTest_regionEnteraEnAdy4_1_Test8TestBodyEv
FNDA:4,_ZN51devolverPromedioAreasTest_regionEnteraEnAdy4_1_TestC2Ev
FNDA:4,_ZN51devolverPromedioAreasTest_regionEnteraEnAdy4_3_TestD0Ev
FNDA:4,_ZN51devolverPromedioAreasTest_regionEnteraEnAdy4_3_TestD2Ev
FNDA:4,_ZN51devolverPromedioAreasTest_regionEnteraEnAdy4_3_Test8TestBodyEv
FNDA:4,_ZN51devolverPromedioAreasTest_regionEnteraEnAdy4_3_TestC2Ev
FNDA:4,_ZN51devolverPromedioAreasTest_regionEnteraEnAdy8_1_TestD0Ev
FNDA:4,_ZN51devolverPromedioAreasTest_regionEnteraEnAdy8_1_TestD2Ev
FNDA:4,_ZN51devolverPromedioAreasTest_regionEnteraEnAdy8_1_Test8TestBodyEv
FNDA:4,_ZN51devolverPromedioAreasTest_regionEnteraEnAdy8_1_TestC2Ev
FNDA:4,_ZN51devolverPromedioAreasTest_regionEnteraEnAdy8_3_TestD0Ev
FNDA:4,_ZN51devolverPromedioAreasTest_regionEnteraEnAdy8_3_TestD2Ev
FNDA:4,_ZN51devolverPromedioAreasTest_regionEnteraEnAdy8_3_Test8TestBodyEv
FNDA:4,_ZN51devolverPromedioAreasTest_regionEnteraEnAdy8_3_TestC2Ev
FNDA:5,_ZN54devolverPromedioAreasTest_promedioDecimalEnAdy4_2_TestD0Ev
FNDA:5,_ZN54devolverPromedioAreasTest_promedioDecimalEnAdy4_2_TestD2Ev
FNDA:5,_ZN54devolverPromedioAreasTest_promedioDecimalEnAdy4_2_Test8TestBodyEv
FNDA:5,_ZN54devolverPromedioAreasTest_promedioDecimalEnAdy4_2_TestC2Ev
FNDA:4,_ZN54devolverPromedioAreasTest_promedioDecimalEnAdy4_3_TestD0Ev
FNDA:4,_ZN54devolverPromedioAreasTest_promedioDecimalEnAdy4_3_TestD2Ev
FNDA:4,_ZN54devolverPromedioAreasTest_promedioDecimalEnAdy4_3_Test8TestBodyEv
FNDA:4,_ZN54devolverPromedioAreasTest_promedioDecimalEnAdy4_3_TestC2Ev
FNDA:4,_ZN54devolverPromedioAreasTest_promedioDecimalEnAdy8_1_TestD0Ev
FNDA:4,_ZN54devolverPromedioAreasTest_promedioDecimalEnAdy8_1_TestD2Ev
FNDA:4,_ZN54devolverPromedioAreasTest_promedioDecimalEnAdy8_1_Test8TestBodyEv
FNDA:4,_ZN54devolverPromedioAreasTest_promedioDecimalEnAdy8_1_TestC2Ev
FNDA:4,_ZN54devolverPromedioAreasTest_promedioDecimalEnAdy8_3_TestD0Ev
FNDA:4,_ZN54devolverPromedioAreasTest_promedioDecimalEnAdy8_3_TestD2Ev
FNDA:4,_ZN54devolverPromedioAreasTest_promedioDecimalEnAdy8_3_Test8TestBodyEv
FNDA:4,_ZN54devolverPromedioAreasTest_promedioDecimalEnAdy8_3_TestC2Ev
FNDA:12,_GLOBAL__sub_I_abs_error
FNDA:12,_Z41__static_initialization_and_destruction_0ii
FNF:74
FNH:74
DA:8,28
DA:9,8
DA:10,4
DA:11,4
DA:13,28
DA:14,8
DA:15,4
DA:16,4
DA:20,28
DA:21,8
DA:22,4
DA:23,4
DA:25,28
DA:26,8
DA:27,4
DA:28,4
DA:32,28
DA:33,8
DA:34,4
DA:35,4
DA:37,28
DA:38,8
DA:39,4
DA:40,4
DA:42,28
DA:43,8
DA:44,4
DA:45,4
DA:49,28
DA:50,8
DA:51,4
DA:52,4
DA:58,28
DA:59,8
DA:60,4
DA:61,4
DA:66,28
DA:67,8
DA:68,4
DA:69,4
DA:72,28
DA:73,8
DA:74,4
DA:75,4
DA:77,28
DA:78,8
DA:79,4
DA:80,4
DA:82,28
DA:83,8
DA:84,4
DA:85,4
DA:87,28
DA:88,8
DA:89,4
DA:90,4
DA:94,32
DA:95,10
DA:96,5
DA:97,5
DA:99,28
DA:100,8
DA:101,4
DA:102,4
DA:106,28
DA:107,8
DA:108,4
DA:109,4
DA:111,28
DA:112,8
DA:113,4
DA:114,40
LF:72
LH:72
end_of_record
SF:/usr/include/c++/7/bits/alloc_traits.h
FN:435,_ZNSt16allocator_traitsISaISt6vectorIiSaIiEEEE8allocateERS3_m
FN:435,_ZNSt16allocator_traitsISaIiEE8allocateERS0_m
FN:461,_ZNSt16allocator_traitsISaIiEE10deallocateERS0_Pim
FN:461,_ZNSt16allocator_traitsISaISt6vectorIiSaIiEEEE10deallocateERS3_PS2_m
FN:504,_ZNSt16allocator_traitsISaIiEE37select_on_container_copy_constructionERKS0_
FNDA:0,_ZNSt16allocator_traitsISaISt6vectorIiSaIiEEEE8allocateERS3_m
FNDA:0,_ZNSt16allocator_traitsISaIiEE8allocateERS0_m
FNDA:0,_ZNSt16allocator_traitsISaISt6vectorIiSaIiEEEE10deallocateERS3_PS2_m
FNDA:0,_ZNSt16allocator_traitsISaIiEE10deallocateERS0_Pim
FNDA:0,_ZNSt16allocator_traitsISaIiEE37select_on_container_copy_constructionERKS0_
FNF:5
FNH:0
DA:435,0
DA:436,0
DA:461,0
DA:462,0
DA:504,0
DA:505,0
LF:6
LH:0
end_of_record
SF:/usr/include/c++/7/bits/allocator.h
FN:131,_ZNSaIiEC2Ev
FN:131,_ZNSaISt6vectorIiSaIiEEEC2Ev
FN:133,_ZNSaIiEC2ERKS_
FN:133,_ZNSaISt6vectorIiSaIiEEEC2ERKS2_
FN:139,_ZNSaIiED2Ev
FN:139,_ZNSaISt6vectorIiSaIiEEED2Ev
FNDA:0,_ZNSaISt6vectorIiSaIiEEEC2Ev
FNDA:0,_ZNSaIiEC2Ev
FNDA:0,_ZNSaISt6vectorIiSaIiEEEC2ERKS2_
FNDA:0,_ZNSaIiEC2ERKS_
FNDA:0,_ZNSaISt6vectorIiSaIiEEED2Ev
FNDA:0,_ZNSaIiED2Ev
FNF:6
FNH:0
DA:131,0
DA:133,0
DA:134,0
DA:139,0
LF:4
LH:0
end_of_record
SF:/usr/include/c++/7/bits/cpp_type_traits.h
FN:408,_ZSt12__miter_baseIPKiET_S2_
FN:408,_ZSt12__miter_baseIN9__gnu_cxx17__normal_iteratorIPKiSt6vectorIiSaIiEEEEET_S8_
FNDA:0,_ZSt12__miter_baseIN9__gnu_cxx17__normal_iteratorIPKiSt6vectorIiSaIiEEEEET_S8_
FNDA:0,_ZSt12__miter_baseIPKiET_S2_
FNF:2
FNH:0
DA:408,0
DA:409,0
LF:2
LH:0
end_of_record
SF:/usr/include/c++/7/bits/move.h
FN:47,_ZSt11__addressofISt6vectorIiSaIiEEEPT_RS3_
FN:73,_ZSt7forwardIRKSt6vectorIiSaIiEEEOT_RNSt16remove_referenceIS5_E4typeE
FNDA:0,_ZSt11__addressofISt6vectorIiSaIiEEEPT_RS3_
FNDA:0,_ZSt7forwardIRKSt6vectorIiSaIiEEEOT_RNSt16remove_referenceIS5_E4typeE
FNF:2
FNH:0
DA:47,0
DA:48,0
DA:73,0
DA:74,0
LF:4
LH:0
end_of_record
SF:/usr/include/c++/7/bits/stl_algobase.h
FN:277,_ZSt12__niter_baseIPKiET_S2_
FN:277,_ZSt12__niter_baseIPiET_S1_
FN:357,_ZNSt11__copy_moveILb0ELb1ESt26random_access_iterator_tagE8__copy_mIiEEPT_PKS3_S6_S4_
FN:375,_ZSt13__copy_move_aILb0EPKiPiET1_T0_S4_S3_
FN:420,_ZSt14__copy_move_a2ILb0EPKiPiET1_T0_S4_S3_
FN:420,_ZSt14__copy_move_a2ILb0EN9__gnu_cxx17__normal_iteratorIPKiSt6vectorIiSaIiEEEEPiET1_T0_SA_S9_
FN:446,_ZSt4copyIPKiPiET0_T_S4_S3_
FN:446,_ZSt4copyIN9__gnu_cxx17__normal_iteratorIPKiSt6vectorIiSaIiEEEEPiET0_T_SA_S9_
FNDA:0,_ZSt12__niter_baseIPiET_S1_
FNDA:0,_ZSt12__niter_baseIPKiET_S2_
FNDA:0,_ZNSt11__copy_moveILb0ELb1ESt26random_access_iterator_tagE8__copy_mIiEEPT_PKS3_S6_S4_
FNDA:0,_ZSt13__copy_move_aILb0EPKiPiET1_T0_S4_S3_
FNDA:0,_ZSt14__copy_move_a2ILb0EN9__gnu_cxx17__normal_iteratorIPKiSt6vectorIiSaIiEEEEPiET1_T0_SA_S9_
FNDA:0,_ZSt14__copy_move_a2ILb0EPKiPiET1_T0_S4_S3_
FNDA:0,_ZSt4copyIN9__gnu_cxx17__normal_iteratorIPKiSt6vectorIiSaIiEEEEPiET0_T_SA_S9_
FNDA:0,_ZSt4copyIPKiPiET0_T_S4_S3_
FNF:8
FNH:0
DA:277,0
DA:278,0
DA:357,0
DA:366,0
DA:367,0
DA:368,0
DA:369,0
DA:375,0
DA:380,0
DA:386,0
DA:420,0
DA:422,0
DA:424,0
DA:446,0
DA:455,0
DA:456,0
LF:16
LH:0
end_of_record
SF:/usr/include/c++/7/bits/stl_construct.h
FN:74,_ZSt10_ConstructISt6vectorIiSaIiEEJRKS2_EEvPT_DpOT0_
FN:97,_ZSt8_DestroyISt6vectorIiSaIiEEEvPT_
FN:105,_ZNSt12_Destroy_auxILb0EE9__destroyIPSt6vectorIiSaIiEEEEvT_S6_
FN:117,_ZNSt12_Destroy_auxILb1EE9__destroyIPiEEvT_S3_
FN:127,_ZSt8_DestroyIPSt6vectorIiSaIiEEEvT_S4_
FN:127,_ZSt8_DestroyIPiEvT_S1_
FN:203,_ZSt8_DestroyIPSt6vectorIiSaIiEES2_EvT_S4_RSaIT0_E
FN:203,_ZSt8_DestroyIPiiEvT_S1_RSaIT0_E
FNDA:0,_ZSt10_ConstructISt6vectorIiSaIiEEJRKS2_EEvPT_DpOT0_
FNDA:0,_ZSt8_DestroyISt6vectorIiSaIiEEEvPT_
FNDA:0,_ZNSt12_Destroy_auxILb0EE9__destroyIPSt6vectorIiSaIiEEEEvT_S6_
FNDA:0,_ZNSt12_Destroy_auxILb1EE9__destroyIPiEEvT_S3_
FNDA:0,_ZSt8_DestroyIPSt6vectorIiSaIiEEEvT_S4_
FNDA:0,_ZSt8_DestroyIPiEvT_S1_
FNDA:0,_ZSt8_DestroyIPSt6vectorIiSaIiEES2_EvT_S4_RSaIT0_E
FNDA:0,_ZSt8_DestroyIPiiEvT_S1_RSaIT0_E
FNF:8
FNH:0
DA:74,0
DA:75,0
DA:97,0
DA:98,0
DA:105,0
DA:107,0
DA:108,0
DA:109,0
DA:117,0
DA:127,0
DA:137,0
DA:138,0
DA:203,0
DA:206,0
DA:207,0
LF:15
LH:0
end_of_record
SF:/usr/include/c++/7/bits/stl_iterator.h
FN:782,_ZN9__gnu_cxx17__normal_iteratorIPKiSt6vectorIiSaIiEEEC2ERKS2_
FN:847,_ZNK9__gnu_cxx17__normal_iteratorIPKiSt6vectorIiSaIiEEE4baseEv
FN:986,_ZSt12__niter_baseIPKiSt6vectorIiSaIiEEET_N9__gnu_cxx17__normal_iteratorIS5_T0_EE
FNDA:0,_ZN9__gnu_cxx17__normal_iteratorIPKiSt6vectorIiSaIiEEEC2ERKS2_
FNDA:0,_ZNK9__gnu_cxx17__normal_iteratorIPKiSt6vectorIiSaIiEEE4baseEv
FNDA:0,_ZSt12__niter_baseIPKiSt6vectorIiSaIiEEET_N9__gnu_cxx17__normal_iteratorIS5_T0_EE
FNF:3
FNH:0
DA:782,0
DA:783,0
DA:847,0
DA:848,0
DA:986,0
DA:987,0
LF:6
LH:0
end_of_record
SF:/usr/include/c++/7/bits/stl_iterator_base_funcs.h
FN:98,_ZSt10__distanceIPKSt6vectorIiSaIiEEENSt15iterator_traitsIT_E15difference_typeES6_S6_St26random_access_iterator_tag
FN:98,_ZSt10__distanceIPKiENSt15iterator_traitsIT_E15difference_typeES3_S3_St26random_access_iterator_tag
FN:138,_ZSt8distanceIPKSt6vectorIiSaIiEEENSt15iterator_traitsIT_E15difference_typeES6_S6_
FN:138,_ZSt8distanceIPKiENSt15iterator_traitsIT_E15difference_typeES3_S3_
FNDA:0,_ZSt10__distanceIPKSt6vectorIiSaIiEEENSt15iterator_traitsIT_E15difference_typeES6_S6_St26random_access_iterator_tag
FNDA:0,_ZSt10__distanceIPKiENSt15iterator_traitsIT_E15difference_typeES3_S3_St26random_access_iterator_tag
FNDA:0,_ZSt8distanceIPKSt6vectorIiSaIiEEENSt15iterator_traitsIT_E15difference_typeES6_S6_
FNDA:0,_ZSt8distanceIPKiENSt15iterator_traitsIT_E15difference_typeES3_S3_
FNF:4
FNH:0
DA:98,0
DA:104,0
DA:138,0
DA:141,0
DA:142,0
LF:5
LH:0
end_of_record
SF:/usr/include/c++/7/bits/stl_iterator_base_types.h
FN:205,_ZSt19__iterator_categoryIPKiENSt15iterator_traitsIT_E17iterator_categoryERKS3_
FN:205,_ZSt19__iterator_categoryIPKSt6vectorIiSaIiEEENSt15iterator_traitsIT_E17iterator_categoryERKS6_
FNDA:0,_ZSt19__iterator_categoryIPKSt6vectorIiSaIiEEENSt15iterator_traitsIT_E17iterator_categoryERKS6_
FNDA:0,_ZSt19__iterator_categoryIPKiENSt15iterator_traitsIT_E17iterator_categoryERKS3_
FNF:2
FNH:0
DA:205,0
DA:206,0
LF:2
LH:0
end_of_record
SF:/usr/include/c++/7/bits/stl_uninitialized.h
FN:76,_ZNSt20__uninitialized_copyILb0EE13__uninit_copyIPKSt6vectorIiSaIiEEPS4_EET0_T_S9_S8_
FN:99,_ZNSt20__uninitialized_copyILb1EE13__uninit_copyIPKiPiEET0_T_S6_S5_
FN:99,_ZNSt20__uninitialized_copyILb1EE13__uninit_copyIN9__gnu_cxx17__normal_iteratorIPKiSt6vectorIiSaIiEEEEPiEET0_T_SC_SB_
FN:115,_ZSt18uninitialized_copyIPKSt6vectorIiSaIiEEPS2_ET0_T_S7_S6_
FN:115,_ZSt18uninitialized_copyIPKiPiET0_T_S4_S3_
FN:115,_ZSt18uninitialized_copyIN9__gnu_cxx17__normal_iteratorIPKiSt6vectorIiSaIiEEEEPiET0_T_SA_S9_
FN:287,_ZSt22__uninitialized_copy_aIPKiPiiET0_T_S4_S3_RSaIT1_E
FN:287,_ZSt22__uninitialized_copy_aIPKSt6vectorIiSaIiEEPS2_S2_ET0_T_S7_S6_RSaIT1_E
FN:287,_ZSt22__uninitialized_copy_aIN9__gnu_cxx17__normal_iteratorIPKiSt6vectorIiSaIiEEEEPiiET0_T_SA_S9_RSaIT1_E
FNDA:0,_ZNSt20__uninitialized_copyILb0EE13__uninit_copyIPKSt6vectorIiSaIiEEPS4_EET0_T_S9_S8_
FNDA:0,_ZNSt20__uninitialized_copyILb1EE13__uninit_copyIN9__gnu_cxx17__normal_iteratorIPKiSt6vectorIiSaIiEEEEPiEET0_T_SC_SB_
FNDA:0,_ZNSt20__uninitialized_copyILb1EE13__uninit_copyIPKiPiEET0_T_S6_S5_
FNDA:0,_ZSt18uninitialized_copyIN9__gnu_cxx17__normal_iteratorIPKiSt6vectorIiSaIiEEEEPiET0_T_SA_S9_
FNDA:0,_ZSt18uninitialized_copyIPKSt6vectorIiSaIiEEPS2_ET0_T_S7_S6_
FNDA:0,_ZSt18uninitialized_copyIPKiPiET0_T_S4_S3_
FNDA:0,_ZSt22__uninitialized_copy_aIN9__gnu_cxx17__normal_iteratorIPKiSt6vectorIiSaIiEEEEPiiET0_T_SA_S9_RSaIT1_E
FNDA:0,_ZSt22__uninitialized_copy_aIPKSt6vectorIiSaIiEEPS2_S2_ET0_T_S7_S6_RSaIT1_E
FNDA:0,_ZSt22__uninitialized_copy_aIPKiPiiET0_T_S4_S3_RSaIT1_E
FNF:9
FNH:0
DA:76,0
DA:79,0
DA:82,0
DA:83,0
DA:84,0
DA:86,0
DA:88,0
DA:89,0
DA:99,0
DA:101,0
DA:115,0
DA:128,0
DA:134,0
DA:287,0
DA:289,0
LF:15
LH:0
end_of_record
SF:/usr/include/c++/7/bits/stl_vector.h
FN:81,_ZNSt12_Vector_baseIiSaIiEE12_Vector_implD2Ev
FN:81,_ZNSt12_Vector_baseISt6vectorIiSaIiEESaIS2_EE12_Vector_implD2Ev
FN:92,_ZNSt12_Vector_baseISt6vectorIiSaIiEESaIS2_EE12_Vector_implC2ERKS3_
FN:92,_ZNSt12_Vector_baseIiSaIiEE12_Vector_implC2ERKS0_
FN:115,_ZNSt12_Vector_baseIiSaIiEE19_M_get_Tp_allocatorEv
FN:115,_ZNSt12_Vector_baseISt6vectorIiSaIiEESaIS2_EE19_M_get_Tp_allocatorEv
FN:119,_ZNKSt12_Vector_baseIiSaIiEE19_M_get_Tp_allocatorEv
FN:129,_ZNSt12_Vector_baseIiSaIiEEC2ERKS0_
FN:129,_ZNSt12_Vector_baseISt6vectorIiSaIiEESaIS2_EEC2ERKS3_
FN:136,_ZNSt12_Vector_baseIiSaIiEEC2EmRKS0_
FN:161,_ZNSt12_Vector_baseISt6vectorIiSaIiEESaIS2_EED2Ev
FN:161,_ZNSt12_Vector_baseIiSaIiEED2Ev
FN:169,_ZNSt12_Vector_baseIiSaIiEE11_M_allocateEm
FN:169,_ZNSt12_Vector_baseISt6vectorIiSaIiEESaIS2_EE11_M_allocateEm
FN:176,_ZNSt12_Vector_baseISt6vectorIiSaIiEESaIS2_EE13_M_deallocateEPS2_m
FN:176,_ZNSt12_Vector_baseIiSaIiEE13_M_deallocateEPim
FN:185,_ZNSt12_Vector_baseIiSaIiEE17_M_create_storageEm
FN:326,_ZNSt6vectorIiSaIiEEC2ERKS1_
FN:383,_ZNSt6vectorIiSaIiEEC2ESt16initializer_listIiERKS0_
FN:383,_ZNSt6vectorIS_IiSaIiEESaIS1_EEC2ESt16initializer_listIS1_ERKS2_
FN:433,_ZNSt6vectorIS_IiSaIiEESaIS1_EED2Ev
FN:433,_ZNSt6vectorIiSaIiEED2Ev
FN:572,_ZNKSt6vectorIiSaIiEE5beginEv
FN:590,_ZNKSt6vectorIiSaIiEE3endEv
FN:670,_ZNKSt6vectorIiSaIiEE4sizeEv
FN:1324,_ZNSt6vectorIS_IiSaIiEESaIS1_EE19_M_range_initializeIPKS1_EEvT_S7_St20forward_iterator_tag
FN:1324,_ZNSt6vectorIiSaIiEE19_M_range_initializeIPKiEEvT_S5_St20forward_iterator_tag
FNDA:0,_ZNSt12_Vector_baseISt6vectorIiSaIiEESaIS2_EE12_Vector_implD2Ev
FNDA:0,_ZNSt12_Vector_baseIiSaIiEE12_Vector_implD2Ev
FNDA:0,_ZNSt12_Vector_baseISt6vectorIiSaIiEESaIS2_EE12_Vector_implC2ERKS3_
FNDA:0,_ZNSt12_Vector_baseIiSaIiEE12_Vector_implC2ERKS0_
FNDA:0,_ZNSt12_Vector_baseISt6vectorIiSaIiEESaIS2_EE19_M_get_Tp_allocatorEv
FNDA:0,_ZNSt12_Vector_baseIiSaIiEE19_M_get_Tp_allocatorEv
FNDA:0,_ZNKSt12_Vector_baseIiSaIiEE19_M_get_Tp_allocatorEv
FNDA:0,_ZNSt12_Vector_baseISt6vectorIiSaIiEESaIS2_EEC2ERKS3_
FNDA:0,_ZNSt12_Vector_baseIiSaIiEEC2ERKS0_
FNDA:0,_ZNSt12_Vector_baseIiSaIiEEC2EmRKS0_
FNDA:0,_ZNSt12_Vector_baseISt6vectorIiSaIiEESaIS2_EED2Ev
FNDA:0,_ZNSt12_Vector_baseIiSaIiEED2Ev
FNDA:0,_ZNSt12_Vector_baseISt6vectorIiSaIiEESaIS2_EE11_M_allocateEm
FNDA:0,_ZNSt12_Vector_baseIiSaIiEE11_M_allocateEm
FNDA:0,_ZNSt12_Vector_baseISt6vectorIiSaIiEESaIS2_EE13_M_deallocateEPS2_m
FNDA:0,_ZNSt12_Vector_baseIiSaIiEE13_M_deallocateEPim
FNDA:0,_ZNSt12_Vector_baseIiSaIiEE17_M_create_storageEm
FNDA:0,_ZNSt6vectorIiSaIiEEC2ERKS1_
FNDA:0,_ZNSt6vectorIS_IiSaIiEESaIS1_EEC2ESt16initializer_listIS1_ERKS2_
FNDA:0,_ZNSt6vectorIiSaIiEEC2ESt16initializer_listIiERKS0_
FNDA:0,_ZNSt6vectorIS_IiSaIiEESaIS1_EED2Ev
FNDA:0,_ZNSt6vectorIiSaIiEED2Ev
FNDA:0,_ZNKSt6vectorIiSaIiEE5beginEv
FNDA:0,_ZNKSt6vectorIiSaIiEE3endEv
FNDA:0,_ZNKSt6vectorIiSaIiEE4sizeEv
FNDA:0,_ZNSt6vectorIS_IiSaIiEESaIS1_EE19_M_range_initializeIPKS1_EEvT_S7_St20forward_iterator_tag
FNDA:0,_ZNSt6vectorIiSaIiEE19_M_range_initializeIPKiEEvT_S5_St20forward_iterator_tag
FNF:27
FNH:0
DA:81,0
DA:92,0
DA:93,0
DA:94,0
DA:115,0
DA:116,0
DA:119,0
DA:120,0
DA:129,0
DA:130,0
DA:136,0
DA:137,0
DA:138,0
DA:161,0
DA:162,0
DA:163,0
DA:169,0
DA:172,0
DA:176,0
DA:179,0
DA:180,0
DA:181,0
DA:185,0
DA:187,0
DA:188,0
DA:189,0
DA:190,0
DA:326,0
DA:328,0
DA:330,0
DA:331,0
DA:333,0
DA:334,0
DA:383,0
DA:385,0
DA:387,0
DA:389,0
DA:433,0
DA:434,0
DA:435,0
DA:572,0
DA:573,0
DA:590,0
DA:591,0
DA:670,0
DA:671,0
DA:1324,0
DA:1327,0
DA:1328,0
DA:1329,0
DA:1330,0
DA:1331,0
DA:1333,0
DA:1334,0
LF:54
LH:0
end_of_record
SF:/usr/include/c++/7/bits/unique_ptr.h
FN:72,_ZNKSt14default_deleteINSt7__cxx1112basic_stringIcSt11char_traitsIcESaIcEEEEclEPS5_
FN:72,_ZNKSt14default_deleteINSt7__cxx1118basic_stringstreamIcSt11char_traitsIcESaIcEEEEclEPS5_
FN:146,_ZNSt15__uniq_ptr_implINSt7__cxx1112basic_stringIcSt11char_traitsIcESaIcEEESt14default_deleteIS5_EE6_M_ptrEv
FN:146,_ZNSt15__uniq_ptr_implINSt7__cxx1118basic_stringstreamIcSt11char_traitsIcESaIcEEESt14default_deleteIS5_EE6_M_ptrEv
FN:147,_ZNKSt15__uniq_ptr_implINSt7__cxx1112basic_stringIcSt11char_traitsIcESaIcEEESt14default_deleteIS5_EE6_M_ptrEv
FN:148,_ZNSt15__uniq_ptr_implINSt7__cxx1112basic_stringIcSt11char_traitsIcESaIcEEESt14default_deleteIS5_EE10_M_deleterEv
FN:148,_ZNSt15__uniq_ptr_implINSt7__cxx1118basic_stringstreamIcSt11char_traitsIcESaIcEEESt14default_deleteIS5_EE10_M_deleterEv
FN:264,_ZNSt10unique_ptrINSt7__cxx1118basic_stringstreamIcSt11char_traitsIcESaIcEEESt14default_deleteIS5_EED2Ev
FN:264,_ZNSt10unique_ptrINSt7__cxx1112basic_stringIcSt11char_traitsIcESaIcEEESt14default_deleteIS5_EED2Ev
FN:328,_ZNKSt10unique_ptrINSt7__cxx1112basic_stringIcSt11char_traitsIcESaIcEEESt14default_deleteIS5_EEptEv
FN:336,_ZNKSt10unique_ptrINSt7__cxx1112basic_stringIcSt11char_traitsIcESaIcEEESt14default_deleteIS5_EE3getEv
FN:341,_ZNSt10unique_ptrINSt7__cxx1112basic_stringIcSt11char_traitsIcESaIcEEESt14default_deleteIS5_EE11get_deleterEv
FN:341,_ZNSt10unique_ptrINSt7__cxx1118basic_stringstreamIcSt11char_traitsIcESaIcEEESt14default_deleteIS5_EE11get_deleterEv
FNDA:0,_ZNKSt14default_deleteINSt7__cxx1112basic_stringIcSt11char_traitsIcESaIcEEEEclEPS5_
FNDA:0,_ZNKSt14default_deleteINSt7__cxx1118basic_stringstreamIcSt11char_traitsIcESaIcEEEEclEPS5_
FNDA:0,_ZNSt15__uniq_ptr_implINSt7__cxx1112basic_stringIcSt11char_traitsIcESaIcEEESt14default_deleteIS5_EE6_M_ptrEv
FNDA:0,_ZNSt15__uniq_ptr_implINSt7__cxx1118basic_stringstreamIcSt11char_traitsIcESaIcEEESt14default_deleteIS5_EE6_M_ptrEv
FNDA:157,_ZNKSt15__uniq_ptr_implINSt7__cxx1112basic_stringIcSt11char_traitsIcESaIcEEESt14default_deleteIS5_EE6_M_ptrEv
FNDA:0,_ZNSt15__uniq_ptr_implINSt7__cxx1112basic_stringIcSt11char_traitsIcESaIcEEESt14default_deleteIS5_EE10_M_deleterEv
FNDA:0,_ZNSt15__uniq_ptr_implINSt7__cxx1118basic_stringstreamIcSt11char_traitsIcESaIcEEESt14default_deleteIS5_EE10_M_deleterEv
FNDA:0,_ZNSt10unique_ptrINSt7__cxx1112basic_stringIcSt11char_traitsIcESaIcEEESt14default_deleteIS5_EED2Ev
FNDA:0,_ZNSt10unique_ptrINSt7__cxx1118basic_stringstreamIcSt11char_traitsIcESaIcEEESt14default_deleteIS5_EED2Ev
FNDA:72,_ZNKSt10unique_ptrINSt7__cxx1112basic_stringIcSt11char_traitsIcESaIcEEESt14default_deleteIS5_EEptEv
FNDA:157,_ZNKSt10unique_ptrINSt7__cxx1112basic_stringIcSt11char_traitsIcESaIcEEESt14default_deleteIS5_EE3getEv
FNDA:0,_ZNSt10unique_ptrINSt7__cxx1112basic_stringIcSt11char_traitsIcESaIcEEESt14default_deleteIS5_EE11get_deleterEv
FNDA:0,_ZNSt10unique_ptrINSt7__cxx1118basic_stringstreamIcSt11char_traitsIcESaIcEEESt14default_deleteIS5_EE11get_deleterEv
FNF:13
FNH:3
DA:72,0
DA:78,0
DA:79,0
DA:146,0
DA:147,157
DA:148,0
DA:264,0
DA:266,0
DA:267,0
DA:268,0
DA:269,0
DA:270,0
DA:328,72
DA:331,72
DA:336,157
DA:337,157
DA:341,0
DA:342,0
LF:18
LH:5
end_of_record
SF:/usr/include/c++/7/ext/alloc_traits.h
FN:94,_ZN9__gnu_cxx14__alloc_traitsISaIiEE17_S_select_on_copyERKS1_
FNDA:0,_ZN9__gnu_cxx14__alloc_traitsISaIiEE17_S_select_on_copyERKS1_
FNF:1
FNH:0
DA:94,0
DA:95,0
LF:2
LH:0
end_of_record
SF:/usr/include/c++/7/ext/new_allocator.h
FN:79,_ZN9__gnu_cxx13new_allocatorIiEC2Ev
FN:79,_ZN9__gnu_cxx13new_allocatorISt6vectorIiSaIiEEEC2Ev
FN:81,_ZN9__gnu_cxx13new_allocatorIiEC2ERKS1_
FN:81,_ZN9__gnu_cxx13new_allocatorISt6vectorIiSaIiEEEC2ERKS4_
FN:86,_ZN9__gnu_cxx13new_allocatorIiED2Ev
FN:86,_ZN9__gnu_cxx13new_allocatorISt6vectorIiSaIiEEED2Ev
FN:99,_ZN9__gnu_cxx13new_allocatorIiE8allocateEmPKv
FN:99,_ZN9__gnu_cxx13new_allocatorISt6vectorIiSaIiEEE8allocateEmPKv
FN:116,_ZN9__gnu_cxx13new_allocatorIiE10deallocateEPim
FN:116,_ZN9__gnu_cxx13new_allocatorISt6vectorIiSaIiEEE10deallocateEPS3_m
FN:129,_ZNK9__gnu_cxx13new_allocatorISt6vectorIiSaIiEEE8max_sizeEv
FN:129,_ZNK9__gnu_cxx13new_allocatorIiE8max_sizeEv
FNDA:0,_ZN9__gnu_cxx13new_allocatorISt6vectorIiSaIiEEEC2Ev
FNDA:0,_ZN9__gnu_cxx13new_allocatorIiEC2Ev
FNDA:0,_ZN9__gnu_cxx13new_allocatorISt6vectorIiSaIiEEEC2ERKS4_
FNDA:0,_ZN9__gnu_cxx13new_allocatorIiEC2ERKS1_
FNDA:0,_ZN9__gnu_cxx13new_allocatorISt6vectorIiSaIiEEED2Ev
FNDA:0,_ZN9__gnu_cxx13new_allocatorIiED2Ev
FNDA:0,_ZN9__gnu_cxx13new_allocatorISt6vectorIiSaIiEEE8allocateEmPKv
FNDA:0,_ZN9__gnu_cxx13new_allocatorIiE8allocateEmPKv
FNDA:0,_ZN9__gnu_cxx13new_allocatorISt6vectorIiSaIiEEE10deallocateEPS3_m
FNDA:0,_ZN9__gnu_cxx13new_allocatorIiE10deallocateEPim
FNDA:0,_ZNK9__gnu_cxx13new_allocatorISt6vectorIiSaIiEEE8max_sizeEv
FNDA:0,_ZNK9__gnu_cxx13new_allocatorIiE8max_sizeEv
FNF:12
FNH:0
DA:79,0
DA:81,0
DA:86,0
DA:99,0
DA:101,0
DA:102,0
DA:111,0
DA:116,0
DA:125,0
DA:126,0
DA:129,0
DA:130,0
LF:12
LH:0
end_of_record
SF:/usr/include/c++/7/initializer_list
FN:71,_ZNKSt16initializer_listISt6vectorIiSaIiEEE4sizeEv
FN:71,_ZNKSt16initializer_listIiE4sizeEv
FN:75,_ZNKSt16initializer_listISt6vectorIiSaIiEEE5beginEv
FN:75,_ZNKSt16initializer_listIiE5beginEv
FN:79,_ZNKSt16initializer_listISt6vectorIiSaIiEEE3endEv
FN:79,_ZNKSt16initializer_listIiE3endEv
FNDA:0,_ZNKSt16initializer_listISt6vectorIiSaIiEEE4sizeEv
FNDA:0,_ZNKSt16initializer_listIiE4sizeEv
FNDA:0,_ZNKSt16initializer_listISt6vectorIiSaIiEEE5beginEv
FNDA:0,_ZNKSt16initializer_listIiE5beginEv
FNDA:0,_ZNKSt16initializer_listISt6vectorIiSaIiEEE3endEv
FNDA:0,_ZNKSt16initializer_listIiE3endEv
FNF:6
FNH:0
DA:71,0
DA:75,0
DA:79,0
LF:3
LH:0
end_of_record
SF:/usr/include/c++/7/iostream
DA:74,12
LF:1
LH:1
end_of_record
SF:/usr/include/c++/7/new
FN:168,_ZnwmPv
FN:174,_ZdlPvS_
FNDA:0,_ZnwmPv
FNDA:0,_ZdlPvS_
FNF:2
FNH:0
DA:168,0
DA:169,0
DA:174,0
LF:3
LH:0
end_of_record
SF:/usr/include/c++/7/tuple
FN:113,_ZNSt10_Head_baseILm1ESt14default_deleteINSt7__cxx1112basic_stringIcSt11char_traitsIcESaIcEEEELb1EE7_M_headERS8_
FN:113,_ZNSt10_Head_baseILm1ESt14default_deleteINSt7__cxx1118basic_stringstreamIcSt11char_traitsIcESaIcEEEELb1EE7_M_headERS8_
FN:160,_ZNSt10_Head_baseILm0EPNSt7__cxx1112basic_stringIcSt11char_traitsIcESaIcEEELb0EE7_M_headERS7_
FN:160,_ZNSt10_Head_baseILm0EPNSt7__cxx1118basic_stringstreamIcSt11char_traitsIcESaIcEEELb0EE7_M_headERS7_
FN:163,_ZNSt10_Head_baseILm0EPNSt7__cxx1112basic_stringIcSt11char_traitsIcESaIcEEELb0EE7_M_headERKS7_
FN:195,_ZNSt11_Tuple_implILm0EJPNSt7__cxx1112basic_stringIcSt11char_traitsIcESaIcEEESt14default_deleteIS5_EEE7_M_headERS9_
FN:195,_ZNSt11_Tuple_implILm0EJPNSt7__cxx1118basic_stringstreamIcSt11char_traitsIcESaIcEEESt14default_deleteIS5_EEE7_M_headERS9_
FN:198,_ZNSt11_Tuple_implILm0EJPNSt7__cxx1112basic_stringIcSt11char_traitsIcESaIcEEESt14default_deleteIS5_EEE7_M_headERKS9_
FN:351,_ZNSt11_Tuple_implILm1EJSt14default_deleteINSt7__cxx1118basic_stringstreamIcSt11char_traitsIcESaIcEEEEEE7_M_headERS8_
FN:351,_ZNSt11_Tuple_implILm1EJSt14default_deleteINSt7__cxx1112basic_stringIcSt11char_traitsIcESaIcEEEEEE7_M_headERS8_
FN:1303,_ZSt12__get_helperILm0EPNSt7__cxx1112basic_stringIcSt11char_traitsIcESaIcEEEJSt14default_deleteIS5_EEERT0_RSt11_Tuple_implIXT_EJS9_DpT1_EE
FN:1303,_ZSt12__get_helperILm0EPNSt7__cxx1118basic_stringstreamIcSt11char_traitsIcESaIcEEEJSt14default_deleteIS5_EEERT0_RSt11_Tuple_implIXT_EJS9_DpT1_EE
FN:1303,_ZSt12__get_helperILm1ESt14default_deleteINSt7__cxx1112basic_stringIcSt11char_traitsIcESaIcEEEEJEERT0_RSt11_Tuple_implIXT_EJS8_DpT1_EE
FN:1303,_ZSt12__get_helperILm1ESt14default_deleteINSt7__cxx1118basic_stringstreamIcSt11char_traitsIcESaIcEEEEJEERT0_RSt11_Tuple_implIXT_EJS8_DpT1_EE
FN:1308,_ZSt12__get_helperILm0EPNSt7__cxx1112basic_stringIcSt11char_traitsIcESaIcEEEJSt14default_deleteIS5_EEERKT0_RKSt11_Tuple_implIXT_EJS9_DpT1_EE
FN:1314,_ZSt3getILm1EJPNSt7__cxx1112basic_stringIcSt11char_traitsIcESaIcEEESt14default_deleteIS5_EEERNSt13tuple_elementIXT_ESt5tupleIJDpT0_EEE4typeERSD_
FN:1314,_ZSt3getILm1EJPNSt7__cxx1118basic_stringstreamIcSt11char_traitsIcESaIcEEESt14default_deleteIS5_EEERNSt13tuple_elementIXT_ESt5tupleIJDpT0_EEE4typeERSD_
FN:1314,_ZSt3getILm0EJPNSt7__cxx1118basic_stringstreamIcSt11char_traitsIcESaIcEEESt14default_deleteIS5_EEERNSt13tuple_elementIXT_ESt5tupleIJDpT0_EEE4typeERSD_
FN:1314,_ZSt3getILm0EJPNSt7__cxx1112basic_stringIcSt11char_traitsIcESaIcEEESt14default_deleteIS5_EEERNSt13tuple_elementIXT_ESt5tupleIJDpT0_EEE4typeERSD_
FN:1320,_ZSt3getILm0EJPNSt7__cxx1112basic_stringIcSt11char_traitsIcESaIcEEESt14default_deleteIS5_EEERKNSt13tuple_elementIXT_ESt5tupleIJDpT0_EEE4typeERKSD_
FNDA:0,_ZNSt10_Head_baseILm1ESt14default_deleteINSt7__cxx1112basic_stringIcSt11char_traitsIcESaIcEEEELb1EE7_M_headERS8_
FNDA:0,_ZNSt10_Head_baseILm1ESt14default_deleteINSt7__cxx1118basic_stringstreamIcSt11char_traitsIcESaIcEEEELb1EE7_M_headERS8_
FNDA:0,_ZNSt10_Head_baseILm0EPNSt7__cxx1112basic_stringIcSt11char_traitsIcESaIcEEELb0EE7_M_headERS7_
FNDA:0,_ZNSt10_Head_baseILm0EPNSt7__cxx1118basic_stringstreamIcSt11char_traitsIcESaIcEEELb0EE7_M_headERS7_
FNDA:157,_ZNSt10_Head_baseILm0EPNSt7__cxx1112basic_stringIcSt11char_traitsIcESaIcEEELb0EE7_M_headERKS7_
FNDA:0,_ZNSt11_Tuple_implILm0EJPNSt7__cxx1112basic_stringIcSt11char_traitsIcESaIcEEESt14default_deleteIS5_EEE7_M_headERS9_
FNDA:0,_ZNSt11_Tuple_implILm0EJPNSt7__cxx1118basic_stringstreamIcSt11char_traitsIcESaIcEEESt14default_deleteIS5_EEE7_M_headERS9_
FNDA:157,_ZNSt11_Tuple_implILm0EJPNSt7__cxx1112basic_stringIcSt11char_traitsIcESaIcEEESt14default_deleteIS5_EEE7_M_headERKS9_
FNDA:0,_ZNSt11_Tuple_implILm1EJSt14default_deleteINSt7__cxx1112basic_stringIcSt11char_traitsIcESaIcEEEEEE7_M_headERS8_
FNDA:0,_ZNSt11_Tuple_implILm1EJSt14default_deleteINSt7__cxx1118basic_stringstreamIcSt11char_traitsIcESaIcEEEEEE7_M_headERS8_
FNDA:0,_ZSt12__get_helperILm1ESt14default_deleteINSt7__cxx1112basic_stringIcSt11char_traitsIcESaIcEEEEJEERT0_RSt11_Tuple_implIXT_EJS8_DpT1_EE
FNDA:0,_ZSt12__get_helperILm1ESt14default_deleteINSt7__cxx1118basic_stringstreamIcSt11char_traitsIcESaIcEEEEJEERT0_RSt11_Tuple_implIXT_EJS8_DpT1_EE
FNDA:0,_ZSt12__get_helperILm0EPNSt7__cxx1112basic_stringIcSt11char_traitsIcESaIcEEEJSt14default_deleteIS5_EEERT0_RSt11_Tuple_implIXT_EJS9_DpT1_EE
FNDA:0,_ZSt12__get_helperILm0EPNSt7__cxx1118basic_stringstreamIcSt11char_traitsIcESaIcEEEJSt14default_deleteIS5_EEERT0_RSt11_Tuple_implIXT_EJS9_DpT1_EE
FNDA:157,_ZSt12__get_helperILm0EPNSt7__cxx1112basic_stringIcSt11char_traitsIcESaIcEEEJSt14default_deleteIS5_EEERKT0_RKSt11_Tuple_implIXT_EJS9_DpT1_EE
FNDA:0,_ZSt3getILm1EJPNSt7__cxx1112basic_stringIcSt11char_traitsIcESaIcEEESt14default_deleteIS5_EEERNSt13tuple_elementIXT_ESt5tupleIJDpT0_EEE4typeERSD_
FNDA:0,_ZSt3getILm1EJPNSt7__cxx1118basic_stringstreamIcSt11char_traitsIcESaIcEEESt14default_deleteIS5_EEERNSt13tuple_elementIXT_ESt5tupleIJDpT0_EEE4typeERSD_
FNDA:0,_ZSt3getILm0EJPNSt7__cxx1112basic_stringIcSt11char_traitsIcESaIcEEESt14default_deleteIS5_EEERNSt13tuple_elementIXT_ESt5tupleIJDpT0_EEE4typeERSD_
FNDA:0,_ZSt3getILm0EJPNSt7__cxx1118basic_stringstreamIcSt11char_traitsIcESaIcEEESt14default_deleteIS5_EEERNSt13tuple_elementIXT_ESt5tupleIJDpT0_EEE4typeERSD_
FNDA:157,_ZSt3getILm0EJPNSt7__cxx1112basic_stringIcSt11char_traitsIcESaIcEEESt14default_deleteIS5_EEERKNSt13tuple_elementIXT_ESt5tupleIJDpT0_EEE4typeERKSD_
FNF:20
FNH:4
DA:113,0
DA:160,0
DA:163,157
DA:195,0
DA:198,157
DA:351,0
DA:1303,0
DA:1304,0
DA:1308,157
DA:1309,157
DA:1314,0
DA:1315,0
DA:1320,157
DA:1321,157
LF:14
LH:6
end_of_record
TN:
SF:/home/fyulita/Desktop/tpi/algo1-TPI/lib/googletest-master/googletest/include/gtest/gtest-message.h
FN:91,_ZN7testing7MessageD2Ev
FNDA:0,_ZN7testing7MessageD2Ev
FNF:1
FNH:0
DA:91,0
LF:1
LH:0
end_of_record
SF:/home/fyulita/Desktop/tpi/algo1-TPI/lib/googletest-master/googletest/include/gtest/gtest.h
FN:275,_ZN7testing15AssertionResultD2Ev
FN:293,_ZN7testing15AssertionResultC2IbEERKT_PNSt9enable_ifIXntsrSt14is_convertibleIS2_S0_E5valueEvE4typeE
FN:312,_ZNK7testing15AssertionResultcvbEv
FN:417,_ZN7testing4Test14SetUpTestSuiteEv
FN:427,_ZN7testing4Test17TearDownTestSuiteEv
FN:431,_ZN7testing4Test16TearDownTestCaseEv
FN:432,_ZN7testing4Test13SetUpTestCaseEv
FN:513,_ZN7testing4Test5SetupEv
FNDA:0,_ZN7testing15AssertionResultD2Ev
FNDA:0,_ZN7testing15AssertionResultC2IbEERKT_PNSt9enable_ifIXntsrSt14is_convertibleIS2_S0_E5valueEvE4typeE
FNDA:0,_ZNK7testing15AssertionResultcvbEv
FNDA:0,_ZN7testing4Test14SetUpTestSuiteEv
FNDA:0,_ZN7testing4Test17TearDownTestSuiteEv
FNDA:0,_ZN7testing4Test16TearDownTestCaseEv
FNDA:0,_ZN7testing4Test13SetUpTestCaseEv
FNDA:0,_ZN7testing4Test5SetupEv
FNF:8
FNH:0
DA:275,0
DA:293,0
DA:299,0
DA:312,0
DA:417,0
DA:427,0
DA:431,0
DA:432,0
DA:513,0
LF:9
LH:0
end_of_record
SF:/home/fyulita/Desktop/tpi/algo1-TPI/lib/googletest-master/googletest/include/gtest/internal/gtest-internal.h
FN:442,_ZN7testing8internal15TestFactoryBaseD2Ev
FN:442,_ZN7testing8internal15TestFactoryBaseD0Ev
FN:449,_ZN7testing8internal15TestFactoryBaseC2Ev
FN:458,_ZN7testing8internal15TestFactoryImplI50calcularContornoTest_CalcularContornoCruz4Ady_TestED0Ev
FN:458,_ZN7testing8internal15TestFactoryImplI56calcularContornoTest_CalcularContornoTodoActivo4Ady_TestED0Ev
FN:458,_ZN7testing8internal15TestFactoryImplI56calcularContornoTest_CalcularContornoTodoActivo8Ady_TestEC2Ev
FN:458,_ZN7testing8internal15TestFactoryImplI56calcularContornoTest_CalcularContornoTodoActivo4Ady_TestED2Ev
FN:458,_ZN7testing8internal15TestFactoryImplI50calcularContornoTest_CalcularContornoCruz8Ady_TestEC2Ev
FN:458,_ZN7testing8internal15TestFactoryImplI56calcularContornoTest_CalcularContornoTodoActivo8Ady_TestED2Ev
FN:458,_ZN7testing8internal15TestFactoryImplI50calcularContornoTest_CalcularContornoCruz4Ady_TestED2Ev
FN:458,_ZN7testing8internal15TestFactoryImplI50calcularContornoTest_CalcularContornoCruz4Ady_TestEC2Ev
FN:458,_ZN7testing8internal15TestFactoryImplI50calcularContornoTest_CalcularContornoCruz8Ady_TestED2Ev
FN:458,_ZN7testing8internal15TestFactoryImplI56calcularContornoTest_CalcularContornoTodoActivo4Ady_TestEC2Ev
FN:458,_ZN7testing8internal15TestFactoryImplI56calcularContornoTest_CalcularContornoTodoActivo8Ady_TestED0Ev
FN:458,_ZN7testing8internal15TestFactoryImplI50calcularContornoTest_CalcularContornoCruz8Ady_TestED0Ev
FN:460,_ZN7testing8internal15TestFactoryImplI56calcularContornoTest_CalcularContornoTodoActivo4Ady_TestE10CreateTestEv
FN:460,_ZN7testing8internal15TestFactoryImplI56calcularContornoTest_CalcularContornoTodoActivo8Ady_TestE10CreateTestEv
FN:460,_ZN7testing8internal15TestFactoryImplI50calcularContornoTest_CalcularContornoCruz8Ady_TestE10CreateTestEv
FN:460,_ZN7testing8internal15TestFactoryImplI50calcularContornoTest_CalcularContornoCruz4Ady_TestE10CreateTestEv
FN:480,_ZN7testing8internal12CodeLocationD2Ev
FN:481,_ZN7testing8internal12CodeLocationC2ERKNSt7__cxx1112basic_stringIcSt11char_traitsIcESaIcEEEi
FN:494,_ZN7testing8internal19GetNotDefaultOrNullEPFvvES2_
FN:509,_ZN7testing8internal16SuiteApiResolverINS_4TestEE19GetSetUpCaseOrSuiteEPKci
FN:524,_ZN7testing8internal16SuiteApiResolverINS_4TestEE22GetTearDownCaseOrSuiteEPKci
FNDA:0,_ZN7testing8internal15TestFactoryBaseD0Ev
FNDA:0,_ZN7testing8internal15TestFactoryBaseD2Ev
FNDA:0,_ZN7testing8internal15TestFactoryBaseC2Ev
FNDA:12,_ZN7testing8internal15TestFactoryImplI56calcularContornoTest_CalcularContornoTodoActivo4Ady_TestED0Ev
FNDA:12,_ZN7testing8internal15TestFactoryImplI56calcularContornoTest_CalcularContornoTodoActivo4Ady_TestED2Ev
FNDA:12,_ZN7testing8internal15TestFactoryImplI56calcularContornoTest_CalcularContornoTodoActivo8Ady_TestED0Ev
FNDA:12,_ZN7testing8internal15TestFactoryImplI56calcularContornoTest_CalcularContornoTodoActivo8Ady_TestED2Ev
FNDA:12,_ZN7testing8internal15TestFactoryImplI50calcularContornoTest_CalcularContornoCruz4Ady_TestED0Ev
FNDA:12,_ZN7testing8internal15TestFactoryImplI50calcularContornoTest_CalcularContornoCruz4Ady_TestED2Ev
FNDA:12,_ZN7testing8internal15TestFactoryImplI50calcularContornoTest_CalcularContornoCruz8Ady_TestED0Ev
FNDA:12,_ZN7testing8internal15TestFactoryImplI50calcularContornoTest_CalcularContornoCruz8Ady_TestED2Ev
FNDA:12,_ZN7testing8internal15TestFactoryImplI50calcularContornoTest_CalcularContornoCruz8Ady_TestEC2Ev
FNDA:12,_ZN7testing8internal15TestFactoryImplI50calcularContornoTest_CalcularContornoCruz4Ady_TestEC2Ev
FNDA:12,_ZN7testing8internal15TestFactoryImplI56calcularContornoTest_CalcularContornoTodoActivo8Ady_TestEC2Ev
FNDA:12,_ZN7testing8internal15TestFactoryImplI56calcularContornoTest_CalcularContornoTodoActivo4Ady_TestEC2Ev
FNDA:4,_ZN7testing8internal15TestFactoryImplI56calcularContornoTest_CalcularContornoTodoActivo4Ady_TestE10CreateTestEv
FNDA:4,_ZN7testing8internal15TestFactoryImplI56calcularContornoTest_CalcularContornoTodoActivo8Ady_TestE10CreateTestEv
FNDA:4,_ZN7testing8internal15TestFactoryImplI50calcularContornoTest_CalcularContornoCruz4Ady_TestE10CreateTestEv
FNDA:4,_ZN7testing8internal15TestFactoryImplI50calcularContornoTest_CalcularContornoCruz8Ady_TestE10CreateTestEv
FNDA:0,_ZN7testing8internal12CodeLocationD2Ev
FNDA:0,_ZN7testing8internal12CodeLocationC2ERKNSt7__cxx1112basic_stringIcSt11char_traitsIcESaIcEEEi
FNDA:0,_ZN7testing8internal19GetNotDefaultOrNullEPFvvES2_
FNDA:0,_ZN7testing8internal16SuiteApiResolverINS_4TestEE19GetSetUpCaseOrSuiteEPKci
FNDA:0,_ZN7testing8internal16SuiteApiResolverINS_4TestEE22GetTearDownCaseOrSuiteEPKci
FNF:24
FNH:16
DA:442,0
DA:449,0
DA:458,144
DA:460,16
DA:480,0
DA:481,0
DA:482,0
DA:494,0
DA:496,0
DA:509,0
DA:511,0
DA:513,0
DA:516,0
DA:519,0
DA:521,0
DA:524,0
DA:526,0
DA:528,0
DA:531,0
DA:534,0
DA:536,0
LF:21
LH:2
end_of_record
SF:/home/fyulita/Desktop/tpi/algo1-TPI/lib/googletest-master/googletest/include/gtest/internal/gtest-port.h
FN:942,_ZN7testing8internal8GTestLog9GetStreamEv
FNDA:0,_ZN7testing8internal8GTestLog9GetStreamEv
FNF:1
FNH:0
DA:942,0
LF:1
LH:0
end_of_record
SF:/home/fyulita/Desktop/tpi/algo1-TPI/tests/ej4TEST.cpp
FN:5,_Z13sonLosActivosRKSt6vectorIS_IiSaIiEESaIS1_EES5_
FN:22,_ZN56calcularContornoTest_CalcularContornoTodoActivo4Ady_TestD2Ev
FN:22,_ZN56calcularContornoTest_CalcularContornoTodoActivo4Ady_TestD0Ev
FN:22,_ZN56calcularContornoTest_CalcularContornoTodoActivo4Ady_TestC2Ev
FN:22,_ZN56calcularContornoTest_CalcularContornoTodoActivo4Ady_Test8TestBodyEv
FN:38,_ZN56calcularContornoTest_CalcularContornoTodoActivo8Ady_Test8TestBodyEv
FN:38,_ZN56calcularContornoTest_CalcularContornoTodoActivo8Ady_TestC2Ev
FN:38,_ZN56calcularContornoTest_CalcularContornoTodoActivo8Ady_TestD2Ev
FN:38,_ZN56calcularContornoTest_CalcularContornoTodoActivo8Ady_TestD0Ev
FN:54,_ZN50calcularContornoTest_CalcularContornoCruz4Ady_Test8TestBodyEv
FN:54,_ZN50calcularContornoTest_CalcularContornoCruz4Ady_TestC2Ev
FN:54,_ZN50calcularContornoTest_CalcularContornoCruz4Ady_TestD2Ev
FN:54,_ZN50calcularContornoTest_CalcularContornoCruz4Ady_TestD0Ev
FN:74,_ZN50calcularContornoTest_CalcularContornoCruz8Ady_TestD0Ev
FN:74,_ZN50calcularContornoTest_CalcularContornoCruz8Ady_Test8TestBodyEv
FN:74,_ZN50calcularContornoTest_CalcularContornoCruz8Ady_TestC2Ev
FN:74,_ZN50calcularContornoTest_CalcularContornoCruz8Ady_TestD2Ev
FN:92,_Z41__static_initialization_and_destruction_0ii
FN:92,_GLOBAL__sub_I__Z13sonLosActivosRKSt6vectorIS_IiSaIiEESaIS1_EES5_
FNDA:16,_Z13sonLosActivosRKSt6vectorIS_IiSaIiEESaIS1_EES5_
FNDA:4,_ZN56calcularContornoTest_CalcularContornoTodoActivo4Ady_TestD0Ev
FNDA:4,_ZN56calcularContornoTest_CalcularContornoTodoActivo4Ady_TestD2Ev
FNDA:4,_ZN56calcularContornoTest_CalcularContornoTodoActivo4Ady_Test8TestBodyEv
FNDA:4,_ZN56calcularContornoTest_CalcularContornoTodoActivo4Ady_TestC2Ev
FNDA:4,_ZN56calcularContornoTest_CalcularContornoTodoActivo8Ady_TestD0Ev
FNDA:4,_ZN56calcularContornoTest_CalcularContornoTodoActivo8Ady_TestD2Ev
FNDA:4,_ZN56calcularContornoTest_CalcularContornoTodoActivo8Ady_Test8TestBodyEv
FNDA:4,_ZN56calcularContornoTest_CalcularContornoTodoActivo8Ady_TestC2Ev
FNDA:4,_ZN50calcularContornoTest_CalcularContornoCruz4Ady_TestD0Ev
FNDA:4,_ZN50calcularContornoTest_CalcularContornoCruz4Ady_TestD2Ev
FNDA:4,_ZN50calcularContornoTest_CalcularContornoCruz4Ady_Test8TestBodyEv
FNDA:4,_ZN50calcularContornoTest_CalcularContornoCruz4Ady_TestC2Ev
FNDA:4,_ZN50calcularContornoTest_CalcularContornoCruz8Ady_TestD0Ev
FNDA:4,_ZN50calcularContornoTest_CalcularContornoCruz8Ady_TestD2Ev
FNDA:4,_ZN50calcularContornoTest_CalcularContornoCruz8Ady_Test8TestBodyEv
FNDA:4,_ZN50calcularContornoTest_CalcularContornoCruz8Ady_TestC2Ev
FNDA:12,_GLOBAL__sub_I__Z13sonLosActivosRKSt6vectorIS_IiSaIiEESaIS1_EES5_
FNDA:12,_Z41__static_initialization_and_destruction_0ii
FNF:19
FNH:19
DA:5,16
DA:6,32
DA:7,96
DA:8,496
DA:9,416
DA:10,352
DA:11,176
DA:16,16
DA:17,32
DA:18,16
DA:19,32
DA:22,28
DA:28,8
DA:34,8
DA:35,4
DA:36,4
DA:38,28
DA:44,8
DA:50,8
DA:51,4
DA:52,4
DA:54,28
DA:62,8
DA:70,8
DA:71,4
DA:72,4
DA:74,28
DA:82,8
DA:90,8
DA:91,4
DA:92,40
LF:31
LH:31
end_of_record
SF:/usr/include/c++/7/bits/alloc_traits.h
FN:435,_ZNSt16allocator_traitsISaISt6vectorIiSaIiEEEE8allocateERS3_m
FN:435,_ZNSt16allocator_traitsISaIiEE8allocateERS0_m
FN:461,_ZNSt16allocator_traitsISaIiEE10deallocateERS0_Pim
FN:461,_ZNSt16allocator_traitsISaISt6vectorIiSaIiEEEE10deallocateERS3_PS2_m
FN:474,_ZNSt16allocator_traitsISaISt6vectorIiSaIiEEEE9constructIS2_JRKS2_EEEvRS3_PT_DpOT0_
FN:486,_ZNSt16allocator_traitsISaISt6vectorIiSaIiEEEE7destroyIS2_EEvRS3_PT_
FN:495,_ZNSt16allocator_traitsISaISt6vectorIiSaIiEEEE8max_sizeERKS3_
FN:504,_ZNSt16allocator_traitsISaISt6vectorIiSaIiEEEE37select_on_container_copy_constructionERKS3_
FN:504,_ZNSt16allocator_traitsISaIiEE37select_on_container_copy_constructionERKS0_
FN:535,_ZSt18__do_alloc_on_moveISaIiEEvRT_S2_St17integral_constantIbLb1EE
FN:543,_ZSt15__alloc_on_moveISaIiEEvRT_S2_
FN:558,_ZSt18__do_alloc_on_swapISaIiEEvRT_S2_St17integral_constantIbLb0EE
FN:562,_ZSt15__alloc_on_swapISaIiEEvRT_S2_
FNDA:0,_ZNSt16allocator_traitsISaISt6vectorIiSaIiEEEE8allocateERS3_m
FNDA:0,_ZNSt16allocator_traitsISaIiEE8allocateERS0_m
FNDA:0,_ZNSt16allocator_traitsISaIiEE10deallocateERS0_Pim
FNDA:0,_ZNSt16allocator_traitsISaISt6vectorIiSaIiEEEE10deallocateERS3_PS2_m
FNDA:0,_ZNSt16allocator_traitsISaISt6vectorIiSaIiEEEE9constructIS2_JRKS2_EEEvRS3_PT_DpOT0_
FNDA:0,_ZNSt16allocator_traitsISaISt6vectorIiSaIiEEEE7destroyIS2_EEvRS3_PT_
FNDA:0,_ZNSt16allocator_traitsISaISt6vectorIiSaIiEEEE8max_sizeERKS3_
FNDA:0,_ZNSt16allocator_traitsISaIiEE37select_on_container_copy_constructionERKS0_
FNDA:0,_ZNSt16allocator_traitsISaISt6vectorIiSaIiEEEE37select_on_container_copy_constructionERKS3_
FNDA:320,_ZSt18__do_alloc_on_moveISaIiEEvRT_S2_St17integral_constantIbLb1EE
FNDA:320,_ZSt15__alloc_on_moveISaIiEEvRT_S2_
FNDA:0,_ZSt18__do_alloc_on_swapISaIiEEvRT_S2_St17integral_constantIbLb0EE
FNDA:0,_ZSt15__alloc_on_swapISaIiEEvRT_S2_
FNF:13
FNH:2
DA:435,0
DA:436,0
DA:461,0
DA:462,0
DA:474,0
DA:475,0
DA:486,0
DA:487,0
DA:495,0
DA:496,0
DA:504,0
DA:505,0
DA:535,320
DA:536,320
DA:543,320
DA:547,320
DA:548,320
DA:558,0
DA:559,0
DA:562,0
DA:566,0
DA:567,0
LF:22
LH:5
end_of_record
SF:/usr/include/c++/7/bits/allocator.h
FN:131,_ZNSaISt6vectorIiSaIiEEEC2Ev
FN:131,_ZNSaIiEC2Ev
FN:133,_ZNSaIiEC2ERKS_
FN:133,_ZNSaISt6vectorIiSaIiEEEC2ERKS2_
FN:139,_ZNSaIiED2Ev
FN:139,_ZNSaISt6vectorIiSaIiEEED2Ev
FNDA:0,_ZNSaISt6vectorIiSaIiEEEC2Ev
FNDA:0,_ZNSaIiEC2Ev
FNDA:0,_ZNSaIiEC2ERKS_
FNDA:0,_ZNSaISt6vectorIiSaIiEEEC2ERKS2_
FNDA:0,_ZNSaISt6vectorIiSaIiEEED2Ev
FNDA:0,_ZNSaIiED2Ev
FNF:6
FNH:0
DA:131,0
DA:133,0
DA:134,0
DA:139,0
LF:4
LH:0
end_of_record
SF:/usr/include/c++/7/bits/cpp_type_traits.h
FN:408,_ZSt12__miter_baseIN9__gnu_cxx17__normal_iteratorIPKiSt6vectorIiSaIiEEEEET_S8_
FN:408,_ZSt12__miter_baseIN9__gnu_cxx17__normal_iteratorIPSt6vectorIiSaIiEES2_IS4_SaIS4_EEEEET_S9_
FN:408,_ZSt12__miter_baseIPKiET_S2_
FNDA:0,_ZSt12__miter_baseIN9__gnu_cxx17__normal_iteratorIPKiSt6vectorIiSaIiEEEEET_S8_
FNDA:0,_ZSt12__miter_baseIPKiET_S2_
FNDA:0,_ZSt12__miter_baseIN9__gnu_cxx17__normal_iteratorIPSt6vectorIiSaIiEES2_IS4_SaIS4_EEEEET_S9_
FNF:3
FNH:0
DA:408,0
DA:409,0
LF:2
LH:0
end_of_record
SF:/usr/include/c++/7/bits/move.h
FN:47,_ZSt11__addressofISt6vectorIiSaIiEEEPT_RS3_
FN:73,_ZSt7forwardISt6vectorIiSaIiEEEOT_RNSt16remove_referenceIS3_E4typeE
FN:73,_ZSt7forwardIRKSt6vectorIiSaIiEEEOT_RNSt16remove_referenceIS5_E4typeE
FN:98,_ZSt4moveIRSt6vectorIiSaIiEEEONSt16remove_referenceIT_E4typeEOS5_
FN:98,_ZSt4moveIRN9__gnu_cxx5__ops15_Iter_less_iterEEONSt16remove_referenceIT_E4typeEOS5_
FN:98,_ZSt4moveIRSaIiEEONSt16remove_referenceIT_E4typeEOS3_
FN:98,_ZSt4moveIRPiEONSt16remove_referenceIT_E4typeEOS3_
FN:187,_ZSt4swapIPiENSt9enable_ifIXsrSt6__and_IJSt6__not_ISt15__is_tuple_likeIT_EESt21is_move_constructibleIS5_ESt18is_move_assignableIS5_EEE5valueEvE4typeERS5_SF_
FNDA:0,_ZSt11__addressofISt6vectorIiSaIiEEEPT_RS3_
FNDA:0,_ZSt7forwardISt6vectorIiSaIiEEEOT_RNSt16remove_referenceIS3_E4typeE
FNDA:0,_ZSt7forwardIRKSt6vectorIiSaIiEEEOT_RNSt16remove_referenceIS5_E4typeE
FNDA:0,_ZSt4moveIRPiEONSt16remove_referenceIT_E4typeEOS3_
FNDA:0,_ZSt4moveIRSaIiEEONSt16remove_referenceIT_E4typeEOS3_
FNDA:0,_ZSt4moveIRN9__gnu_cxx5__ops15_Iter_less_iterEEONSt16remove_referenceIT_E4typeEOS5_
FNDA:0,_ZSt4moveIRSt6vectorIiSaIiEEEONSt16remove_referenceIT_E4typeEOS5_
FNDA:0,_ZSt4swapIPiENSt9enable_ifIXsrSt6__and_IJSt6__not_ISt15__is_tuple_likeIT_EESt21is_move_constructibleIS5_ESt18is_move_assignableIS5_EEE5valueEvE4typeERS5_SF_
FNF:8
FNH:0
DA:47,0
DA:48,0
DA:73,0
DA:74,0
DA:98,0
DA:99,0
DA:187,0
DA:198,0
DA:199,0
DA:200,0
DA:201,0
LF:11
LH:0
end_of_record
SF:/usr/include/c++/7/bits/predefined_ops.h
FN:42,_ZNK9__gnu_cxx5__ops15_Iter_less_iterclIPKiS4_EEbT_T0_
FN:42,_ZNK9__gnu_cxx5__ops15_Iter_less_iterclINS_17__normal_iteratorIPSt6vectorIiSaIiEES4_IS6_SaIS6_EEEESA_EEbT_T0_
FN:48,_ZN9__gnu_cxx5__ops16__iter_less_iterEv
FN:60,_ZN9__gnu_cxx5__ops14_Iter_less_valC2ENS0_15_Iter_less_iterE
FN:64,_ZNK9__gnu_cxx5__ops14_Iter_less_valclINS_17__normal_iteratorIPSt6vectorIiSaIiEES4_IS6_SaIS6_EEEES6_EEbT_RT0_
FN:89,_ZNK9__gnu_cxx5__ops14_Val_less_iterclISt6vectorIiSaIiEENS_17__normal_iteratorIPS5_S3_IS5_SaIS5_EEEEEEbRT_T0_
FN:98,_ZN9__gnu_cxx5__ops15__val_comp_iterENS0_15_Iter_less_iterE
FNDA:1856,_ZNK9__gnu_cxx5__ops15_Iter_less_iterclIPKiS4_EEbT_T0_
FNDA:320,_ZNK9__gnu_cxx5__ops15_Iter_less_iterclINS_17__normal_iteratorIPSt6vectorIiSaIiEES4_IS6_SaIS6_EEEESA_EEbT_T0_
FNDA:672,_ZN9__gnu_cxx5__ops16__iter_less_iterEv
FNDA:0,_ZN9__gnu_cxx5__ops14_Iter_less_valC2ENS0_15_Iter_less_iterE
FNDA:0,_ZNK9__gnu_cxx5__ops14_Iter_less_valclINS_17__normal_iteratorIPSt6vectorIiSaIiEES4_IS6_SaIS6_EEEES6_EEbT_RT0_
FNDA:320,_ZNK9__gnu_cxx5__ops14_Val_less_iterclISt6vectorIiSaIiEENS_17__normal_iteratorIPS5_S3_IS5_SaIS5_EEEEEEbRT_T0_
FNDA:320,_ZN9__gnu_cxx5__ops15__val_comp_iterENS0_15_Iter_less_iterE
FNF:7
FNH:5
DA:42,2176
DA:43,2176
DA:48,672
DA:49,672
DA:60,0
DA:64,0
DA:65,0
DA:89,320
DA:90,320
DA:98,320
DA:99,320
LF:11
LH:8
end_of_record
SF:/usr/include/c++/7/bits/stl_algo.h
FN:78,_ZSt22__move_median_to_firstIN9__gnu_cxx17__normal_iteratorIPSt6vectorIiSaIiEES2_IS4_SaIS4_EEEENS0_5__ops15_Iter_less_iterEEvT_SB_SB_SB_T0_
FN:1668,_ZSt13__heap_selectIN9__gnu_cxx17__normal_iteratorIPSt6vectorIiSaIiEES2_IS4_SaIS4_EEEENS0_5__ops15_Iter_less_iterEEvT_SB_SB_T0_
FN:1821,_ZSt25__unguarded_linear_insertIN9__gnu_cxx17__normal_iteratorIPSt6vectorIiSaIiEES2_IS4_SaIS4_EEEENS0_5__ops14_Val_less_iterEEvT_T0_
FN:1840,_ZSt16__insertion_sortIN9__gnu_cxx17__normal_iteratorIPSt6vectorIiSaIiEES2_IS4_SaIS4_EEEENS0_5__ops15_Iter_less_iterEEvT_SB_T0_
FN:1863,_ZSt26__unguarded_insertion_sortIN9__gnu_cxx17__normal_iteratorIPSt6vectorIiSaIiEES2_IS4_SaIS4_EEEENS0_5__ops15_Iter_less_iterEEvT_SB_T0_
FN:1880,_ZSt22__final_insertion_sortIN9__gnu_cxx17__normal_iteratorIPSt6vectorIiSaIiEES2_IS4_SaIS4_EEEENS0_5__ops15_Iter_less_iterEEvT_SB_T0_
FN:1896,_ZSt21__unguarded_partitionIN9__gnu_cxx17__normal_iteratorIPSt6vectorIiSaIiEES2_IS4_SaIS4_EEEENS0_5__ops15_Iter_less_iterEET_SB_SB_SB_T0_
FN:1917,_ZSt27__unguarded_partition_pivotIN9__gnu_cxx17__normal_iteratorIPSt6vectorIiSaIiEES2_IS4_SaIS4_EEEENS0_5__ops15_Iter_less_iterEET_SB_SB_T0_
FN:1928,_ZSt14__partial_sortIN9__gnu_cxx17__normal_iteratorIPSt6vectorIiSaIiEES2_IS4_SaIS4_EEEENS0_5__ops15_Iter_less_iterEEvT_SB_SB_T0_
FN:1940,_ZSt16__introsort_loopIN9__gnu_cxx17__normal_iteratorIPSt6vectorIiSaIiEES2_IS4_SaIS4_EEEElNS0_5__ops15_Iter_less_iterEEvT_SB_T0_T1_
FN:1963,_ZSt6__sortIN9__gnu_cxx17__normal_iteratorIPSt6vectorIiSaIiEES2_IS4_SaIS4_EEEENS0_5__ops15_Iter_less_iterEEvT_SB_T0_
FN:4826,_ZSt4sortIN9__gnu_cxx17__normal_iteratorIPSt6vectorIiSaIiEES2_IS4_SaIS4_EEEEEvT_S9_
FNDA:0,_ZSt22__move_median_to_firstIN9__gnu_cxx17__normal_iteratorIPSt6vectorIiSaIiEES2_IS4_SaIS4_EEEENS0_5__ops15_Iter_less_iterEEvT_SB_SB_SB_T0_
FNDA:0,_ZSt13__heap_selectIN9__gnu_cxx17__normal_iteratorIPSt6vectorIiSaIiEES2_IS4_SaIS4_EEEENS0_5__ops15_Iter_less_iterEEvT_SB_SB_T0_
FNDA:320,_ZSt25__unguarded_linear_insertIN9__gnu_cxx17__normal_iteratorIPSt6vectorIiSaIiEES2_IS4_SaIS4_EEEENS0_5__ops14_Val_less_iterEEvT_T0_
FNDA:32,_ZSt16__insertion_sortIN9__gnu_cxx17__normal_iteratorIPSt6vectorIiSaIiEES2_IS4_SaIS4_EEEENS0_5__ops15_Iter_less_iterEEvT_SB_T0_
FNDA:0,_ZSt26__unguarded_insertion_sortIN9__gnu_cxx17__normal_iteratorIPSt6vectorIiSaIiEES2_IS4_SaIS4_EEEENS0_5__ops15_Iter_less_iterEEvT_SB_T0_
FNDA:32,_ZSt22__final_insertion_sortIN9__gnu_cxx17__normal_iteratorIPSt6vectorIiSaIiEES2_IS4_SaIS4_EEEENS0_5__ops15_Iter_less_iterEEvT_SB_T0_
FNDA:0,_ZSt21__unguarded_partitionIN9__gnu_cxx17__normal_iteratorIPSt6vectorIiSaIiEES2_IS4_SaIS4_EEEENS0_5__ops15_Iter_less_iterEET_SB_SB_SB_T0_
FNDA:0,_ZSt27__unguarded_partition_pivotIN9__gnu_cxx17__normal_iteratorIPSt6vectorIiSaIiEES2_IS4_SaIS4_EEEENS0_5__ops15_Iter_less_iterEET_SB_SB_T0_
FNDA:0,_ZSt14__partial_sortIN9__gnu_cxx17__normal_iteratorIPSt6vectorIiSaIiEES2_IS4_SaIS4_EEEENS0_5__ops15_Iter_less_iterEEvT_SB_SB_T0_
FNDA:32,_ZSt16__introsort_loopIN9__gnu_cxx17__normal_iteratorIPSt6vectorIiSaIiEES2_IS4_SaIS4_EEEElNS0_5__ops15_Iter_less_iterEEvT_SB_T0_T1_
FNDA:32,_ZSt6__sortIN9__gnu_cxx17__normal_iteratorIPSt6vectorIiSaIiEES2_IS4_SaIS4_EEEENS0_5__ops15_Iter_less_iterEEvT_SB_T0_
FNDA:32,_ZSt4sortIN9__gnu_cxx17__normal_iteratorIPSt6vectorIiSaIiEES2_IS4_SaIS4_EEEEEvT_S9_
FNF:12
FNH:6
DA:78,0
DA:81,0
DA:83,0
DA:84,0
DA:85,0
DA:86,0
DA:88,0
DA:90,0
DA:91,0
DA:92,0
DA:93,0
DA:95,0
DA:96,0
DA:1668,0
DA:1672,0
DA:1673,0
DA:1674,0
DA:1675,0
DA:1676,0
DA:1821,320
DA:1825,640
DA:1826,320
DA:1827,320
DA:1828,320
DA:1830,0
DA:1831,0
DA:1832,0
DA:1834,320
DA:1835,320
DA:1840,32
DA:1843,32
DA:1845,352
DA:1847,320
DA:1850,0
DA:1851,0
DA:1852,0
DA:1855,320
DA:1856,640
DA:1863,0
DA:1866,0
DA:1867,0
DA:1868,0
DA:1869,0
DA:1880,32
DA:1883,32
DA:1885,0
DA:1886,0
DA:1890,32
DA:1891,32
DA:1896,0
DA:1900,0
DA:1902,0
DA:1903,0
DA:1904,0
DA:1905,0
DA:1906,0
DA:1907,0
DA:1908,0
DA:1909,0
DA:1910,0
DA:1917,0
DA:1920,0
DA:1921,0
DA:1923,0
DA:1928,0
DA:1933,0
DA:1934,0
DA:1935,0
DA:1940,32
DA:1944,32
DA:1946,0
DA:1948,0
DA:1949,0
DA:1951,0
DA:1952,0
DA:1954,0
DA:1955,0
DA:1963,32
DA:1966,32
DA:1968,32
DA:1969,32
DA:1971,32
DA:1973,32
DA:4826,32
DA:4836,32
DA:4837,32
LF:86
LH:28
end_of_record
SF:/usr/include/c++/7/bits/stl_algobase.h
FN:120,_ZSt9iter_swapIN9__gnu_cxx17__normal_iteratorIPSt6vectorIiSaIiEES2_IS4_SaIS4_EEEES8_EvT_T0_
FN:219,_ZSt3maxImERKT_S2_S2_
FN:277,_ZSt12__niter_baseIPiET_S1_
FN:277,_ZSt12__niter_baseIPKiET_S2_
FN:357,_ZNSt11__copy_moveILb0ELb1ESt26random_access_iterator_tagE8__copy_mIiEEPT_PKS3_S6_S4_
FN:375,_ZSt13__copy_move_aILb0EPKiPiET1_T0_S4_S3_
FN:420,_ZSt14__copy_move_a2ILb0EPKiPiET1_T0_S4_S3_
FN:420,_ZSt14__copy_move_a2ILb0EN9__gnu_cxx17__normal_iteratorIPKiSt6vectorIiSaIiEEEEPiET1_T0_SA_S9_
FN:446,_ZSt4copyIN9__gnu_cxx17__normal_iteratorIPKiSt6vectorIiSaIiEEEEPiET0_T_SA_S9_
FN:446,_ZSt4copyIPKiPiET0_T_S4_S3_
FN:544,_ZNSt20__copy_move_backwardILb1ELb0ESt26random_access_iterator_tagE13__copy_move_bIPSt6vectorIiSaIiEES6_EET0_T_S8_S7_
FN:577,_ZSt22__copy_move_backward_aILb1EPSt6vectorIiSaIiEES3_ET1_T0_S5_S4_
FN:595,_ZSt23__copy_move_backward_a2ILb1EN9__gnu_cxx17__normal_iteratorIPSt6vectorIiSaIiEES2_IS4_SaIS4_EEEES8_ET1_T0_SA_S9_
FN:658,_ZSt13move_backwardIN9__gnu_cxx17__normal_iteratorIPSt6vectorIiSaIiEES2_IS4_SaIS4_EEEES8_ET0_T_SA_S9_
FN:797,_ZNSt7__equalILb0EE5equalIPKSt6vectorIiSaIiEES6_EEbT_S7_T0_
FN:811,_ZNSt7__equalILb1EE5equalIiEEbPKT_S4_S4_
FN:821,_ZSt11__equal_auxIPKiS1_EbT_S2_T0_
FN:821,_ZSt11__equal_auxIPKSt6vectorIiSaIiEES4_EbT_S5_T0_
FN:853,_ZNSt8__lc_raiISt26random_access_iterator_tagS0_E10__newlast1IPKiS4_EET_S5_S5_T0_S6_
FN:865,_ZNSt8__lc_raiISt26random_access_iterator_tagS0_E6__cnd2IPKiEEbT_S5_
FN:871,_ZSt30__lexicographical_compare_implIPKiS1_N9__gnu_cxx5__ops15_Iter_less_iterEEbT_S5_T0_S6_T1_
FN:901,_ZNSt25__lexicographical_compareILb0EE4__lcIPKiS3_EEbT_S4_T0_S5_
FN:928,_ZSt29__lexicographical_compare_auxIPKiS1_EbT_S2_T0_S3_
FN:1008,_ZSt4__lgl
FN:1041,_ZSt5equalIN9__gnu_cxx17__normal_iteratorIPKSt6vectorIiSaIiEES2_IS4_SaIS4_EEEES9_EbT_SA_T0_
FN:1041,_ZSt5equalIN9__gnu_cxx17__normal_iteratorIPKiSt6vectorIiSaIiEEEES7_EbT_S8_T0_
FN:1203,_ZSt23lexicographical_compareIN9__gnu_cxx17__normal_iteratorIPKiSt6vectorIiSaIiEEEES7_EbT_S8_T0_S9_
FNDA:0,_ZSt9iter_swapIN9__gnu_cxx17__normal_iteratorIPSt6vectorIiSaIiEES2_IS4_SaIS4_EEEES8_EvT_T0_
FNDA:0,_ZSt3maxImERKT_S2_S2_
FNDA:0,_ZSt12__niter_baseIPiET_S1_
FNDA:0,_ZSt12__niter_baseIPKiET_S2_
FNDA:0,_ZNSt11__copy_moveILb0ELb1ESt26random_access_iterator_tagE8__copy_mIiEEPT_PKS3_S6_S4_
FNDA:0,_ZSt13__copy_move_aILb0EPKiPiET1_T0_S4_S3_
FNDA:0,_ZSt14__copy_move_a2ILb0EN9__gnu_cxx17__normal_iteratorIPKiSt6vectorIiSaIiEEEEPiET1_T0_SA_S9_
FNDA:0,_ZSt14__copy_move_a2ILb0EPKiPiET1_T0_S4_S3_
FNDA:0,_ZSt4copyIN9__gnu_cxx17__normal_iteratorIPKiSt6vectorIiSaIiEEEEPiET0_T_SA_S9_
FNDA:0,_ZSt4copyIPKiPiET0_T_S4_S3_
FNDA:0,_ZNSt20__copy_move_backwardILb1ELb0ESt26random_access_iterator_tagE13__copy_move_bIPSt6vectorIiSaIiEES6_EET0_T_S8_S7_
FNDA:0,_ZSt22__copy_move_backward_aILb1EPSt6vectorIiSaIiEES3_ET1_T0_S5_S4_
FNDA:0,_ZSt23__copy_move_backward_a2ILb1EN9__gnu_cxx17__normal_iteratorIPSt6vectorIiSaIiEES2_IS4_SaIS4_EEEES8_ET1_T0_SA_S9_
FNDA:0,_ZSt13move_backwardIN9__gnu_cxx17__normal_iteratorIPSt6vectorIiSaIiEES2_IS4_SaIS4_EEEES8_ET0_T_SA_S9_
FNDA:0,_ZNSt7__equalILb0EE5equalIPKSt6vectorIiSaIiEES6_EEbT_S7_T0_
FNDA:0,_ZNSt7__equalILb1EE5equalIiEEbPKT_S4_S4_
FNDA:0,_ZSt11__equal_auxIPKiS1_EbT_S2_T0_
FNDA:0,_ZSt11__equal_auxIPKSt6vectorIiSaIiEES4_EbT_S5_T0_
FNDA:640,_ZNSt8__lc_raiISt26random_access_iterator_tagS0_E10__newlast1IPKiS4_EET_S5_S5_T0_S6_
FNDA:928,_ZNSt8__lc_raiISt26random_access_iterator_tagS0_E6__cnd2IPKiEEbT_S5_
FNDA:640,_ZSt30__lexicographical_compare_implIPKiS1_N9__gnu_cxx5__ops15_Iter_less_iterEEbT_S5_T0_S6_T1_
FNDA:640,_ZNSt25__lexicographical_compareILb0EE4__lcIPKiS3_EEbT_S4_T0_S5_
FNDA:640,_ZSt29__lexicographical_compare_auxIPKiS1_EbT_S2_T0_S3_
FNDA:32,_ZSt4__lgl
FNDA:0,_ZSt5equalIN9__gnu_cxx17__normal_iteratorIPKiSt6vectorIiSaIiEEEES7_EbT_S8_T0_
FNDA:0,_ZSt5equalIN9__gnu_cxx17__normal_iteratorIPKSt6vectorIiSaIiEES2_IS4_SaIS4_EEEES9_EbT_SA_T0_
FNDA:640,_ZSt23lexicographical_compareIN9__gnu_cxx17__normal_iteratorIPKiSt6vectorIiSaIiEEEES7_EbT_S8_T0_S9_
FNF:27
FNH:7
DA:120,0
DA:148,0
DA:150,0
DA:219,0
DA:224,0
DA:225,0
DA:226,0
DA:277,0
DA:278,0
DA:357,0
DA:366,0
DA:367,0
DA:368,0
DA:369,0
DA:375,0
DA:380,0
DA:386,0
DA:420,0
DA:422,0
DA:424,0
DA:446,0
DA:455,0
DA:456,0
DA:544,0
DA:547,0
DA:548,0
DA:549,0
DA:577,0
DA:582,0
DA:590,0
DA:595,0
DA:598,0
DA:599,0
DA:658,0
DA:668,0
DA:670,0
DA:797,0
DA:799,0
DA:800,0
DA:801,0
DA:802,0
DA:811,0
DA:813,0
DA:814,0
DA:815,0
DA:821,0
DA:825,0
DA:831,0
DA:853,640
DA:857,640
DA:859,640
DA:860,640
DA:865,928
DA:866,928
DA:871,640
DA:879,640
DA:880,1216
DA:883,928
DA:884,0
DA:885,928
DA:886,640
DA:888,0
DA:901,640
DA:906,640
DA:928,640
DA:933,640
DA:941,640
DA:1008,32
DA:1009,32
DA:1041,0
DA:1051,0
DA:1053,0
DA:1203,640
DA:1218,640
DA:1221,640
LF:75
LH:22
end_of_record
SF:/usr/include/c++/7/bits/stl_construct.h
FN:74,_ZSt10_ConstructISt6vectorIiSaIiEEJS2_EEvPT_DpOT0_
FN:74,_ZSt10_ConstructISt6vectorIiSaIiEEJRKS2_EEvPT_DpOT0_
FN:97,_ZSt8_DestroyISt6vectorIiSaIiEEEvPT_
FN:105,_ZNSt12_Destroy_auxILb0EE9__destroyIPSt6vectorIiSaIiEEEEvT_S6_
FN:117,_ZNSt12_Destroy_auxILb1EE9__destroyIPiEEvT_S3_
FN:127,_ZSt8_DestroyIPiEvT_S1_
FN:127,_ZSt8_DestroyIPSt6vectorIiSaIiEEEvT_S4_
FN:203,_ZSt8_DestroyIPiiEvT_S1_RSaIT0_E
FN:203,_ZSt8_DestroyIPSt6vectorIiSaIiEES2_EvT_S4_RSaIT0_E
FNDA:0,_ZSt10_ConstructISt6vectorIiSaIiEEJS2_EEvPT_DpOT0_
FNDA:0,_ZSt10_ConstructISt6vectorIiSaIiEEJRKS2_EEvPT_DpOT0_
FNDA:0,_ZSt8_DestroyISt6vectorIiSaIiEEEvPT_
FNDA:0,_ZNSt12_Destroy_auxILb0EE9__destroyIPSt6vectorIiSaIiEEEEvT_S6_
FNDA:0,_ZNSt12_Destroy_auxILb1EE9__destroyIPiEEvT_S3_
FNDA:0,_ZSt8_DestroyIPiEvT_S1_
FNDA:0,_ZSt8_DestroyIPSt6vectorIiSaIiEEEvT_S4_
FNDA:0,_ZSt8_DestroyIPiiEvT_S1_RSaIT0_E
FNDA:0,_ZSt8_DestroyIPSt6vectorIiSaIiEES2_EvT_S4_RSaIT0_E
FNF:9
FNH:0
DA:74,0
DA:75,0
DA:97,0
DA:98,0
DA:105,0
DA:107,0
DA:108,0
DA:109,0
DA:117,0
DA:127,0
DA:137,0
DA:138,0
DA:203,0
DA:206,0
DA:207,0
LF:15
LH:0
end_of_record
SF:/usr/include/c++/7/bits/stl_heap.h
FN:128,_ZSt11__push_heapIN9__gnu_cxx17__normal_iteratorIPSt6vectorIiSaIiEES2_IS4_SaIS4_EEEElS4_NS0_5__ops14_Iter_less_valEEvT_T0_SC_T1_RT2_
FN:214,_ZSt13__adjust_heapIN9__gnu_cxx17__normal_iteratorIPSt6vectorIiSaIiEES2_IS4_SaIS4_EEEElS4_NS0_5__ops15_Iter_less_iterEEvT_T0_SC_T1_T2_
FN:243,_ZSt10__pop_heapIN9__gnu_cxx17__normal_iteratorIPSt6vectorIiSaIiEES2_IS4_SaIS4_EEEENS0_5__ops15_Iter_less_iterEEvT_SB_SB_RT0_
FN:326,_ZSt11__make_heapIN9__gnu_cxx17__normal_iteratorIPSt6vectorIiSaIiEES2_IS4_SaIS4_EEEENS0_5__ops15_Iter_less_iterEEvT_SB_RT0_
FN:402,_ZSt11__sort_heapIN9__gnu_cxx17__normal_iteratorIPSt6vectorIiSaIiEES2_IS4_SaIS4_EEEENS0_5__ops15_Iter_less_iterEEvT_SB_RT0_
FNDA:0,_ZSt11__push_heapIN9__gnu_cxx17__normal_iteratorIPSt6vectorIiSaIiEES2_IS4_SaIS4_EEEElS4_NS0_5__ops14_Iter_less_valEEvT_T0_SC_T1_RT2_
FNDA:0,_ZSt13__adjust_heapIN9__gnu_cxx17__normal_iteratorIPSt6vectorIiSaIiEES2_IS4_SaIS4_EEEElS4_NS0_5__ops15_Iter_less_iterEEvT_T0_SC_T1_T2_
FNDA:0,_ZSt10__pop_heapIN9__gnu_cxx17__normal_iteratorIPSt6vectorIiSaIiEES2_IS4_SaIS4_EEEENS0_5__ops15_Iter_less_iterEEvT_SB_SB_RT0_
FNDA:0,_ZSt11__make_heapIN9__gnu_cxx17__normal_iteratorIPSt6vectorIiSaIiEES2_IS4_SaIS4_EEEENS0_5__ops15_Iter_less_iterEEvT_SB_RT0_
FNDA:0,_ZSt11__sort_heapIN9__gnu_cxx17__normal_iteratorIPSt6vectorIiSaIiEES2_IS4_SaIS4_EEEENS0_5__ops15_Iter_less_iterEEvT_SB_RT0_
FNF:5
FNH:0
DA:128,0
DA:132,0
DA:133,0
DA:135,0
DA:136,0
DA:137,0
DA:139,0
DA:140,0
DA:214,0
DA:217,0
DA:218,0
DA:219,0
DA:221,0
DA:222,0
DA:224,0
DA:225,0
DA:226,0
DA:228,0
DA:230,0
DA:231,0
DA:233,0
DA:236,0
DA:237,0
DA:238,0
DA:239,0
DA:243,0
DA:251,0
DA:252,0
DA:253,0
DA:254,0
DA:255,0
DA:256,0
DA:326,0
DA:334,0
DA:335,0
DA:337,0
DA:338,0
DA:339,0
DA:341,0
DA:342,0
DA:344,0
DA:345,0
DA:346,0
DA:402,0
DA:405,0
DA:407,0
DA:408,0
DA:410,0
LF:48
LH:0
end_of_record
SF:/usr/include/c++/7/bits/stl_iterator.h
FN:782,_ZN9__gnu_cxx17__normal_iteratorIPKiSt6vectorIiSaIiEEEC2ERKS2_
FN:782,_ZN9__gnu_cxx17__normal_iteratorIPKSt6vectorIiSaIiEES1_IS3_SaIS3_EEEC2ERKS5_
FN:782,_ZN9__gnu_cxx17__normal_iteratorIPSt6vectorIiSaIiEES1_IS3_SaIS3_EEEC2ERKS4_
FN:795,_ZNK9__gnu_cxx17__normal_iteratorIPSt6vectorIiSaIiEES1_IS3_SaIS3_EEEdeEv
FN:795,_ZNK9__gnu_cxx17__normal_iteratorIPKSt6vectorIiSaIiEES1_IS3_SaIS3_EEEdeEv
FN:803,_ZN9__gnu_cxx17__normal_iteratorIPKSt6vectorIiSaIiEES1_IS3_SaIS3_EEEppEv
FN:803,_ZN9__gnu_cxx17__normal_iteratorIPSt6vectorIiSaIiEES1_IS3_SaIS3_EEEppEv
FN:815,_ZN9__gnu_cxx17__normal_iteratorIPSt6vectorIiSaIiEES1_IS3_SaIS3_EEEmmEv
FN:835,_ZNK9__gnu_cxx17__normal_iteratorIPSt6vectorIiSaIiEES1_IS3_SaIS3_EEEplEl
FN:843,_ZNK9__gnu_cxx17__normal_iteratorIPSt6vectorIiSaIiEES1_IS3_SaIS3_EEEmiEl
FN:847,_ZNK9__gnu_cxx17__normal_iteratorIPKiSt6vectorIiSaIiEEE4baseEv
FN:847,_ZNK9__gnu_cxx17__normal_iteratorIPKSt6vectorIiSaIiEES1_IS3_SaIS3_EEE4baseEv
FN:847,_ZNK9__gnu_cxx17__normal_iteratorIPSt6vectorIiSaIiEES1_IS3_SaIS3_EEE4baseEv
FN:869,_ZN9__gnu_cxxeqIPSt6vectorIiSaIiEES1_IS3_SaIS3_EEEEbRKNS_17__normal_iteratorIT_T0_EESC_
FN:883,_ZN9__gnu_cxxneIPSt6vectorIiSaIiEES1_IS3_SaIS3_EEEEbRKNS_17__normal_iteratorIT_T0_EESC_
FN:883,_ZN9__gnu_cxxneIPKSt6vectorIiSaIiEES1_IS3_SaIS3_EEEEbRKNS_17__normal_iteratorIT_T0_EESD_
FN:898,_ZN9__gnu_cxxltIPSt6vectorIiSaIiEES1_IS3_SaIS3_EEEEbRKNS_17__normal_iteratorIT_T0_EESC_
FN:965,_ZN9__gnu_cxxmiIPSt6vectorIiSaIiEES1_IS3_SaIS3_EEEENS_17__normal_iteratorIT_T0_E15difference_typeERKSA_SD_
FN:986,_ZSt12__niter_baseIPKSt6vectorIiSaIiEES0_IS2_SaIS2_EEET_N9__gnu_cxx17__normal_iteratorIS7_T0_EE
FN:986,_ZSt12__niter_baseIPSt6vectorIiSaIiEES0_IS2_SaIS2_EEET_N9__gnu_cxx17__normal_iteratorIS6_T0_EE
FN:986,_ZSt12__niter_baseIPKiSt6vectorIiSaIiEEET_N9__gnu_cxx17__normal_iteratorIS5_T0_EE
FN:1039,_ZNSt13move_iteratorIPSt6vectorIiSaIiEEEC2ES3_
FN:1048,_ZNKSt13move_iteratorIPSt6vectorIiSaIiEEE4baseEv
FN:1052,_ZNKSt13move_iteratorIPSt6vectorIiSaIiEEEdeEv
FN:1060,_ZNSt13move_iteratorIPSt6vectorIiSaIiEEEppEv
FN:1127,_ZSteqIPSt6vectorIiSaIiEEEbRKSt13move_iteratorIT_ES8_
FN:1139,_ZStneIPSt6vectorIiSaIiEEEbRKSt13move_iteratorIT_ES8_
FN:1224,_ZSt32__make_move_if_noexcept_iteratorISt6vectorIiSaIiEESt13move_iteratorIPS2_EET0_PT_
FNDA:0,_ZN9__gnu_cxx17__normal_iteratorIPKiSt6vectorIiSaIiEEEC2ERKS2_
FNDA:0,_ZN9__gnu_cxx17__normal_iteratorIPKSt6vectorIiSaIiEES1_IS3_SaIS3_EEEC2ERKS5_
FNDA:0,_ZN9__gnu_cxx17__normal_iteratorIPSt6vectorIiSaIiEES1_IS3_SaIS3_EEEC2ERKS4_
FNDA:0,_ZNK9__gnu_cxx17__normal_iteratorIPKSt6vectorIiSaIiEES1_IS3_SaIS3_EEEdeEv
FNDA:0,_ZNK9__gnu_cxx17__normal_iteratorIPSt6vectorIiSaIiEES1_IS3_SaIS3_EEEdeEv
FNDA:0,_ZN9__gnu_cxx17__normal_iteratorIPKSt6vectorIiSaIiEES1_IS3_SaIS3_EEEppEv
FNDA:0,_ZN9__gnu_cxx17__normal_iteratorIPSt6vectorIiSaIiEES1_IS3_SaIS3_EEEppEv
FNDA:320,_ZN9__gnu_cxx17__normal_iteratorIPSt6vectorIiSaIiEES1_IS3_SaIS3_EEEmmEv
FNDA:32,_ZNK9__gnu_cxx17__normal_iteratorIPSt6vectorIiSaIiEES1_IS3_SaIS3_EEEplEl
FNDA:0,_ZNK9__gnu_cxx17__normal_iteratorIPSt6vectorIiSaIiEES1_IS3_SaIS3_EEEmiEl
FNDA:0,_ZNK9__gnu_cxx17__normal_iteratorIPKiSt6vectorIiSaIiEEE4baseEv
FNDA:0,_ZNK9__gnu_cxx17__normal_iteratorIPKSt6vectorIiSaIiEES1_IS3_SaIS3_EEE4baseEv
FNDA:0,_ZNK9__gnu_cxx17__normal_iteratorIPSt6vectorIiSaIiEES1_IS3_SaIS3_EEE4baseEv
FNDA:32,_ZN9__gnu_cxxeqIPSt6vectorIiSaIiEES1_IS3_SaIS3_EEEEbRKNS_17__normal_iteratorIT_T0_EESC_
FNDA:0,_ZN9__gnu_cxxneIPKSt6vectorIiSaIiEES1_IS3_SaIS3_EEEEbRKNS_17__normal_iteratorIT_T0_EESD_
FNDA:0,_ZN9__gnu_cxxneIPSt6vectorIiSaIiEES1_IS3_SaIS3_EEEEbRKNS_17__normal_iteratorIT_T0_EESC_
FNDA:0,_ZN9__gnu_cxxltIPSt6vectorIiSaIiEES1_IS3_SaIS3_EEEEbRKNS_17__normal_iteratorIT_T0_EESC_
FNDA:0,_ZN9__gnu_cxxmiIPSt6vectorIiSaIiEES1_IS3_SaIS3_EEEENS_17__normal_iteratorIT_T0_E15difference_typeERKSA_SD_
FNDA:0,_ZSt12__niter_baseIPKiSt6vectorIiSaIiEEET_N9__gnu_cxx17__normal_iteratorIS5_T0_EE
FNDA:0,_ZSt12__niter_baseIPSt6vectorIiSaIiEES0_IS2_SaIS2_EEET_N9__gnu_cxx17__normal_iteratorIS6_T0_EE
FNDA:0,_ZSt12__niter_baseIPKSt6vectorIiSaIiEES0_IS2_SaIS2_EEET_N9__gnu_cxx17__normal_iteratorIS7_T0_EE
FNDA:0,_ZNSt13move_iteratorIPSt6vectorIiSaIiEEEC2ES3_
FNDA:0,_ZNKSt13move_iteratorIPSt6vectorIiSaIiEEE4baseEv
FNDA:0,_ZNKSt13move_iteratorIPSt6vectorIiSaIiEEEdeEv
FNDA:0,_ZNSt13move_iteratorIPSt6vectorIiSaIiEEEppEv
FNDA:0,_ZSteqIPSt6vectorIiSaIiEEEbRKSt13move_iteratorIT_ES8_
FNDA:0,_ZStneIPSt6vectorIiSaIiEEEbRKSt13move_iteratorIT_ES8_
FNDA:0,_ZSt32__make_move_if_noexcept_iteratorISt6vectorIiSaIiEESt13move_iteratorIPS2_EET0_PT_
FNF:28
FNH:3
DA:782,0
DA:783,0
DA:795,0
DA:796,0
DA:803,0
DA:805,0
DA:806,0
DA:815,320
DA:817,320
DA:818,320
DA:835,32
DA:836,32
DA:843,0
DA:844,0
DA:847,0
DA:848,0
DA:869,32
DA:872,32
DA:883,0
DA:886,0
DA:898,0
DA:901,0
DA:965,0
DA:968,0
DA:986,0
DA:987,0
DA:1039,0
DA:1040,0
DA:1048,0
DA:1049,0
DA:1052,0
DA:1053,0
DA:1060,0
DA:1062,0
DA:1063,0
DA:1127,0
DA:1129,0
DA:1139,0
DA:1141,0
DA:1224,0
DA:1225,0
LF:41
LH:7
end_of_record
SF:/usr/include/c++/7/bits/stl_iterator_base_funcs.h
FN:98,_ZSt10__distanceIPKSt6vectorIiSaIiEEENSt15iterator_traitsIT_E15difference_typeES6_S6_St26random_access_iterator_tag
FN:98,_ZSt10__distanceIPKiENSt15iterator_traitsIT_E15difference_typeES3_S3_St26random_access_iterator_tag
FN:138,_ZSt8distanceIPKiENSt15iterator_traitsIT_E15difference_typeES3_S3_
FN:138,_ZSt8distanceIPKSt6vectorIiSaIiEEENSt15iterator_traitsIT_E15difference_typeES6_S6_
FNDA:0,_ZSt10__distanceIPKSt6vectorIiSaIiEEENSt15iterator_traitsIT_E15difference_typeES6_S6_St26random_access_iterator_tag
FNDA:0,_ZSt10__distanceIPKiENSt15iterator_traitsIT_E15difference_typeES3_S3_St26random_access_iterator_tag
FNDA:0,_ZSt8distanceIPKSt6vectorIiSaIiEEENSt15iterator_traitsIT_E15difference_typeES6_S6_
FNDA:0,_ZSt8distanceIPKiENSt15iterator_traitsIT_E15difference_typeES3_S3_
FNF:4
FNH:0
DA:98,0
DA:104,0
DA:138,0
DA:141,0
DA:142,0
LF:5
LH:0
end_of_record
SF:/usr/include/c++/7/bits/stl_iterator_base_types.h
FN:205,_ZSt19__iterator_categoryIPKSt6vectorIiSaIiEEENSt15iterator_traitsIT_E17iterator_categoryERKS6_
FN:205,_ZSt19__iterator_categoryIPKiENSt15iterator_traitsIT_E17iterator_categoryERKS3_
FNDA:0,_ZSt19__iterator_categoryIPKSt6vectorIiSaIiEEENSt15iterator_traitsIT_E17iterator_categoryERKS6_
FNDA:0,_ZSt19__iterator_categoryIPKiENSt15iterator_traitsIT_E17iterator_categoryERKS3_
FNF:2
FNH:0
DA:205,0
DA:206,0
LF:2
LH:0
end_of_record
SF:/usr/include/c++/7/bits/stl_uninitialized.h
FN:76,_ZNSt20__uninitialized_copyILb0EE13__uninit_copyIPKSt6vectorIiSaIiEEPS4_EET0_T_S9_S8_
FN:76,_ZNSt20__uninitialized_copyILb0EE13__uninit_copyISt13move_iteratorIPSt6vectorIiSaIiEEES6_EET0_T_S9_S8_
FN:76,_ZNSt20__uninitialized_copyILb0EE13__uninit_copyIN9__gnu_cxx17__normal_iteratorIPKSt6vectorIiSaIiEES4_IS6_SaIS6_EEEEPS6_EET0_T_SE_SD_
FN:99,_ZNSt20__uninitialized_copyILb1EE13__uninit_copyIPKiPiEET0_T_S6_S5_
FN:99,_ZNSt20__uninitialized_copyILb1EE13__uninit_copyIN9__gnu_cxx17__normal_iteratorIPKiSt6vectorIiSaIiEEEEPiEET0_T_SC_SB_
FN:115,_ZSt18uninitialized_copyISt13move_iteratorIPSt6vectorIiSaIiEEES4_ET0_T_S7_S6_
FN:115,_ZSt18uninitialized_copyIN9__gnu_cxx17__normal_iteratorIPKiSt6vectorIiSaIiEEEEPiET0_T_SA_S9_
FN:115,_ZSt18uninitialized_copyIPKSt6vectorIiSaIiEEPS2_ET0_T_S7_S6_
FN:115,_ZSt18uninitialized_copyIPKiPiET0_T_S4_S3_
FN:115,_ZSt18uninitialized_copyIN9__gnu_cxx17__normal_iteratorIPKSt6vectorIiSaIiEES2_IS4_SaIS4_EEEEPS4_ET0_T_SC_SB_
FN:287,_ZSt22__uninitialized_copy_aIN9__gnu_cxx17__normal_iteratorIPKiSt6vectorIiSaIiEEEEPiiET0_T_SA_S9_RSaIT1_E
FN:287,_ZSt22__uninitialized_copy_aISt13move_iteratorIPSt6vectorIiSaIiEEES4_S3_ET0_T_S7_S6_RSaIT1_E
FN:287,_ZSt22__uninitialized_copy_aIPKiPiiET0_T_S4_S3_RSaIT1_E
FN:287,_ZSt22__uninitialized_copy_aIPKSt6vectorIiSaIiEEPS2_S2_ET0_T_S7_S6_RSaIT1_E
FN:287,_ZSt22__uninitialized_copy_aIN9__gnu_cxx17__normal_iteratorIPKSt6vectorIiSaIiEES2_IS4_SaIS4_EEEEPS4_S4_ET0_T_SC_SB_RSaIT1_E
FN:305,_ZSt34__uninitialized_move_if_noexcept_aIPSt6vectorIiSaIiEES3_SaIS2_EET0_T_S6_S5_RT1_
FNDA:0,_ZNSt20__uninitialized_copyILb0EE13__uninit_copyISt13move_iteratorIPSt6vectorIiSaIiEEES6_EET0_T_S9_S8_
FNDA:0,_ZNSt20__uninitialized_copyILb0EE13__uninit_copyIPKSt6vectorIiSaIiEEPS4_EET0_T_S9_S8_
FNDA:0,_ZNSt20__uninitialized_copyILb0EE13__uninit_copyIN9__gnu_cxx17__normal_iteratorIPKSt6vectorIiSaIiEES4_IS6_SaIS6_EEEEPS6_EET0_T_SE_SD_
FNDA:0,_ZNSt20__uninitialized_copyILb1EE13__uninit_copyIN9__gnu_cxx17__normal_iteratorIPKiSt6vectorIiSaIiEEEEPiEET0_T_SC_SB_
FNDA:0,_ZNSt20__uninitialized_copyILb1EE13__uninit_copyIPKiPiEET0_T_S6_S5_
FNDA:0,_ZSt18uninitialized_copyIN9__gnu_cxx17__normal_iteratorIPKiSt6vectorIiSaIiEEEEPiET0_T_SA_S9_
FNDA:0,_ZSt18uninitialized_copyISt13move_iteratorIPSt6vectorIiSaIiEEES4_ET0_T_S7_S6_
FNDA:0,_ZSt18uninitialized_copyIPKSt6vectorIiSaIiEEPS2_ET0_T_S7_S6_
FNDA:0,_ZSt18uninitialized_copyIPKiPiET0_T_S4_S3_
FNDA:0,_ZSt18uninitialized_copyIN9__gnu_cxx17__normal_iteratorIPKSt6vectorIiSaIiEES2_IS4_SaIS4_EEEEPS4_ET0_T_SC_SB_
FNDA:0,_ZSt22__uninitialized_copy_aIN9__gnu_cxx17__normal_iteratorIPKiSt6vectorIiSaIiEEEEPiiET0_T_SA_S9_RSaIT1_E
FNDA:0,_ZSt22__uninitialized_copy_aISt13move_iteratorIPSt6vectorIiSaIiEEES4_S3_ET0_T_S7_S6_RSaIT1_E
FNDA:0,_ZSt22__uninitialized_copy_aIPKSt6vectorIiSaIiEEPS2_S2_ET0_T_S7_S6_RSaIT1_E
FNDA:0,_ZSt22__uninitialized_copy_aIPKiPiiET0_T_S4_S3_RSaIT1_E
FNDA:0,_ZSt22__uninitialized_copy_aIN9__gnu_cxx17__normal_iteratorIPKSt6vectorIiSaIiEES2_IS4_SaIS4_EEEEPS4_S4_ET0_T_SC_SB_RSaIT1_E
FNDA:0,_ZSt34__uninitialized_move_if_noexcept_aIPSt6vectorIiSaIiEES3_SaIS2_EET0_T_S6_S5_RT1_
FNF:16
FNH:0
DA:76,0
DA:79,0
DA:82,0
DA:83,0
DA:84,0
DA:86,0
DA:88,0
DA:89,0
DA:99,0
DA:101,0
DA:115,0
DA:128,0
DA:134,0
DA:287,0
DA:289,0
DA:305,0
DA:311,0
DA:312,0
LF:18
LH:0
end_of_record
SF:/usr/include/c++/7/bits/stl_vector.h
FN:81,_ZNSt12_Vector_baseIiSaIiEE12_Vector_implD2Ev
FN:81,_ZNSt12_Vector_baseISt6vectorIiSaIiEESaIS2_EE12_Vector_implD2Ev
FN:88,_ZNSt12_Vector_baseISt6vectorIiSaIiEESaIS2_EE12_Vector_implC2Ev
FN:92,_ZNSt12_Vector_baseISt6vectorIiSaIiEESaIS2_EE12_Vector_implC2ERKS3_
FN:92,_ZNSt12_Vector_baseIiSaIiEE12_Vector_implC2ERKS0_
FN:97,_ZNSt12_Vector_baseIiSaIiEE12_Vector_implC2EOS0_
FN:103,_ZNSt12_Vector_baseIiSaIiEE12_Vector_impl12_M_swap_dataERS2_
FN:115,_ZNSt12_Vector_baseIiSaIiEE19_M_get_Tp_allocatorEv
FN:115,_ZNSt12_Vector_baseISt6vectorIiSaIiEESaIS2_EE19_M_get_Tp_allocatorEv
FN:119,_ZNKSt12_Vector_baseIiSaIiEE19_M_get_Tp_allocatorEv
FN:119,_ZNKSt12_Vector_baseISt6vectorIiSaIiEESaIS2_EE19_M_get_Tp_allocatorEv
FN:123,_ZNKSt12_Vector_baseIiSaIiEE13get_allocatorEv
FN:126,_ZNSt12_Vector_baseISt6vectorIiSaIiEESaIS2_EEC2Ev
FN:129,_ZNSt12_Vector_baseISt6vectorIiSaIiEESaIS2_EEC2ERKS3_
FN:129,_ZNSt12_Vector_baseIiSaIiEEC2ERKS0_
FN:136,_ZNSt12_Vector_baseISt6vectorIiSaIiEESaIS2_EEC2EmRKS3_
FN:136,_ZNSt12_Vector_baseIiSaIiEEC2EmRKS0_
FN:144,_ZNSt12_Vector_baseIiSaIiEEC2EOS1_
FN:161,_ZNSt12_Vector_baseISt6vectorIiSaIiEESaIS2_EED2Ev
FN:161,_ZNSt12_Vector_baseIiSaIiEED2Ev
FN:169,_ZNSt12_Vector_baseISt6vectorIiSaIiEESaIS2_EE11_M_allocateEm
FN:169,_ZNSt12_Vector_baseIiSaIiEE11_M_allocateEm
FN:176,_ZNSt12_Vector_baseISt6vectorIiSaIiEESaIS2_EE13_M_deallocateEPS2_m
FN:176,_ZNSt12_Vector_baseIiSaIiEE13_M_deallocateEPim
FN:185,_ZNSt12_Vector_baseIiSaIiEE17_M_create_storageEm
FN:185,_ZNSt12_Vector_baseISt6vectorIiSaIiEESaIS2_EE17_M_create_storageEm
FN:259,_ZNSt6vectorIS_IiSaIiEESaIS1_EEC2Ev
FN:270,_ZNSt6vectorIiSaIiEEC2ERKS0_
FN:326,_ZNSt6vectorIiSaIiEEC2ERKS1_
FN:326,_ZNSt6vectorIS_IiSaIiEESaIS1_EEC2ERKS3_
FN:344,_ZNSt6vectorIiSaIiEEC2EOS1_
FN:383,_ZNSt6vectorIiSaIiEEC2ESt16initializer_listIiERKS0_
FN:383,_ZNSt6vectorIS_IiSaIiEESaIS1_EEC2ESt16initializer_listIS1_ERKS2_
FN:433,_ZNSt6vectorIiSaIiEED2Ev
FN:433,_ZNSt6vectorIS_IiSaIiEESaIS1_EED2Ev
FN:461,_ZNSt6vectorIiSaIiEEaSEOS1_
FN:563,_ZNSt6vectorIS_IiSaIiEESaIS1_EE5beginEv
FN:572,_ZNKSt6vectorIS_IiSaIiEESaIS1_EE5beginEv
FN:572,_ZNKSt6vectorIiSaIiEE5beginEv
FN:581,_ZNSt6vectorIS_IiSaIiEESaIS1_EE3endEv
FN:590,_ZNKSt6vectorIS_IiSaIiEESaIS1_EE3endEv
FN:590,_ZNKSt6vectorIiSaIiEE3endEv
FN:670,_ZNKSt6vectorIS_IiSaIiEESaIS1_EE4sizeEv
FN:670,_ZNKSt6vectorIiSaIiEE4sizeEv
FN:675,_ZNKSt6vectorIS_IiSaIiEESaIS1_EE8max_sizeEv
FN:813,_ZNKSt6vectorIS_IiSaIiEESaIS1_EEixEm
FN:813,_ZNKSt6vectorIiSaIiEEixEm
FN:939,_ZNSt6vectorIS_IiSaIiEESaIS1_EE9push_backERKS1_
FN:1229,_ZNSt6vectorIiSaIiEE4swapERS1_
FN:1324,_ZNSt6vectorIiSaIiEE19_M_range_initializeIPKiEEvT_S5_St20forward_iterator_tag
FN:1324,_ZNSt6vectorIS_IiSaIiEESaIS1_EE19_M_range_initializeIPKS1_EEvT_S7_St20forward_iterator_tag
FN:1502,_ZNKSt6vectorIS_IiSaIiEESaIS1_EE12_M_check_lenEmPKc
FN:1534,_ZNSt6vectorIiSaIiEE14_M_move_assignEOS1_St17integral_constantIbLb1EE
FN:1601,_ZSteqIiSaIiEEbRKSt6vectorIT_T0_ES6_
FN:1601,_ZSteqISt6vectorIiSaIiEESaIS2_EEbRKS0_IT_T0_ES8_
FN:1618,_ZStltIiSaIiEEbRKSt6vectorIT_T0_ES6_
FN:1649,_ZSt4swapIiSaIiEEvRSt6vectorIT_T0_ES5_
FNDA:0,_ZNSt12_Vector_baseIiSaIiEE12_Vector_implD2Ev
FNDA:0,_ZNSt12_Vector_baseISt6vectorIiSaIiEESaIS2_EE12_Vector_implD2Ev
FNDA:0,_ZNSt12_Vector_baseISt6vectorIiSaIiEESaIS2_EE12_Vector_implC2Ev
FNDA:0,_ZNSt12_Vector_baseISt6vectorIiSaIiEESaIS2_EE12_Vector_implC2ERKS3_
FNDA:0,_ZNSt12_Vector_baseIiSaIiEE12_Vector_implC2ERKS0_
FNDA:0,_ZNSt12_Vector_baseIiSaIiEE12_Vector_implC2EOS0_
FNDA:0,_ZNSt12_Vector_baseIiSaIiEE12_Vector_impl12_M_swap_dataERS2_
FNDA:0,_ZNSt12_Vector_baseIiSaIiEE19_M_get_Tp_allocatorEv
FNDA:0,_ZNSt12_Vector_baseISt6vectorIiSaIiEESaIS2_EE19_M_get_Tp_allocatorEv
FNDA:0,_ZNKSt12_Vector_baseIiSaIiEE19_M_get_Tp_allocatorEv
FNDA:0,_ZNKSt12_Vector_baseISt6vectorIiSaIiEESaIS2_EE19_M_get_Tp_allocatorEv
FNDA:320,_ZNKSt12_Vector_baseIiSaIiEE13get_allocatorEv
FNDA:0,_ZNSt12_Vector_baseISt6vectorIiSaIiEESaIS2_EEC2Ev
FNDA:0,_ZNSt12_Vector_baseISt6vectorIiSaIiEESaIS2_EEC2ERKS3_
FNDA:0,_ZNSt12_Vector_baseIiSaIiEEC2ERKS0_
FNDA:0,_ZNSt12_Vector_baseIiSaIiEEC2EmRKS0_
FNDA:0,_ZNSt12_Vector_baseISt6vectorIiSaIiEESaIS2_EEC2EmRKS3_
FNDA:0,_ZNSt12_Vector_baseIiSaIiEEC2EOS1_
FNDA:0,_ZNSt12_Vector_baseIiSaIiEED2Ev
FNDA:0,_ZNSt12_Vector_baseISt6vectorIiSaIiEESaIS2_EED2Ev
FNDA:0,_ZNSt12_Vector_baseISt6vectorIiSaIiEESaIS2_EE11_M_allocateEm
FNDA:0,_ZNSt12_Vector_baseIiSaIiEE11_M_allocateEm
FNDA:0,_ZNSt12_Vector_baseIiSaIiEE13_M_deallocateEPim
FNDA:0,_ZNSt12_Vector_baseISt6vectorIiSaIiEESaIS2_EE13_M_deallocateEPS2_m
FNDA:0,_ZNSt12_Vector_baseIiSaIiEE17_M_create_storageEm
FNDA:0,_ZNSt12_Vector_baseISt6vectorIiSaIiEESaIS2_EE17_M_create_storageEm
FNDA:0,_ZNSt6vectorIS_IiSaIiEESaIS1_EEC2Ev
FNDA:320,_ZNSt6vectorIiSaIiEEC2ERKS0_
FNDA:0,_ZNSt6vectorIiSaIiEEC2ERKS1_
FNDA:0,_ZNSt6vectorIS_IiSaIiEESaIS1_EEC2ERKS3_
FNDA:0,_ZNSt6vectorIiSaIiEEC2EOS1_
FNDA:0,_ZNSt6vectorIS_IiSaIiEESaIS1_EEC2ESt16initializer_listIS1_ERKS2_
FNDA:0,_ZNSt6vectorIiSaIiEEC2ESt16initializer_listIiERKS0_
FNDA:0,_ZNSt6vectorIiSaIiEED2Ev
FNDA:0,_ZNSt6vectorIS_IiSaIiEESaIS1_EED2Ev
FNDA:320,_ZNSt6vectorIiSaIiEEaSEOS1_
FNDA:0,_ZNSt6vectorIS_IiSaIiEESaIS1_EE5beginEv
FNDA:0,_ZNKSt6vectorIiSaIiEE5beginEv
FNDA:0,_ZNKSt6vectorIS_IiSaIiEESaIS1_EE5beginEv
FNDA:0,_ZNSt6vectorIS_IiSaIiEESaIS1_EE3endEv
FNDA:0,_ZNKSt6vectorIiSaIiEE3endEv
FNDA:0,_ZNKSt6vectorIS_IiSaIiEESaIS1_EE3endEv
FNDA:0,_ZNKSt6vectorIiSaIiEE4sizeEv
FNDA:0,_ZNKSt6vectorIS_IiSaIiEESaIS1_EE4sizeEv
FNDA:0,_ZNKSt6vectorIS_IiSaIiEESaIS1_EE8max_sizeEv
FNDA:0,_ZNKSt6vectorIiSaIiEEixEm
FNDA:0,_ZNKSt6vectorIS_IiSaIiEESaIS1_EEixEm
FNDA:0,_ZNSt6vectorIS_IiSaIiEESaIS1_EE9push_backERKS1_
FNDA:0,_ZNSt6vectorIiSaIiEE4swapERS1_
FNDA:0,_ZNSt6vectorIS_IiSaIiEESaIS1_EE19_M_range_initializeIPKS1_EEvT_S7_St20forward_iterator_tag
FNDA:0,_ZNSt6vectorIiSaIiEE19_M_range_initializeIPKiEEvT_S5_St20forward_iterator_tag
FNDA:0,_ZNKSt6vectorIS_IiSaIiEESaIS1_EE12_M_check_lenEmPKc
FNDA:320,_ZNSt6vectorIiSaIiEE14_M_move_assignEOS1_St17integral_constantIbLb1EE
FNDA:0,_ZSteqIiSaIiEEbRKSt6vectorIT_T0_ES6_
FNDA:0,_ZSteqISt6vectorIiSaIiEESaIS2_EEbRKS0_IT_T0_ES8_
FNDA:640,_ZStltIiSaIiEEbRKSt6vectorIT_T0_ES6_
FNDA:0,_ZSt4swapIiSaIiEEvRSt6vectorIT_T0_ES5_
FNF:57
FNH:5
DA:81,0
DA:88,0
DA:89,0
DA:90,0
DA:92,0
DA:93,0
DA:94,0
DA:97,0
DA:98,0
DA:99,0
DA:100,0
DA:103,0
DA:105,0
DA:106,0
DA:107,0
DA:108,0
DA:115,0
DA:116,0
DA:119,0
DA:120,0
DA:123,320
DA:124,320
DA:126,0
DA:127,0
DA:129,0
DA:130,0
DA:136,0
DA:137,0
DA:138,0
DA:144,0
DA:145,0
DA:146,0
DA:161,0
DA:162,0
DA:163,0
DA:169,0
DA:172,0
DA:176,0
DA:179,0
DA:180,0
DA:181,0
DA:185,0
DA:187,0
DA:188,0
DA:189,0
DA:190,0
DA:259,0
DA:263,0
DA:270,320
DA:271,320
DA:326,0
DA:328,0
DA:330,0
DA:331,0
DA:333,0
DA:334,0
DA:344,0
DA:345,0
DA:383,0
DA:385,0
DA:387,0
DA:389,0
DA:433,0
DA:434,0
DA:435,0
DA:461,320
DA:463,320
DA:466,320
DA:467,320
DA:563,0
DA:564,0
DA:572,0
DA:573,0
DA:581,0
DA:582,0
DA:590,0
DA:591,0
DA:670,0
DA:671,0
DA:675,0
DA:676,0
DA:813,0
DA:816,0
DA:939,0
DA:941,0
DA:943,0
DA:945,0
DA:948,0
DA:949,0
DA:1229,0
DA:1235,0
DA:1236,0
DA:1238,0
DA:1324,0
DA:1327,0
DA:1328,0
DA:1329,0
DA:1330,0
DA:1331,0
DA:1333,0
DA:1334,0
DA:1502,0
DA:1504,0
DA:1505,0
DA:1507,0
DA:1508,0
DA:1534,320
DA:1536,640
DA:1537,320
DA:1538,320
DA:1539,320
DA:1540,320
DA:1601,0
DA:1602,0
DA:1603,0
DA:1618,640
DA:1619,640
DA:1620,640
DA:1649,0
DA:1651,0
LF:120
LH:17
end_of_record
SF:/usr/include/c++/7/bits/unique_ptr.h
FN:72,_ZNKSt14default_deleteINSt7__cxx1112basic_stringIcSt11char_traitsIcESaIcEEEEclEPS5_
FN:72,_ZNKSt14default_deleteINSt7__cxx1118basic_stringstreamIcSt11char_traitsIcESaIcEEEEclEPS5_
FN:139,_ZNSt15__uniq_ptr_implINSt7__cxx1112basic_stringIcSt11char_traitsIcESaIcEEESt14default_deleteIS5_EEC2Ev
FN:146,_ZNSt15__uniq_ptr_implINSt7__cxx1112basic_stringIcSt11char_traitsIcESaIcEEESt14default_deleteIS5_EE6_M_ptrEv
FN:146,_ZNSt15__uniq_ptr_implINSt7__cxx1118basic_stringstreamIcSt11char_traitsIcESaIcEEESt14default_deleteIS5_EE6_M_ptrEv
FN:148,_ZNSt15__uniq_ptr_implINSt7__cxx1112basic_stringIcSt11char_traitsIcESaIcEEESt14default_deleteIS5_EE10_M_deleterEv
FN:148,_ZNSt15__uniq_ptr_implINSt7__cxx1118basic_stringstreamIcSt11char_traitsIcESaIcEEESt14default_deleteIS5_EE10_M_deleterEv
FN:188,_ZNSt10unique_ptrINSt7__cxx1112basic_stringIcSt11char_traitsIcESaIcEEESt14default_deleteIS5_EEC2IS7_vEEv
FN:264,_ZNSt10unique_ptrINSt7__cxx1112basic_stringIcSt11char_traitsIcESaIcEEESt14default_deleteIS5_EED2Ev
FN:264,_ZNSt10unique_ptrINSt7__cxx1118basic_stringstreamIcSt11char_traitsIcESaIcEEESt14default_deleteIS5_EED2Ev
FN:341,_ZNSt10unique_ptrINSt7__cxx1112basic_stringIcSt11char_traitsIcESaIcEEESt14default_deleteIS5_EE11get_deleterEv
FN:341,_ZNSt10unique_ptrINSt7__cxx1118basic_stringstreamIcSt11char_traitsIcESaIcEEESt14default_deleteIS5_EE11get_deleterEv
FNDA:0,_ZNKSt14default_deleteINSt7__cxx1112basic_stringIcSt11char_traitsIcESaIcEEEEclEPS5_
FNDA:0,_ZNKSt14default_deleteINSt7__cxx1118basic_stringstreamIcSt11char_traitsIcESaIcEEEEclEPS5_
FNDA:0,_ZNSt15__uniq_ptr_implINSt7__cxx1112basic_stringIcSt11char_traitsIcESaIcEEESt14default_deleteIS5_EEC2Ev
FNDA:0,_ZNSt15__uniq_ptr_implINSt7__cxx1112basic_stringIcSt11char_traitsIcESaIcEEESt14default_deleteIS5_EE6_M_ptrEv
FNDA:0,_ZNSt15__uniq_ptr_implINSt7__cxx1118basic_stringstreamIcSt11char_traitsIcESaIcEEESt14default_deleteIS5_EE6_M_ptrEv
FNDA:0,_ZNSt15__uniq_ptr_implINSt7__cxx1112basic_stringIcSt11char_traitsIcESaIcEEESt14default_deleteIS5_EE10_M_deleterEv
FNDA:0,_ZNSt15__uniq_ptr_implINSt7__cxx1118basic_stringstreamIcSt11char_traitsIcESaIcEEESt14default_deleteIS5_EE10_M_deleterEv
FNDA:0,_ZNSt10unique_ptrINSt7__cxx1112basic_stringIcSt11char_traitsIcESaIcEEESt14default_deleteIS5_EEC2IS7_vEEv
FNDA:0,_ZNSt10unique_ptrINSt7__cxx1112basic_stringIcSt11char_traitsIcESaIcEEESt14default_deleteIS5_EED2Ev
FNDA:0,_ZNSt10unique_ptrINSt7__cxx1118basic_stringstreamIcSt11char_traitsIcESaIcEEESt14default_deleteIS5_EED2Ev
FNDA:0,_ZNSt10unique_ptrINSt7__cxx1112basic_stringIcSt11char_traitsIcESaIcEEESt14default_deleteIS5_EE11get_deleterEv
FNDA:0,_ZNSt10unique_ptrINSt7__cxx1118basic_stringstreamIcSt11char_traitsIcESaIcEEESt14default_deleteIS5_EE11get_deleterEv
FNF:12
FNH:0
DA:72,0
DA:78,0
DA:79,0
DA:139,0
DA:146,0
DA:148,0
DA:188,0
DA:189,0
DA:190,0
DA:264,0
DA:266,0
DA:267,0
DA:268,0
DA:269,0
DA:270,0
DA:341,0
DA:342,0
LF:17
LH:0
end_of_record
SF:/usr/include/c++/7/bits/vector.tcc
FN:394,_ZNSt6vectorIS_IiSaIiEESaIS1_EE17_M_realloc_insertIJRKS1_EEEvN9__gnu_cxx17__normal_iteratorIPS1_S3_EEDpOT_
FNDA:0,_ZNSt6vectorIS_IiSaIiEESaIS1_EE17_M_realloc_insertIJRKS1_EEEvN9__gnu_cxx17__normal_iteratorIPS1_S3_EEDpOT_
FNF:1
FNH:0
DA:394,0
DA:403,0
DA:405,0
DA:406,0
DA:407,0
DA:415,0
DA:416,0
DA:422,0
DA:424,0
DA:426,0
DA:427,0
DA:429,0
DA:431,0
DA:433,0
DA:434,0
DA:436,0
DA:438,0
DA:439,0
DA:440,0
DA:442,0
DA:443,0
DA:444,0
DA:446,0
DA:447,0
DA:448,0
DA:449,0
DA:450,0
DA:451,0
DA:452,0
DA:453,0
DA:454,0
LF:31
LH:0
end_of_record
SF:/usr/include/c++/7/ext/alloc_traits.h
FN:94,_ZN9__gnu_cxx14__alloc_traitsISaISt6vectorIiSaIiEEEE17_S_select_on_copyERKS4_
FN:94,_ZN9__gnu_cxx14__alloc_traitsISaIiEE17_S_select_on_copyERKS1_
FN:97,_ZN9__gnu_cxx14__alloc_traitsISaIiEE10_S_on_swapERS1_S3_
FNDA:0,_ZN9__gnu_cxx14__alloc_traitsISaIiEE17_S_select_on_copyERKS1_
FNDA:0,_ZN9__gnu_cxx14__alloc_traitsISaISt6vectorIiSaIiEEEE17_S_select_on_copyERKS4_
FNDA:0,_ZN9__gnu_cxx14__alloc_traitsISaIiEE10_S_on_swapERS1_S3_
FNF:3
FNH:0
DA:94,0
DA:95,0
DA:97,0
DA:98,0
LF:4
LH:0
end_of_record
SF:/usr/include/c++/7/ext/new_allocator.h
FN:79,_ZN9__gnu_cxx13new_allocatorISt6vectorIiSaIiEEEC2Ev
FN:79,_ZN9__gnu_cxx13new_allocatorIiEC2Ev
FN:81,_ZN9__gnu_cxx13new_allocatorIiEC2ERKS1_
FN:81,_ZN9__gnu_cxx13new_allocatorISt6vectorIiSaIiEEEC2ERKS4_
FN:86,_ZN9__gnu_cxx13new_allocatorISt6vectorIiSaIiEEED2Ev
FN:86,_ZN9__gnu_cxx13new_allocatorIiED2Ev
FN:99,_ZN9__gnu_cxx13new_allocatorISt6vectorIiSaIiEEE8allocateEmPKv
FN:99,_ZN9__gnu_cxx13new_allocatorIiE8allocateEmPKv
FN:116,_ZN9__gnu_cxx13new_allocatorIiE10deallocateEPim
FN:116,_ZN9__gnu_cxx13new_allocatorISt6vectorIiSaIiEEE10deallocateEPS3_m
FN:129,_ZNK9__gnu_cxx13new_allocatorISt6vectorIiSaIiEEE8max_sizeEv
FN:129,_ZNK9__gnu_cxx13new_allocatorIiE8max_sizeEv
FN:135,_ZN9__gnu_cxx13new_allocatorISt6vectorIiSaIiEEE9constructIS3_JRKS3_EEEvPT_DpOT0_
FN:140,_ZN9__gnu_cxx13new_allocatorISt6vectorIiSaIiEEE7destroyIS3_EEvPT_
FNDA:0,_ZN9__gnu_cxx13new_allocatorISt6vectorIiSaIiEEEC2Ev
FNDA:0,_ZN9__gnu_cxx13new_allocatorIiEC2Ev
FNDA:0,_ZN9__gnu_cxx13new_allocatorIiEC2ERKS1_
FNDA:0,_ZN9__gnu_cxx13new_allocatorISt6vectorIiSaIiEEEC2ERKS4_
FNDA:0,_ZN9__gnu_cxx13new_allocatorISt6vectorIiSaIiEEED2Ev
FNDA:0,_ZN9__gnu_cxx13new_allocatorIiED2Ev
FNDA:0,_ZN9__gnu_cxx13new_allocatorISt6vectorIiSaIiEEE8allocateEmPKv
FNDA:0,_ZN9__gnu_cxx13new_allocatorIiE8allocateEmPKv
FNDA:0,_ZN9__gnu_cxx13new_allocatorIiE10deallocateEPim
FNDA:0,_ZN9__gnu_cxx13new_allocatorISt6vectorIiSaIiEEE10deallocateEPS3_m
FNDA:0,_ZNK9__gnu_cxx13new_allocatorISt6vectorIiSaIiEEE8max_sizeEv
FNDA:0,_ZNK9__gnu_cxx13new_allocatorIiE8max_sizeEv
FNDA:0,_ZN9__gnu_cxx13new_allocatorISt6vectorIiSaIiEEE9constructIS3_JRKS3_EEEvPT_DpOT0_
FNDA:0,_ZN9__gnu_cxx13new_allocatorISt6vectorIiSaIiEEE7destroyIS3_EEvPT_
FNF:14
FNH:0
DA:79,0
DA:81,0
DA:86,0
DA:99,0
DA:101,0
DA:102,0
DA:111,0
DA:116,0
DA:125,0
DA:126,0
DA:129,0
DA:130,0
DA:135,0
DA:136,0
DA:140,0
LF:15
LH:0
end_of_record
SF:/usr/include/c++/7/initializer_list
FN:71,_ZNKSt16initializer_listISt6vectorIiSaIiEEE4sizeEv
FN:71,_ZNKSt16initializer_listIiE4sizeEv
FN:75,_ZNKSt16initializer_listISt6vectorIiSaIiEEE5beginEv
FN:75,_ZNKSt16initializer_listIiE5beginEv
FN:79,_ZNKSt16initializer_listISt6vectorIiSaIiEEE3endEv
FN:79,_ZNKSt16initializer_listIiE3endEv
FNDA:0,_ZNKSt16initializer_listISt6vectorIiSaIiEEE4sizeEv
FNDA:0,_ZNKSt16initializer_listIiE4sizeEv
FNDA:0,_ZNKSt16initializer_listISt6vectorIiSaIiEEE5beginEv
FNDA:0,_ZNKSt16initializer_listIiE5beginEv
FNDA:0,_ZNKSt16initializer_listISt6vectorIiSaIiEEE3endEv
FNDA:0,_ZNKSt16initializer_listIiE3endEv
FNF:6
FNH:0
DA:71,0
DA:75,0
DA:79,0
LF:3
LH:0
end_of_record
SF:/usr/include/c++/7/iostream
DA:74,12
LF:1
LH:1
end_of_record
SF:/usr/include/c++/7/new
FN:168,_ZnwmPv
FN:174,_ZdlPvS_
FNDA:0,_ZnwmPv
FNDA:0,_ZdlPvS_
FNF:2
FNH:0
DA:168,0
DA:169,0
DA:174,0
LF:3
LH:0
end_of_record
SF:/usr/include/c++/7/tuple
FN:76,_ZNSt10_Head_baseILm1ESt14default_deleteINSt7__cxx1112basic_stringIcSt11char_traitsIcESaIcEEEELb1EEC2Ev
FN:113,_ZNSt10_Head_baseILm1ESt14default_deleteINSt7__cxx1118basic_stringstreamIcSt11char_traitsIcESaIcEEEELb1EE7_M_headERS8_
FN:113,_ZNSt10_Head_baseILm1ESt14default_deleteINSt7__cxx1112basic_stringIcSt11char_traitsIcESaIcEEEELb1EE7_M_headERS8_
FN:122,_ZNSt10_Head_baseILm0EPNSt7__cxx1112basic_stringIcSt11char_traitsIcESaIcEEELb0EEC2Ev
FN:160,_ZNSt10_Head_baseILm0EPNSt7__cxx1112basic_stringIcSt11char_traitsIcESaIcEEELb0EE7_M_headERS7_
FN:160,_ZNSt10_Head_baseILm0EPNSt7__cxx1118basic_stringstreamIcSt11char_traitsIcESaIcEEELb0EE7_M_headERS7_
FN:195,_ZNSt11_Tuple_implILm0EJPNSt7__cxx1118basic_stringstreamIcSt11char_traitsIcESaIcEEESt14default_deleteIS5_EEE7_M_headERS9_
FN:195,_ZNSt11_Tuple_implILm0EJPNSt7__cxx1112basic_stringIcSt11char_traitsIcESaIcEEESt14default_deleteIS5_EEE7_M_headERS9_
FN:206,_ZNSt11_Tuple_implILm0EJPNSt7__cxx1112basic_stringIcSt11char_traitsIcESaIcEEESt14default_deleteIS5_EEEC2Ev
FN:351,_ZNSt11_Tuple_implILm1EJSt14default_deleteINSt7__cxx1112basic_stringIcSt11char_traitsIcESaIcEEEEEE7_M_headERS8_
FN:351,_ZNSt11_Tuple_implILm1EJSt14default_deleteINSt7__cxx1118basic_stringstreamIcSt11char_traitsIcESaIcEEEEEE7_M_headERS8_
FN:356,_ZNSt11_Tuple_implILm1EJSt14default_deleteINSt7__cxx1112basic_stringIcSt11char_traitsIcESaIcEEEEEEC2Ev
FN:919,_ZNSt5tupleIJPNSt7__cxx1112basic_stringIcSt11char_traitsIcESaIcEEESt14default_deleteIS5_EEEC2IS6_S8_Lb1EEEv
FN:1303,_ZSt12__get_helperILm1ESt14default_deleteINSt7__cxx1112basic_stringIcSt11char_traitsIcESaIcEEEEJEERT0_RSt11_Tuple_implIXT_EJS8_DpT1_EE
FN:1303,_ZSt12__get_helperILm0EPNSt7__cxx1118basic_stringstreamIcSt11char_traitsIcESaIcEEEJSt14default_deleteIS5_EEERT0_RSt11_Tuple_implIXT_EJS9_DpT1_EE
FN:1303,_ZSt12__get_helperILm1ESt14default_deleteINSt7__cxx1118basic_stringstreamIcSt11char_traitsIcESaIcEEEEJEERT0_RSt11_Tuple_implIXT_EJS8_DpT1_EE
FN:1303,_ZSt12__get_helperILm0EPNSt7__cxx1112basic_stringIcSt11char_traitsIcESaIcEEEJSt14default_deleteIS5_EEERT0_RSt11_Tuple_implIXT_EJS9_DpT1_EE
FN:1314,_ZSt3getILm1EJPNSt7__cxx1112basic_stringIcSt11char_traitsIcESaIcEEESt14default_deleteIS5_EEERNSt13tuple_elementIXT_ESt5tupleIJDpT0_EEE4typeERSD_
FN:1314,_ZSt3getILm0EJPNSt7__cxx1112basic_stringIcSt11char_traitsIcESaIcEEESt14default_deleteIS5_EEERNSt13tuple_elementIXT_ESt5tupleIJDpT0_EEE4typeERSD_
FN:1314,_ZSt3getILm1EJPNSt7__cxx1118basic_stringstreamIcSt11char_traitsIcESaIcEEESt14default_deleteIS5_EEERNSt13tuple_elementIXT_ESt5tupleIJDpT0_EEE4typeERSD_
FN:1314,_ZSt3getILm0EJPNSt7__cxx1118basic_stringstreamIcSt11char_traitsIcESaIcEEESt14default_deleteIS5_EEERNSt13tuple_elementIXT_ESt5tupleIJDpT0_EEE4typeERSD_
FNDA:0,_ZNSt10_Head_baseILm1ESt14default_deleteINSt7__cxx1112basic_stringIcSt11char_traitsIcESaIcEEEELb1EEC2Ev
FNDA:0,_ZNSt10_Head_baseILm1ESt14default_deleteINSt7__cxx1112basic_stringIcSt11char_traitsIcESaIcEEEELb1EE7_M_headERS8_
FNDA:0,_ZNSt10_Head_baseILm1ESt14default_deleteINSt7__cxx1118basic_stringstreamIcSt11char_traitsIcESaIcEEEELb1EE7_M_headERS8_
FNDA:0,_ZNSt10_Head_baseILm0EPNSt7__cxx1112basic_stringIcSt11char_traitsIcESaIcEEELb0EEC2Ev
FNDA:0,_ZNSt10_Head_baseILm0EPNSt7__cxx1112basic_stringIcSt11char_traitsIcESaIcEEELb0EE7_M_headERS7_
FNDA:0,_ZNSt10_Head_baseILm0EPNSt7__cxx1118basic_stringstreamIcSt11char_traitsIcESaIcEEELb0EE7_M_headERS7_
FNDA:0,_ZNSt11_Tuple_implILm0EJPNSt7__cxx1112basic_stringIcSt11char_traitsIcESaIcEEESt14default_deleteIS5_EEE7_M_headERS9_
FNDA:0,_ZNSt11_Tuple_implILm0EJPNSt7__cxx1118basic_stringstreamIcSt11char_traitsIcESaIcEEESt14default_deleteIS5_EEE7_M_headERS9_
FNDA:0,_ZNSt11_Tuple_implILm0EJPNSt7__cxx1112basic_stringIcSt11char_traitsIcESaIcEEESt14default_deleteIS5_EEEC2Ev
FNDA:0,_ZNSt11_Tuple_implILm1EJSt14default_deleteINSt7__cxx1112basic_stringIcSt11char_traitsIcESaIcEEEEEE7_M_headERS8_
FNDA:0,_ZNSt11_Tuple_implILm1EJSt14default_deleteINSt7__cxx1118basic_stringstreamIcSt11char_traitsIcESaIcEEEEEE7_M_headERS8_
FNDA:0,_ZNSt11_Tuple_implILm1EJSt14default_deleteINSt7__cxx1112basic_stringIcSt11char_traitsIcESaIcEEEEEEC2Ev
FNDA:0,_ZNSt5tupleIJPNSt7__cxx1112basic_stringIcSt11char_traitsIcESaIcEEESt14default_deleteIS5_EEEC2IS6_S8_Lb1EEEv
FNDA:0,_ZSt12__get_helperILm1ESt14default_deleteINSt7__cxx1112basic_stringIcSt11char_traitsIcESaIcEEEEJEERT0_RSt11_Tuple_implIXT_EJS8_DpT1_EE
FNDA:0,_ZSt12__get_helperILm1ESt14default_deleteINSt7__cxx1118basic_stringstreamIcSt11char_traitsIcESaIcEEEEJEERT0_RSt11_Tuple_implIXT_EJS8_DpT1_EE
FNDA:0,_ZSt12__get_helperILm0EPNSt7__cxx1112basic_stringIcSt11char_traitsIcESaIcEEEJSt14default_deleteIS5_EEERT0_RSt11_Tuple_implIXT_EJS9_DpT1_EE
FNDA:0,_ZSt12__get_helperILm0EPNSt7__cxx1118basic_stringstreamIcSt11char_traitsIcESaIcEEEJSt14default_deleteIS5_EEERT0_RSt11_Tuple_implIXT_EJS9_DpT1_EE
FNDA:0,_ZSt3getILm1EJPNSt7__cxx1112basic_stringIcSt11char_traitsIcESaIcEEESt14default_deleteIS5_EEERNSt13tuple_elementIXT_ESt5tupleIJDpT0_EEE4typeERSD_
FNDA:0,_ZSt3getILm1EJPNSt7__cxx1118basic_stringstreamIcSt11char_traitsIcESaIcEEESt14default_deleteIS5_EEERNSt13tuple_elementIXT_ESt5tupleIJDpT0_EEE4typeERSD_
FNDA:0,_ZSt3getILm0EJPNSt7__cxx1112basic_stringIcSt11char_traitsIcESaIcEEESt14default_deleteIS5_EEERNSt13tuple_elementIXT_ESt5tupleIJDpT0_EEE4typeERSD_
FNDA:0,_ZSt3getILm0EJPNSt7__cxx1118basic_stringstreamIcSt11char_traitsIcESaIcEEESt14default_deleteIS5_EEERNSt13tuple_elementIXT_ESt5tupleIJDpT0_EEE4typeERSD_
FNF:21
FNH:0
DA:76,0
DA:77,0
DA:113,0
DA:122,0
DA:123,0
DA:160,0
DA:195,0
DA:206,0
DA:207,0
DA:351,0
DA:356,0
DA:357,0
DA:919,0
DA:920,0
DA:1303,0
DA:1304,0
DA:1314,0
DA:1315,0
LF:18
LH:0
end_of_record
TN:
SF:/home/fyulita/Desktop/tpi/algo1-TPI/auxiliares.cpp
FN:9,_Z8esMatrizRKSt6vectorIS_IiSaIiEESaIS1_EE
FN:26,_Z5vaciaRKSt6vectorIS_IiSaIiEESaIS1_EE
FN:31,_Z9esBinariaRKSt6vectorIS_IiSaIiEESaIS1_EE
FN:46,_Z8activadoSt6vectorIiSaIiEES_IS1_SaIS1_EE
FN:50,_Z11pixelValidoSt6vectorIiSaIiEES_IS1_SaIS1_EE
FN:57,_Z20pixelValidoEncendidoSt6vectorIiSaIiEES_IS1_SaIS1_EE
FN:61,_Z15perteneceAListaSt6vectorIiSaIiEES_IS1_SaIS1_EE
FN:72,_Z12existeCaminoRKSt6vectorIS_IiSaIiEESaIS1_EERKS1_S7_i
FN:167,_Z13imagenApagadaRKSt6vectorIS_IiSaIiEESaIS1_EE
FN:179,_Z16contenidoSqPixelRKSt6vectorIS_IiSaIiEESaIS1_EERKS_IS3_SaIS3_EE
FN:189,_Z11hacerRegionRKSt6vectorIS_IiSaIiEESaIS1_EERKS1_i
FN:204,_Z8regionesRKSt6vectorIS_IiSaIiEESaIS1_EEi
FN:219,_Z13promedioAreasRKSt6vectorIS_IiSaIiEESaIS1_EEi
FN:230,_Z23tocaConBackgroundOBordeSt6vectorIiSaIiEES_IS1_SaIS1_EEi
FN:261,_Z22sonTodosLosDelContornoRKSt6vectorIS_IiSaIiEESaIS1_EERS3_i
FN:280,_Z12borrarImagenRSt6vectorIS_IiSaIiEESaIS1_EE
FN:288,_Z37pixelesActivadosDelElemEstrucCentradoRSt6vectorIS_IiSaIiEESaIS1_EERKS3_RKS1_
FN:308,_Z6dilataRSt6vectorIS_IiSaIiEESaIS1_EERKS3_RKS1_
FN:321,_Z10dilatacionRSt6vectorIS_IiSaIiEESaIS1_EERKS3_
FN:336,_Z8erosionaRSt6vectorIS_IiSaIiEESaIS1_EERKS3_RS1_
FN:349,_Z7erosionRSt6vectorIS_IiSaIiEESaIS1_EERKS3_
FN:366,_Z26dilatacionLuegoIntereccionRSt6vectorIS_IiSaIiEESaIS1_EES4_S4_S4_
FN:382,_Z20dilatIntersecIgualesRSt6vectorIS_IiSaIiEESaIS1_EES4_S4_S4_S4_Ri
FN:392,_Z13obtenerRegionRSt6vectorIS_IiSaIiEESaIS1_EERKS1_i
FN:411,_Z41__static_initialization_and_destruction_0ii
FN:411,_GLOBAL__sub_I__Z8esMatrizRKSt6vectorIS_IiSaIiEESaIS1_EE
FNDA:9,_Z8esMatrizRKSt6vectorIS_IiSaIiEESaIS1_EE
FNDA:7,_Z5vaciaRKSt6vectorIS_IiSaIiEESaIS1_EE
FNDA:6,_Z9esBinariaRKSt6vectorIS_IiSaIiEESaIS1_EE
FNDA:182246,_Z8activadoSt6vectorIiSaIiEES_IS1_SaIS1_EE
FNDA:356655,_Z11pixelValidoSt6vectorIiSaIiEES_IS1_SaIS1_EE
FNDA:340950,_Z20pixelValidoEncendidoSt6vectorIiSaIiEES_IS1_SaIS1_EE
FNDA:394831,_Z15perteneceAListaSt6vectorIiSaIiEES_IS1_SaIS1_EE
FNDA:10902,_Z12existeCaminoRKSt6vectorIS_IiSaIiEESaIS1_EERKS1_S7_i
FNDA:22,_Z13imagenApagadaRKSt6vectorIS_IiSaIiEESaIS1_EE
FNDA:623,_Z16contenidoSqPixelRKSt6vectorIS_IiSaIiEESaIS1_EERKS_IS3_SaIS3_EE
FNDA:1090,_Z11hacerRegionRKSt6vectorIS_IiSaIiEESaIS1_EERKS1_i
FNDA:138,_Z8regionesRKSt6vectorIS_IiSaIiEESaIS1_EEi
FNDA:15,_Z13promedioAreasRKSt6vectorIS_IiSaIiEESaIS1_EEi
FNDA:56,_Z23tocaConBackgroundOBordeSt6vectorIiSaIiEES_IS1_SaIS1_EEi
FNDA:4,_Z22sonTodosLosDelContornoRKSt6vectorIS_IiSaIiEESaIS1_EERS3_i
FNDA:29,_Z12borrarImagenRSt6vectorIS_IiSaIiEESaIS1_EE
FNDA:1745,_Z37pixelesActivadosDelElemEstrucCentradoRSt6vectorIS_IiSaIiEESaIS1_EERKS3_RKS1_
FNDA:1468,_Z6dilataRSt6vectorIS_IiSaIiEESaIS1_EERKS3_RKS1_
FNDA:17,_Z10dilatacionRSt6vectorIS_IiSaIiEESaIS1_EERKS3_
FNDA:273,_Z8erosionaRSt6vectorIS_IiSaIiEESaIS1_EERKS3_RS1_
FNDA:5,_Z7erosionRSt6vectorIS_IiSaIiEESaIS1_EERKS3_
FNDA:12,_Z26dilatacionLuegoIntereccionRSt6vectorIS_IiSaIiEESaIS1_EES4_S4_S4_
FNDA:12,_Z20dilatIntersecIgualesRSt6vectorIS_IiSaIiEESaIS1_EES4_S4_S4_S4_Ri
FNDA:4,_Z13obtenerRegionRSt6vectorIS_IiSaIiEESaIS1_EERKS1_i
FNDA:1,_GLOBAL__sub_I__Z8esMatrizRKSt6vectorIS_IiSaIiEESaIS1_EE
FNDA:1,_Z41__static_initialization_and_destruction_0ii
FNF:26
FNH:26
DA:9,9
DA:10,9
DA:11,23
DA:12,14
DA:13,14
DA:14,0
DA:16,42
DA:17,28
DA:18,4
DA:23,9
DA:26,7
DA:27,7
DA:28,7
DA:31,6
DA:32,6
DA:33,20
DA:34,48
DA:35,34
DA:36,2
DA:40,6
DA:46,182246
DA:47,182246
DA:50,356655
DA:51,356655
DA:52,0
DA:54,356655
DA:57,340950
DA:58,340950
DA:61,394831
DA:62,394831
DA:63,394831
DA:64,2683989
DA:65,1144579
DA:66,73942
DA:67,1144579
DA:69,394831
DA:72,10902
DA:74,10902
DA:75,10902
DA:76,5755
DA:78,10294
DA:79,5147
DA:80,10294
DA:81,5147
DA:82,10294
DA:83,10294
DA:84,108907
DA:86,51880
DA:87,213722
DA:89,80921
DA:90,16500
DA:91,16500
DA:92,16500
DA:93,167
DA:96,16500
DA:97,16500
DA:98,16500
DA:100,16
DA:103,16500
DA:104,16500
DA:105,16500
DA:107,95
DA:110,16500
DA:111,16500
DA:112,16500
DA:114,49
DA:117,80921
DA:118,80921
DA:120,80921
DA:121,80921
DA:123,80921
DA:124,80921
DA:126,80921
DA:127,80921
DA:129,80921
DA:131,1364
DA:134,80921
DA:136,967
DA:139,80921
DA:141,1473
DA:144,80921
DA:146,950
DA:149,80921
DA:152,51880
DA:154,51880
DA:156,5147
DA:158,1891
DA:162,10902
DA:167,22
DA:168,22
DA:169,85
DA:170,236
DA:171,173
DA:172,76
DA:176,22
DA:179,623
DA:180,623
DA:181,1515
DA:182,892
DA:183,154
DA:186,623
DA:189,1090
DA:190,1090
DA:191,2180
DA:192,4594
DA:193,14388
DA:194,10884
DA:195,10884
DA:196,10884
DA:197,1881
DA:201,2180
DA:204,138
DA:205,138
DA:206,276
DA:207,578
DA:208,1788
DA:209,1348
DA:210,1348
DA:211,1348
DA:212,468
DA:216,276
DA:219,15
DA:220,15
DA:221,55
DA:222,40
DA:223,40
DA:224,40
DA:226,15
DA:230,56
DA:231,56
DA:232,112
DA:233,56
DA:234,56
DA:235,56
DA:236,56
DA:237,336
DA:238,316
DA:239,40
DA:241,56
DA:242,16
DA:243,8
DA:244,8
DA:245,8
DA:246,8
DA:247,8
DA:248,8
DA:249,8
DA:250,8
DA:251,57
DA:252,55
DA:253,4
DA:257,112
DA:261,4
DA:263,4
DA:265,44
DA:266,20
DA:267,228
DA:268,104
DA:269,44
DA:271,104
DA:273,20
DA:275,4
DA:280,29
DA:281,266
DA:282,2376
DA:283,2139
DA:286,29
DA:288,1745
DA:289,3490
DA:290,1745
DA:291,1745
DA:292,1745
DA:293,1745
DA:294,1745
DA:295,3490
DA:296,6980
DA:297,20940
DA:298,15705
DA:299,15705
DA:300,15705
DA:301,12326
DA:305,3490
DA:308,1468
DA:309,2936
DA:310,2936
DA:311,1468
DA:312,12312
DA:313,10844
DA:314,10844
DA:315,1725
DA:318,2936
DA:321,17
DA:322,34
DA:323,34
DA:324,17
DA:325,175
DA:326,1626
DA:327,1468
DA:328,1468
DA:329,1468
DA:330,636
DA:334,17
DA:336,273
DA:337,546
DA:338,546
DA:339,273
DA:340,1730
DA:341,1457
DA:342,1457
DA:343,573
DA:346,546
DA:349,5
DA:350,10
DA:351,10
DA:352,5
DA:353,40
DA:354,308
DA:355,273
DA:356,273
DA:357,273
DA:358,77
DA:362,5
DA:366,12
DA:367,12
DA:368,12
DA:369,252
DA:370,120
DA:371,2520
DA:372,1200
DA:373,196
DA:375,1200
DA:377,120
DA:379,12
DA:382,12
DA:383,12
DA:384,12
DA:385,12
DA:386,2
DA:388,12
DA:389,12
DA:392,4
DA:393,8
DA:394,8
DA:395,8
DA:396,4
DA:397,4
DA:398,4
DA:399,4
DA:400,4
DA:401,4
DA:402,22
DA:404,10
DA:405,10
DA:408,2
DA:410,8
DA:411,3
LF:256
LH:254
end_of_record
SF:/usr/include/c++/7/bits/alloc_traits.h
FN:435,_ZNSt16allocator_traitsISaIiEE8allocateERS0_m
FN:435,_ZNSt16allocator_traitsISaISt6vectorIS0_IiSaIiEESaIS2_EEEE8allocateERS5_m
FN:435,_ZNSt16allocator_traitsISaISt6vectorIiSaIiEEEE8allocateERS3_m
FN:461,_ZNSt16allocator_traitsISaISt6vectorIS0_IiSaIiEESaIS2_EEEE10deallocateERS5_PS4_m
FN:461,_ZNSt16allocator_traitsISaISt6vectorIiSaIiEEEE10deallocateERS3_PS2_m
FN:461,_ZNSt16allocator_traitsISaIiEE10deallocateERS0_Pim
FN:474,_ZNSt16allocator_traitsISaISt6vectorIiSaIiEEEE9constructIS2_JRKS2_EEEvRS3_PT_DpOT0_
FN:474,_ZNSt16allocator_traitsISaISt6vectorIiSaIiEEEE9constructIS2_JS2_EEEvRS3_PT_DpOT0_
FN:474,_ZNSt16allocator_traitsISaISt6vectorIS0_IiSaIiEESaIS2_EEEE9constructIS4_JS4_EEEvRS5_PT_DpOT0_
FN:486,_ZNSt16allocator_traitsISaISt6vectorIiSaIiEEEE7destroyIS2_EEvRS3_PT_
FN:486,_ZNSt16allocator_traitsISaISt6vectorIS0_IiSaIiEESaIS2_EEEE7destroyIS4_EEvRS5_PT_
FN:495,_ZNSt16allocator_traitsISaISt6vectorIS0_IiSaIiEESaIS2_EEEE8max_sizeERKS5_
FN:495,_ZNSt16allocator_traitsISaISt6vectorIiSaIiEEEE8max_sizeERKS3_
FN:504,_ZNSt16allocator_traitsISaISt6vectorIiSaIiEEEE37select_on_container_copy_constructionERKS3_
FN:504,_ZNSt16allocator_traitsISaIiEE37select_on_container_copy_constructionERKS0_
FN:516,_ZSt18__do_alloc_on_copyISaISt6vectorIiSaIiEEEEvRT_RKS4_St17integral_constantIbLb0EE
FN:516,_ZSt18__do_alloc_on_copyISaIiEEvRT_RKS1_St17integral_constantIbLb0EE
FN:520,_ZSt15__alloc_on_copyISaISt6vectorIiSaIiEEEEvRT_RKS4_
FN:520,_ZSt15__alloc_on_copyISaIiEEvRT_RKS1_
FNDA:389,_ZNSt16allocator_traitsISaISt6vectorIS0_IiSaIiEESaIS2_EEEE8allocateERS5_m
FNDA:5604701,_ZNSt16allocator_traitsISaIiEE8allocateERS0_m
FNDA:1301732,_ZNSt16allocator_traitsISaISt6vectorIiSaIiEEEE8allocateERS3_m
FNDA:389,_ZNSt16allocator_traitsISaISt6vectorIS0_IiSaIiEESaIS2_EEEE10deallocateERS5_PS4_m
FNDA:0,_ZNSt16allocator_traitsISaIiEE10deallocateERS0_Pim
FNDA:0,_ZNSt16allocator_traitsISaISt6vectorIiSaIiEEEE10deallocateERS3_PS2_m
FNDA:44,_ZNSt16allocator_traitsISaISt6vectorIiSaIiEEEE9constructIS2_JS2_EEEvRS3_PT_DpOT0_
FNDA:468,_ZNSt16allocator_traitsISaISt6vectorIS0_IiSaIiEESaIS2_EEEE9constructIS4_JS4_EEEvRS5_PT_DpOT0_
FNDA:29626,_ZNSt16allocator_traitsISaISt6vectorIiSaIiEEEE9constructIS2_JRKS2_EEEvRS3_PT_DpOT0_
FNDA:0,_ZNSt16allocator_traitsISaISt6vectorIS0_IiSaIiEESaIS2_EEEE7destroyIS4_EEvRS5_PT_
FNDA:0,_ZNSt16allocator_traitsISaISt6vectorIiSaIiEEEE7destroyIS2_EEvRS3_PT_
FNDA:766,_ZNSt16allocator_traitsISaISt6vectorIS0_IiSaIiEESaIS2_EEEE8max_sizeERKS5_
FNDA:46058,_ZNSt16allocator_traitsISaISt6vectorIiSaIiEEEE8max_sizeERKS3_
FNDA:1274782,_ZNSt16allocator_traitsISaISt6vectorIiSaIiEEEE37select_on_container_copy_constructionERKS3_
FNDA:5556282,_ZNSt16allocator_traitsISaIiEE37select_on_container_copy_constructionERKS0_
FNDA:0,_ZSt18__do_alloc_on_copyISaIiEEvRT_RKS1_St17integral_constantIbLb0EE
FNDA:0,_ZSt18__do_alloc_on_copyISaISt6vectorIiSaIiEEEEvRT_RKS4_St17integral_constantIbLb0EE
FNDA:0,_ZSt15__alloc_on_copyISaIiEEvRT_RKS1_
FNDA:0,_ZSt15__alloc_on_copyISaISt6vectorIiSaIiEEEEvRT_RKS4_
FNF:19
FNH:11
DA:435,6906822
DA:436,6906822
DA:461,389
DA:462,389
DA:474,30138
DA:475,30138
DA:486,0
DA:487,0
DA:495,46824
DA:496,46824
DA:504,6831064
DA:505,6831064
DA:516,0
DA:517,0
DA:520,0
DA:524,0
DA:525,0
LF:17
LH:10
end_of_record
SF:/usr/include/c++/7/bits/allocator.h
FN:131,_ZNSaISt6vectorIS_IiSaIiEESaIS1_EEEC2Ev
FN:131,_ZNSaISt6vectorIiSaIiEEEC2Ev
FN:131,_ZNSaIiEC2Ev
FN:133,_ZNSaISt6vectorIiSaIiEEEC2ERKS2_
FN:133,_ZNSaIiEC2ERKS_
FN:139,_ZNSaISt6vectorIS_IiSaIiEESaIS1_EEED2Ev
FN:139,_ZNSaISt6vectorIiSaIiEEED2Ev
FN:139,_ZNSaIiED2Ev
FN:164,_ZStneIiEbRKSaIT_ES3_
FN:164,_ZStneISt6vectorIiSaIiEEEbRKSaIT_ES6_
FNDA:145,_ZNSaISt6vectorIS_IiSaIiEESaIS1_EEEC2Ev
FNDA:48376,_ZNSaIiEC2Ev
FNDA:0,_ZNSaISt6vectorIiSaIiEEEC2Ev
FNDA:0,_ZNSaISt6vectorIiSaIiEEEC2ERKS2_
FNDA:11187030,_ZNSaIiEC2ERKS_
FNDA:151,_ZNSaISt6vectorIS_IiSaIiEESaIS1_EEED2Ev
FNDA:0,_ZNSaIiED2Ev
FNDA:0,_ZNSaISt6vectorIiSaIiEEED2Ev
FNDA:0,_ZStneIiEbRKSaIT_ES3_
FNDA:0,_ZStneISt6vectorIiSaIiEEEbRKSaIT_ES6_
FNF:10
FNH:4
DA:131,48521
DA:133,11187030
DA:134,11187030
DA:139,151
DA:164,0
DA:166,0
LF:6
LH:4
end_of_record
SF:/usr/include/c++/7/bits/cpp_type_traits.h
FN:408,_ZSt12__miter_baseIPSt6vectorIiSaIiEEET_S4_
FN:408,_ZSt12__miter_baseIPiET_S1_
FN:408,_ZSt12__miter_baseIPKiET_S2_
FN:408,_ZSt12__miter_baseIN9__gnu_cxx17__normal_iteratorIPKiSt6vectorIiSaIiEEEEET_S8_
FN:408,_ZSt12__miter_baseIN9__gnu_cxx17__normal_iteratorIPKSt6vectorIiSaIiEES2_IS4_SaIS4_EEEEET_SA_
FNDA:1386,_ZSt12__miter_baseIPKiET_S2_
FNDA:264,_ZSt12__miter_baseIPiET_S1_
FNDA:11291468,_ZSt12__miter_baseIN9__gnu_cxx17__normal_iteratorIPKiSt6vectorIiSaIiEEEEET_S8_
FNDA:0,_ZSt12__miter_baseIPSt6vectorIiSaIiEEET_S4_
FNDA:96250,_ZSt12__miter_baseIN9__gnu_cxx17__normal_iteratorIPKSt6vectorIiSaIiEES2_IS4_SaIS4_EEEEET_SA_
FNF:5
FNH:4
DA:408,11389368
DA:409,11389368
LF:2
LH:2
end_of_record
SF:/usr/include/c++/7/bits/move.h
FN:47,_ZSt11__addressofISt6vectorIS0_IiSaIiEESaIS2_EEEPT_RS5_
FN:47,_ZSt11__addressofISt6vectorIiSaIiEEEPT_RS3_
FN:73,_ZSt7forwardIRSt6vectorIiSaIiEEEOT_RNSt16remove_referenceIS4_E4typeE
FN:73,_ZSt7forwardISt6vectorIS0_IiSaIiEESaIS2_EEEOT_RNSt16remove_referenceIS5_E4typeE
FN:73,_ZSt7forwardIRKSt6vectorIiSaIiEEEOT_RNSt16remove_referenceIS5_E4typeE
FN:73,_ZSt7forwardISt6vectorIiSaIiEEEOT_RNSt16remove_referenceIS3_E4typeE
FN:98,_ZSt4moveIRSt6vectorIiSaIiEEEONSt16remove_referenceIT_E4typeEOS5_
FN:98,_ZSt4moveIRSaISt6vectorIiSaIiEEEEONSt16remove_referenceIT_E4typeEOS6_
FN:98,_ZSt4moveIRSaIiEEONSt16remove_referenceIT_E4typeEOS3_
FN:98,_ZSt4moveIRPiEONSt16remove_referenceIT_E4typeEOS3_
FN:98,_ZSt4moveIRSt6vectorIS0_IiSaIiEESaIS2_EEEONSt16remove_referenceIT_E4typeEOS7_
FN:98,_ZSt4moveIRPSt6vectorIiSaIiEEEONSt16remove_referenceIT_E4typeEOS6_
FN:187,_ZSt4swapIPSt6vectorIiSaIiEEENSt9enable_ifIXsrSt6__and_IJSt6__not_ISt15__is_tuple_likeIT_EESt21is_move_constructibleIS8_ESt18is_move_assignableIS8_EEE5valueEvE4typeERS8_SI_
FN:187,_ZSt4swapIPiENSt9enable_ifIXsrSt6__and_IJSt6__not_ISt15__is_tuple_likeIT_EESt21is_move_constructibleIS5_ESt18is_move_assignableIS5_EEE5valueEvE4typeERS5_SF_
FNDA:1374,_ZSt11__addressofISt6vectorIS0_IiSaIiEESaIS2_EEEPT_RS5_
FNDA:0,_ZSt11__addressofISt6vectorIiSaIiEEEPT_RS3_
FNDA:0,_ZSt7forwardIRSt6vectorIiSaIiEEEOT_RNSt16remove_referenceIS4_E4typeE
FNDA:27720,_ZSt7forwardISt6vectorIiSaIiEEEOT_RNSt16remove_referenceIS3_E4typeE
FNDA:2226,_ZSt7forwardISt6vectorIS0_IiSaIiEESaIS2_EEEOT_RNSt16remove_referenceIS5_E4typeE
FNDA:4333980,_ZSt7forwardIRKSt6vectorIiSaIiEEEOT_RNSt16remove_referenceIS5_E4typeE
FNDA:250677,_ZSt4moveIRPiEONSt16remove_referenceIT_E4typeEOS3_
FNDA:55466,_ZSt4moveIRSaIiEEONSt16remove_referenceIT_E4typeEOS3_
FNDA:0,_ZSt4moveIRPSt6vectorIiSaIiEEEONSt16remove_referenceIT_E4typeEOS6_
FNDA:0,_ZSt4moveIRSaISt6vectorIiSaIiEEEEONSt16remove_referenceIT_E4typeEOS6_
FNDA:27977,_ZSt4moveIRSt6vectorIiSaIiEEEONSt16remove_referenceIT_E4typeEOS5_
FNDA:0,_ZSt4moveIRSt6vectorIS0_IiSaIiEESaIS2_EEEONSt16remove_referenceIT_E4typeEOS7_
FNDA:83559,_ZSt4swapIPiENSt9enable_ifIXsrSt6__and_IJSt6__not_ISt15__is_tuple_likeIT_EESt21is_move_constructibleIS5_ESt18is_move_assignableIS5_EEE5valueEvE4typeERS5_SF_
FNDA:0,_ZSt4swapIPSt6vectorIiSaIiEEENSt9enable_ifIXsrSt6__and_IJSt6__not_ISt15__is_tuple_likeIT_EESt21is_move_constructibleIS8_ESt18is_move_assignableIS8_EEE5valueEvE4typeERS8_SI_
FNF:14
FNH:8
DA:47,1374
DA:48,1374
DA:73,4363926
DA:74,4363926
DA:98,334120
DA:99,334120
DA:187,83559
DA:198,83559
DA:199,83559
DA:200,83559
DA:201,83559
LF:11
LH:11
end_of_record
SF:/usr/include/c++/7/bits/stl_algobase.h
FN:219,_ZSt3maxImERKT_S2_S2_
FN:277,_ZSt12__niter_baseIPiET_S1_
FN:277,_ZSt12__niter_baseIPSt6vectorIiSaIiEEET_S4_
FN:277,_ZSt12__niter_baseIPKiET_S2_
FN:319,_ZNSt11__copy_moveILb0ELb0ESt26random_access_iterator_tagE8__copy_mIPSt6vectorIiSaIiEES6_EET0_T_S8_S7_
FN:319,_ZNSt11__copy_moveILb0ELb0ESt26random_access_iterator_tagE8__copy_mIPKSt6vectorIiSaIiEEPS5_EET0_T_SA_S9_
FN:357,_ZNSt11__copy_moveILb0ELb1ESt26random_access_iterator_tagE8__copy_mIiEEPT_PKS3_S6_S4_
FN:375,_ZSt13__copy_move_aILb0EPSt6vectorIiSaIiEES3_ET1_T0_S5_S4_
FN:375,_ZSt13__copy_move_aILb0EPiS0_ET1_T0_S2_S1_
FN:375,_ZSt13__copy_move_aILb0EPKSt6vectorIiSaIiEEPS2_ET1_T0_S7_S6_
FN:375,_ZSt13__copy_move_aILb0EPKiPiET1_T0_S4_S3_
FN:420,_ZSt14__copy_move_a2ILb0EN9__gnu_cxx17__normal_iteratorIPKiSt6vectorIiSaIiEEEENS1_IPiS6_EEET1_T0_SB_SA_
FN:420,_ZSt14__copy_move_a2ILb0EPiS0_ET1_T0_S2_S1_
FN:420,_ZSt14__copy_move_a2ILb0EN9__gnu_cxx17__normal_iteratorIPKSt6vectorIiSaIiEES2_IS4_SaIS4_EEEENS1_IPS4_S8_EEET1_T0_SD_SC_
FN:420,_ZSt14__copy_move_a2ILb0EN9__gnu_cxx17__normal_iteratorIPKiSt6vectorIiSaIiEEEEPiET1_T0_SA_S9_
FN:420,_ZSt14__copy_move_a2ILb0EPSt6vectorIiSaIiEES3_ET1_T0_S5_S4_
FN:420,_ZSt14__copy_move_a2ILb0EPKiPiET1_T0_S4_S3_
FN:446,_ZSt4copyIPKiPiET0_T_S4_S3_
FN:446,_ZSt4copyIN9__gnu_cxx17__normal_iteratorIPKSt6vectorIiSaIiEES2_IS4_SaIS4_EEEENS1_IPS4_S8_EEET0_T_SD_SC_
FN:446,_ZSt4copyIN9__gnu_cxx17__normal_iteratorIPKiSt6vectorIiSaIiEEEEPiET0_T_SA_S9_
FN:446,_ZSt4copyIN9__gnu_cxx17__normal_iteratorIPKiSt6vectorIiSaIiEEEENS1_IPiS6_EEET0_T_SB_SA_
FN:446,_ZSt4copyIPiS0_ET0_T_S2_S1_
FN:446,_ZSt4copyIPSt6vectorIiSaIiEES3_ET0_T_S5_S4_
FN:749,_ZSt10__fill_n_aIPimiEN9__gnu_cxx11__enable_ifIXsrSt11__is_scalarIT1_E7__valueET_E6__typeES6_T0_RKS4_
FN:784,_ZSt6fill_nIPimiET_S1_T0_RKT1_
FN:797,_ZNSt7__equalILb0EE5equalIPKSt6vectorIiSaIiEES6_EEbT_S7_T0_
FN:811,_ZNSt7__equalILb1EE5equalIiEEbPKT_S4_S4_
FN:821,_ZSt11__equal_auxIPKSt6vectorIiSaIiEES4_EbT_S5_T0_
FN:821,_ZSt11__equal_auxIPKiS1_EbT_S2_T0_
FN:1041,_ZSt5equalIN9__gnu_cxx17__normal_iteratorIPKSt6vectorIiSaIiEES2_IS4_SaIS4_EEEES9_EbT_SA_T0_
FN:1041,_ZSt5equalIN9__gnu_cxx17__normal_iteratorIPKiSt6vectorIiSaIiEEEES7_EbT_S8_T0_
FNDA:23546,_ZSt3maxImERKT_S2_S2_
FNDA:1386,_ZSt12__niter_baseIPKiET_S2_
FNDA:5605032,_ZSt12__niter_baseIPiET_S1_
FNDA:0,_ZSt12__niter_baseIPSt6vectorIiSaIiEEET_S4_
FNDA:0,_ZNSt11__copy_moveILb0ELb0ESt26random_access_iterator_tagE8__copy_mIPSt6vectorIiSaIiEES6_EET0_T_S8_S7_
FNDA:48125,_ZNSt11__copy_moveILb0ELb0ESt26random_access_iterator_tagE8__copy_mIPKSt6vectorIiSaIiEEPS5_EET0_T_SA_S9_
FNDA:5646427,_ZNSt11__copy_moveILb0ELb1ESt26random_access_iterator_tagE8__copy_mIiEEPT_PKS3_S6_S4_
FNDA:0,_ZSt13__copy_move_aILb0EPiS0_ET1_T0_S2_S1_
FNDA:5646427,_ZSt13__copy_move_aILb0EPKiPiET1_T0_S4_S3_
FNDA:0,_ZSt13__copy_move_aILb0EPSt6vectorIiSaIiEES3_ET1_T0_S5_S4_
FNDA:48125,_ZSt13__copy_move_aILb0EPKSt6vectorIiSaIiEEPS2_ET1_T0_S7_S6_
FNDA:693,_ZSt14__copy_move_a2ILb0EPKiPiET1_T0_S4_S3_
FNDA:5558023,_ZSt14__copy_move_a2ILb0EN9__gnu_cxx17__normal_iteratorIPKiSt6vectorIiSaIiEEEEPiET1_T0_SA_S9_
FNDA:0,_ZSt14__copy_move_a2ILb0EPiS0_ET1_T0_S2_S1_
FNDA:87711,_ZSt14__copy_move_a2ILb0EN9__gnu_cxx17__normal_iteratorIPKiSt6vectorIiSaIiEEEENS1_IPiS6_EEET1_T0_SB_SA_
FNDA:0,_ZSt14__copy_move_a2ILb0EPSt6vectorIiSaIiEES3_ET1_T0_S5_S4_
FNDA:48125,_ZSt14__copy_move_a2ILb0EN9__gnu_cxx17__normal_iteratorIPKSt6vectorIiSaIiEES2_IS4_SaIS4_EEEENS1_IPS4_S8_EEET1_T0_SD_SC_
FNDA:693,_ZSt4copyIPKiPiET0_T_S4_S3_
FNDA:5558023,_ZSt4copyIN9__gnu_cxx17__normal_iteratorIPKiSt6vectorIiSaIiEEEEPiET0_T_SA_S9_
FNDA:0,_ZSt4copyIPiS0_ET0_T_S2_S1_
FNDA:87711,_ZSt4copyIN9__gnu_cxx17__normal_iteratorIPKiSt6vectorIiSaIiEEEENS1_IPiS6_EEET0_T_SB_SA_
FNDA:0,_ZSt4copyIPSt6vectorIiSaIiEES3_ET0_T_S5_S4_
FNDA:48125,_ZSt4copyIN9__gnu_cxx17__normal_iteratorIPKSt6vectorIiSaIiEES2_IS4_SaIS4_EEEENS1_IPS4_S8_EEET0_T_SD_SC_
FNDA:45920,_ZSt10__fill_n_aIPimiEN9__gnu_cxx11__enable_ifIXsrSt11__is_scalarIT1_E7__valueET_E6__typeES6_T0_RKS4_
FNDA:45920,_ZSt6fill_nIPimiET_S1_T0_RKT1_
FNDA:129858,_ZNSt7__equalILb0EE5equalIPKSt6vectorIiSaIiEES6_EEbT_S7_T0_
FNDA:0,_ZNSt7__equalILb1EE5equalIiEEbPKT_S4_S4_
FNDA:129858,_ZSt11__equal_auxIPKSt6vectorIiSaIiEES4_EbT_S5_T0_
FNDA:0,_ZSt11__equal_auxIPKiS1_EbT_S2_T0_
FNDA:129858,_ZSt5equalIN9__gnu_cxx17__normal_iteratorIPKSt6vectorIiSaIiEES2_IS4_SaIS4_EEEES9_EbT_SA_T0_
FNDA:0,_ZSt5equalIN9__gnu_cxx17__normal_iteratorIPKiSt6vectorIiSaIiEEEES7_EbT_S8_T0_
FNF:31
FNH:20
DA:219,23546
DA:224,23546
DA:225,13319
DA:226,10227
DA:277,5606418
DA:278,5606418
DA:319,48125
DA:322,125276
DA:324,77151
DA:325,77151
DA:326,77151
DA:328,48125
DA:357,5646427
DA:366,5646427
DA:367,5646427
DA:368,5646426
DA:369,5646427
DA:375,5694552
DA:380,5694552
DA:386,5694552
DA:420,5694552
DA:422,5830388
DA:424,5830388
DA:446,5694552
DA:455,5694552
DA:456,5694552
DA:749,45920
DA:751,45920
DA:752,137764
DA:753,137764
DA:754,91844
DA:755,45920
DA:784,45920
DA:789,45920
DA:797,459674
DA:799,789490
DA:800,330458
DA:801,642
DA:802,129216
DA:811,0
DA:813,0
DA:814,0
DA:815,0
DA:821,129858
DA:825,129858
DA:831,129858
DA:1041,129858
DA:1051,129858
DA:1053,129858
LF:49
LH:45
end_of_record
SF:/usr/include/c++/7/bits/stl_construct.h
FN:74,_ZSt10_ConstructISt6vectorIiSaIiEEJEEvPT_DpOT0_
FN:74,_ZSt10_ConstructISt6vectorIiSaIiEEJRKS2_EEvPT_DpOT0_
FN:74,_ZSt10_ConstructISt6vectorIiSaIiEEJRS2_EEvPT_DpOT0_
FN:74,_ZSt10_ConstructISt6vectorIS0_IiSaIiEESaIS2_EEJS4_EEvPT_DpOT0_
FN:74,_ZSt10_ConstructISt6vectorIiSaIiEEJS2_EEvPT_DpOT0_
FN:97,_ZSt8_DestroyISt6vectorIiSaIiEEEvPT_
FN:97,_ZSt8_DestroyISt6vectorIS0_IiSaIiEESaIS2_EEEvPT_
FN:105,_ZNSt12_Destroy_auxILb0EE9__destroyIN9__gnu_cxx17__normal_iteratorIPSt6vectorIiSaIiEES4_IS6_SaIS6_EEEEEEvT_SB_
FN:105,_ZNSt12_Destroy_auxILb0EE9__destroyIPSt6vectorIS2_IiSaIiEESaIS4_EEEEvT_S8_
FN:105,_ZNSt12_Destroy_auxILb0EE9__destroyIPSt6vectorIiSaIiEEEEvT_S6_
FN:117,_ZNSt12_Destroy_auxILb1EE9__destroyIN9__gnu_cxx17__normal_iteratorIPiSt6vectorIiSaIiEEEEEEvT_S9_
FN:117,_ZNSt12_Destroy_auxILb1EE9__destroyIPiEEvT_S3_
FN:127,_ZSt8_DestroyIN9__gnu_cxx17__normal_iteratorIPSt6vectorIiSaIiEES2_IS4_SaIS4_EEEEEvT_S9_
FN:127,_ZSt8_DestroyIPSt6vectorIS0_IiSaIiEESaIS2_EEEvT_S6_
FN:127,_ZSt8_DestroyIPSt6vectorIiSaIiEEEvT_S4_
FN:127,_ZSt8_DestroyIN9__gnu_cxx17__normal_iteratorIPiSt6vectorIiSaIiEEEEEvT_S7_
FN:127,_ZSt8_DestroyIPiEvT_S1_
FN:203,_ZSt8_DestroyIPiiEvT_S1_RSaIT0_E
FN:203,_ZSt8_DestroyIPSt6vectorIiSaIiEES2_EvT_S4_RSaIT0_E
FN:203,_ZSt8_DestroyIN9__gnu_cxx17__normal_iteratorIPSt6vectorIiSaIiEES2_IS4_SaIS4_EEEES4_EvT_S9_RSaIT0_E
FN:203,_ZSt8_DestroyIPSt6vectorIS0_IiSaIiEESaIS2_EES4_EvT_S6_RSaIT0_E
FN:203,_ZSt8_DestroyIN9__gnu_cxx17__normal_iteratorIPiSt6vectorIiSaIiEEEEiEvT_S7_RSaIT0_E
FNDA:439,_ZSt10_ConstructISt6vectorIS0_IiSaIiEESaIS2_EEJS4_EEvPT_DpOT0_
FNDA:27569,_ZSt10_ConstructISt6vectorIiSaIiEEJS2_EEvPT_DpOT0_
FNDA:0,_ZSt10_ConstructISt6vectorIiSaIiEEJEEvPT_DpOT0_
FNDA:0,_ZSt10_ConstructISt6vectorIiSaIiEEJRS2_EEvPT_DpOT0_
FNDA:4251718,_ZSt10_ConstructISt6vectorIiSaIiEEJRKS2_EEvPT_DpOT0_
FNDA:921,_ZSt8_DestroyISt6vectorIS0_IiSaIiEESaIS2_EEEvPT_
FNDA:0,_ZSt8_DestroyISt6vectorIiSaIiEEEvPT_
FNDA:528,_ZNSt12_Destroy_auxILb0EE9__destroyIPSt6vectorIS2_IiSaIiEESaIS4_EEEEvT_S8_
FNDA:48125,_ZNSt12_Destroy_auxILb0EE9__destroyIN9__gnu_cxx17__normal_iteratorIPSt6vectorIiSaIiEES4_IS6_SaIS6_EEEEEEvT_SB_
FNDA:0,_ZNSt12_Destroy_auxILb0EE9__destroyIPSt6vectorIiSaIiEEEEvT_S6_
FNDA:87711,_ZNSt12_Destroy_auxILb1EE9__destroyIN9__gnu_cxx17__normal_iteratorIPiSt6vectorIiSaIiEEEEEEvT_S9_
FNDA:0,_ZNSt12_Destroy_auxILb1EE9__destroyIPiEEvT_S3_
